
HeliosModifLora+SF.elf:     file format elf32-littlearm

Sections:
Idx Name          Size      VMA       LMA       File off  Algn
  0 .isr_vector   0000018c  08000000  08000000  00010000  2**0
                  CONTENTS, ALLOC, LOAD, READONLY, DATA
  1 .text         0000e3ec  08000190  08000190  00010190  2**4
                  CONTENTS, ALLOC, LOAD, READONLY, CODE
  2 .rodata       00001cf0  0800e580  0800e580  0001e580  2**3
                  CONTENTS, ALLOC, LOAD, READONLY, DATA
  3 .ARM.extab    00000000  08010270  08010270  0003090c  2**0
                  CONTENTS
  4 .ARM          00000008  08010270  08010270  00020270  2**2
                  CONTENTS, ALLOC, LOAD, READONLY, DATA
  5 .preinit_array 00000000  08010278  08010278  0003090c  2**0
                  CONTENTS, ALLOC, LOAD, DATA
  6 .init_array   00000004  08010278  08010278  00020278  2**2
                  CONTENTS, ALLOC, LOAD, DATA
  7 .fini_array   00000004  0801027c  0801027c  0002027c  2**2
                  CONTENTS, ALLOC, LOAD, DATA
  8 .data         0000090c  20000000  08010280  00030000  2**2
                  CONTENTS, ALLOC, LOAD, DATA
  9 .bss          00002654  2000090c  08010b8c  0003090c  2**2
                  ALLOC
 10 ._user_heap_stack 00001000  20002f60  08010b8c  00032f60  2**0
                  ALLOC
 11 .ARM.attributes 00000030  00000000  00000000  0003090c  2**0
                  CONTENTS, READONLY
 12 .comment      00000053  00000000  00000000  0003093c  2**0
                  CONTENTS, READONLY
 13 .debug_frame  000013b8  00000000  00000000  00030990  2**2
                  CONTENTS, READONLY, DEBUGGING, OCTETS

Disassembly of section .text:

08000190 <__do_global_dtors_aux>:
 8000190:	b510      	push	{r4, lr}
 8000192:	4c05      	ldr	r4, [pc, #20]	; (80001a8 <__do_global_dtors_aux+0x18>)
 8000194:	7823      	ldrb	r3, [r4, #0]
 8000196:	b933      	cbnz	r3, 80001a6 <__do_global_dtors_aux+0x16>
 8000198:	4b04      	ldr	r3, [pc, #16]	; (80001ac <__do_global_dtors_aux+0x1c>)
 800019a:	b113      	cbz	r3, 80001a2 <__do_global_dtors_aux+0x12>
 800019c:	4804      	ldr	r0, [pc, #16]	; (80001b0 <__do_global_dtors_aux+0x20>)
 800019e:	f3af 8000 	nop.w
 80001a2:	2301      	movs	r3, #1
 80001a4:	7023      	strb	r3, [r4, #0]
 80001a6:	bd10      	pop	{r4, pc}
 80001a8:	2000090c 	.word	0x2000090c
 80001ac:	00000000 	.word	0x00000000
 80001b0:	0800e564 	.word	0x0800e564

080001b4 <frame_dummy>:
 80001b4:	b508      	push	{r3, lr}
 80001b6:	4b03      	ldr	r3, [pc, #12]	; (80001c4 <frame_dummy+0x10>)
 80001b8:	b11b      	cbz	r3, 80001c2 <frame_dummy+0xe>
 80001ba:	4903      	ldr	r1, [pc, #12]	; (80001c8 <frame_dummy+0x14>)
 80001bc:	4803      	ldr	r0, [pc, #12]	; (80001cc <frame_dummy+0x18>)
 80001be:	f3af 8000 	nop.w
 80001c2:	bd08      	pop	{r3, pc}
 80001c4:	00000000 	.word	0x00000000
 80001c8:	20000910 	.word	0x20000910
 80001cc:	0800e564 	.word	0x0800e564

080001d0 <strlen>:
 80001d0:	4603      	mov	r3, r0
 80001d2:	f813 2b01 	ldrb.w	r2, [r3], #1
 80001d6:	2a00      	cmp	r2, #0
 80001d8:	d1fb      	bne.n	80001d2 <strlen+0x2>
 80001da:	1a18      	subs	r0, r3, r0
 80001dc:	3801      	subs	r0, #1
 80001de:	4770      	bx	lr

080001e0 <memchr>:
 80001e0:	f001 01ff 	and.w	r1, r1, #255	; 0xff
 80001e4:	2a10      	cmp	r2, #16
 80001e6:	db2b      	blt.n	8000240 <memchr+0x60>
 80001e8:	f010 0f07 	tst.w	r0, #7
 80001ec:	d008      	beq.n	8000200 <memchr+0x20>
 80001ee:	f810 3b01 	ldrb.w	r3, [r0], #1
 80001f2:	3a01      	subs	r2, #1
 80001f4:	428b      	cmp	r3, r1
 80001f6:	d02d      	beq.n	8000254 <memchr+0x74>
 80001f8:	f010 0f07 	tst.w	r0, #7
 80001fc:	b342      	cbz	r2, 8000250 <memchr+0x70>
 80001fe:	d1f6      	bne.n	80001ee <memchr+0xe>
 8000200:	b4f0      	push	{r4, r5, r6, r7}
 8000202:	ea41 2101 	orr.w	r1, r1, r1, lsl #8
 8000206:	ea41 4101 	orr.w	r1, r1, r1, lsl #16
 800020a:	f022 0407 	bic.w	r4, r2, #7
 800020e:	f07f 0700 	mvns.w	r7, #0
 8000212:	2300      	movs	r3, #0
 8000214:	e8f0 5602 	ldrd	r5, r6, [r0], #8
 8000218:	3c08      	subs	r4, #8
 800021a:	ea85 0501 	eor.w	r5, r5, r1
 800021e:	ea86 0601 	eor.w	r6, r6, r1
 8000222:	fa85 f547 	uadd8	r5, r5, r7
 8000226:	faa3 f587 	sel	r5, r3, r7
 800022a:	fa86 f647 	uadd8	r6, r6, r7
 800022e:	faa5 f687 	sel	r6, r5, r7
 8000232:	b98e      	cbnz	r6, 8000258 <memchr+0x78>
 8000234:	d1ee      	bne.n	8000214 <memchr+0x34>
 8000236:	bcf0      	pop	{r4, r5, r6, r7}
 8000238:	f001 01ff 	and.w	r1, r1, #255	; 0xff
 800023c:	f002 0207 	and.w	r2, r2, #7
 8000240:	b132      	cbz	r2, 8000250 <memchr+0x70>
 8000242:	f810 3b01 	ldrb.w	r3, [r0], #1
 8000246:	3a01      	subs	r2, #1
 8000248:	ea83 0301 	eor.w	r3, r3, r1
 800024c:	b113      	cbz	r3, 8000254 <memchr+0x74>
 800024e:	d1f8      	bne.n	8000242 <memchr+0x62>
 8000250:	2000      	movs	r0, #0
 8000252:	4770      	bx	lr
 8000254:	3801      	subs	r0, #1
 8000256:	4770      	bx	lr
 8000258:	2d00      	cmp	r5, #0
 800025a:	bf06      	itte	eq
 800025c:	4635      	moveq	r5, r6
 800025e:	3803      	subeq	r0, #3
 8000260:	3807      	subne	r0, #7
 8000262:	f015 0f01 	tst.w	r5, #1
 8000266:	d107      	bne.n	8000278 <memchr+0x98>
 8000268:	3001      	adds	r0, #1
 800026a:	f415 7f80 	tst.w	r5, #256	; 0x100
 800026e:	bf02      	ittt	eq
 8000270:	3001      	addeq	r0, #1
 8000272:	f415 3fc0 	tsteq.w	r5, #98304	; 0x18000
 8000276:	3001      	addeq	r0, #1
 8000278:	bcf0      	pop	{r4, r5, r6, r7}
 800027a:	3801      	subs	r0, #1
 800027c:	4770      	bx	lr
 800027e:	bf00      	nop

08000280 <__aeabi_drsub>:
 8000280:	f081 4100 	eor.w	r1, r1, #2147483648	; 0x80000000
 8000284:	e002      	b.n	800028c <__adddf3>
 8000286:	bf00      	nop

08000288 <__aeabi_dsub>:
 8000288:	f083 4300 	eor.w	r3, r3, #2147483648	; 0x80000000

0800028c <__adddf3>:
 800028c:	b530      	push	{r4, r5, lr}
 800028e:	ea4f 0441 	mov.w	r4, r1, lsl #1
 8000292:	ea4f 0543 	mov.w	r5, r3, lsl #1
 8000296:	ea94 0f05 	teq	r4, r5
 800029a:	bf08      	it	eq
 800029c:	ea90 0f02 	teqeq	r0, r2
 80002a0:	bf1f      	itttt	ne
 80002a2:	ea54 0c00 	orrsne.w	ip, r4, r0
 80002a6:	ea55 0c02 	orrsne.w	ip, r5, r2
 80002aa:	ea7f 5c64 	mvnsne.w	ip, r4, asr #21
 80002ae:	ea7f 5c65 	mvnsne.w	ip, r5, asr #21
 80002b2:	f000 80e2 	beq.w	800047a <__adddf3+0x1ee>
 80002b6:	ea4f 5454 	mov.w	r4, r4, lsr #21
 80002ba:	ebd4 5555 	rsbs	r5, r4, r5, lsr #21
 80002be:	bfb8      	it	lt
 80002c0:	426d      	neglt	r5, r5
 80002c2:	dd0c      	ble.n	80002de <__adddf3+0x52>
 80002c4:	442c      	add	r4, r5
 80002c6:	ea80 0202 	eor.w	r2, r0, r2
 80002ca:	ea81 0303 	eor.w	r3, r1, r3
 80002ce:	ea82 0000 	eor.w	r0, r2, r0
 80002d2:	ea83 0101 	eor.w	r1, r3, r1
 80002d6:	ea80 0202 	eor.w	r2, r0, r2
 80002da:	ea81 0303 	eor.w	r3, r1, r3
 80002de:	2d36      	cmp	r5, #54	; 0x36
 80002e0:	bf88      	it	hi
 80002e2:	bd30      	pophi	{r4, r5, pc}
 80002e4:	f011 4f00 	tst.w	r1, #2147483648	; 0x80000000
 80002e8:	ea4f 3101 	mov.w	r1, r1, lsl #12
 80002ec:	f44f 1c80 	mov.w	ip, #1048576	; 0x100000
 80002f0:	ea4c 3111 	orr.w	r1, ip, r1, lsr #12
 80002f4:	d002      	beq.n	80002fc <__adddf3+0x70>
 80002f6:	4240      	negs	r0, r0
 80002f8:	eb61 0141 	sbc.w	r1, r1, r1, lsl #1
 80002fc:	f013 4f00 	tst.w	r3, #2147483648	; 0x80000000
 8000300:	ea4f 3303 	mov.w	r3, r3, lsl #12
 8000304:	ea4c 3313 	orr.w	r3, ip, r3, lsr #12
 8000308:	d002      	beq.n	8000310 <__adddf3+0x84>
 800030a:	4252      	negs	r2, r2
 800030c:	eb63 0343 	sbc.w	r3, r3, r3, lsl #1
 8000310:	ea94 0f05 	teq	r4, r5
 8000314:	f000 80a7 	beq.w	8000466 <__adddf3+0x1da>
 8000318:	f1a4 0401 	sub.w	r4, r4, #1
 800031c:	f1d5 0e20 	rsbs	lr, r5, #32
 8000320:	db0d      	blt.n	800033e <__adddf3+0xb2>
 8000322:	fa02 fc0e 	lsl.w	ip, r2, lr
 8000326:	fa22 f205 	lsr.w	r2, r2, r5
 800032a:	1880      	adds	r0, r0, r2
 800032c:	f141 0100 	adc.w	r1, r1, #0
 8000330:	fa03 f20e 	lsl.w	r2, r3, lr
 8000334:	1880      	adds	r0, r0, r2
 8000336:	fa43 f305 	asr.w	r3, r3, r5
 800033a:	4159      	adcs	r1, r3
 800033c:	e00e      	b.n	800035c <__adddf3+0xd0>
 800033e:	f1a5 0520 	sub.w	r5, r5, #32
 8000342:	f10e 0e20 	add.w	lr, lr, #32
 8000346:	2a01      	cmp	r2, #1
 8000348:	fa03 fc0e 	lsl.w	ip, r3, lr
 800034c:	bf28      	it	cs
 800034e:	f04c 0c02 	orrcs.w	ip, ip, #2
 8000352:	fa43 f305 	asr.w	r3, r3, r5
 8000356:	18c0      	adds	r0, r0, r3
 8000358:	eb51 71e3 	adcs.w	r1, r1, r3, asr #31
 800035c:	f001 4500 	and.w	r5, r1, #2147483648	; 0x80000000
 8000360:	d507      	bpl.n	8000372 <__adddf3+0xe6>
 8000362:	f04f 0e00 	mov.w	lr, #0
 8000366:	f1dc 0c00 	rsbs	ip, ip, #0
 800036a:	eb7e 0000 	sbcs.w	r0, lr, r0
 800036e:	eb6e 0101 	sbc.w	r1, lr, r1
 8000372:	f5b1 1f80 	cmp.w	r1, #1048576	; 0x100000
 8000376:	d31b      	bcc.n	80003b0 <__adddf3+0x124>
 8000378:	f5b1 1f00 	cmp.w	r1, #2097152	; 0x200000
 800037c:	d30c      	bcc.n	8000398 <__adddf3+0x10c>
 800037e:	0849      	lsrs	r1, r1, #1
 8000380:	ea5f 0030 	movs.w	r0, r0, rrx
 8000384:	ea4f 0c3c 	mov.w	ip, ip, rrx
 8000388:	f104 0401 	add.w	r4, r4, #1
 800038c:	ea4f 5244 	mov.w	r2, r4, lsl #21
 8000390:	f512 0f80 	cmn.w	r2, #4194304	; 0x400000
 8000394:	f080 809a 	bcs.w	80004cc <__adddf3+0x240>
 8000398:	f1bc 4f00 	cmp.w	ip, #2147483648	; 0x80000000
 800039c:	bf08      	it	eq
 800039e:	ea5f 0c50 	movseq.w	ip, r0, lsr #1
 80003a2:	f150 0000 	adcs.w	r0, r0, #0
 80003a6:	eb41 5104 	adc.w	r1, r1, r4, lsl #20
 80003aa:	ea41 0105 	orr.w	r1, r1, r5
 80003ae:	bd30      	pop	{r4, r5, pc}
 80003b0:	ea5f 0c4c 	movs.w	ip, ip, lsl #1
 80003b4:	4140      	adcs	r0, r0
 80003b6:	eb41 0101 	adc.w	r1, r1, r1
 80003ba:	3c01      	subs	r4, #1
 80003bc:	bf28      	it	cs
 80003be:	f5b1 1f80 	cmpcs.w	r1, #1048576	; 0x100000
 80003c2:	d2e9      	bcs.n	8000398 <__adddf3+0x10c>
 80003c4:	f091 0f00 	teq	r1, #0
 80003c8:	bf04      	itt	eq
 80003ca:	4601      	moveq	r1, r0
 80003cc:	2000      	moveq	r0, #0
 80003ce:	fab1 f381 	clz	r3, r1
 80003d2:	bf08      	it	eq
 80003d4:	3320      	addeq	r3, #32
 80003d6:	f1a3 030b 	sub.w	r3, r3, #11
 80003da:	f1b3 0220 	subs.w	r2, r3, #32
 80003de:	da0c      	bge.n	80003fa <__adddf3+0x16e>
 80003e0:	320c      	adds	r2, #12
 80003e2:	dd08      	ble.n	80003f6 <__adddf3+0x16a>
 80003e4:	f102 0c14 	add.w	ip, r2, #20
 80003e8:	f1c2 020c 	rsb	r2, r2, #12
 80003ec:	fa01 f00c 	lsl.w	r0, r1, ip
 80003f0:	fa21 f102 	lsr.w	r1, r1, r2
 80003f4:	e00c      	b.n	8000410 <__adddf3+0x184>
 80003f6:	f102 0214 	add.w	r2, r2, #20
 80003fa:	bfd8      	it	le
 80003fc:	f1c2 0c20 	rsble	ip, r2, #32
 8000400:	fa01 f102 	lsl.w	r1, r1, r2
 8000404:	fa20 fc0c 	lsr.w	ip, r0, ip
 8000408:	bfdc      	itt	le
 800040a:	ea41 010c 	orrle.w	r1, r1, ip
 800040e:	4090      	lslle	r0, r2
 8000410:	1ae4      	subs	r4, r4, r3
 8000412:	bfa2      	ittt	ge
 8000414:	eb01 5104 	addge.w	r1, r1, r4, lsl #20
 8000418:	4329      	orrge	r1, r5
 800041a:	bd30      	popge	{r4, r5, pc}
 800041c:	ea6f 0404 	mvn.w	r4, r4
 8000420:	3c1f      	subs	r4, #31
 8000422:	da1c      	bge.n	800045e <__adddf3+0x1d2>
 8000424:	340c      	adds	r4, #12
 8000426:	dc0e      	bgt.n	8000446 <__adddf3+0x1ba>
 8000428:	f104 0414 	add.w	r4, r4, #20
 800042c:	f1c4 0220 	rsb	r2, r4, #32
 8000430:	fa20 f004 	lsr.w	r0, r0, r4
 8000434:	fa01 f302 	lsl.w	r3, r1, r2
 8000438:	ea40 0003 	orr.w	r0, r0, r3
 800043c:	fa21 f304 	lsr.w	r3, r1, r4
 8000440:	ea45 0103 	orr.w	r1, r5, r3
 8000444:	bd30      	pop	{r4, r5, pc}
 8000446:	f1c4 040c 	rsb	r4, r4, #12
 800044a:	f1c4 0220 	rsb	r2, r4, #32
 800044e:	fa20 f002 	lsr.w	r0, r0, r2
 8000452:	fa01 f304 	lsl.w	r3, r1, r4
 8000456:	ea40 0003 	orr.w	r0, r0, r3
 800045a:	4629      	mov	r1, r5
 800045c:	bd30      	pop	{r4, r5, pc}
 800045e:	fa21 f004 	lsr.w	r0, r1, r4
 8000462:	4629      	mov	r1, r5
 8000464:	bd30      	pop	{r4, r5, pc}
 8000466:	f094 0f00 	teq	r4, #0
 800046a:	f483 1380 	eor.w	r3, r3, #1048576	; 0x100000
 800046e:	bf06      	itte	eq
 8000470:	f481 1180 	eoreq.w	r1, r1, #1048576	; 0x100000
 8000474:	3401      	addeq	r4, #1
 8000476:	3d01      	subne	r5, #1
 8000478:	e74e      	b.n	8000318 <__adddf3+0x8c>
 800047a:	ea7f 5c64 	mvns.w	ip, r4, asr #21
 800047e:	bf18      	it	ne
 8000480:	ea7f 5c65 	mvnsne.w	ip, r5, asr #21
 8000484:	d029      	beq.n	80004da <__adddf3+0x24e>
 8000486:	ea94 0f05 	teq	r4, r5
 800048a:	bf08      	it	eq
 800048c:	ea90 0f02 	teqeq	r0, r2
 8000490:	d005      	beq.n	800049e <__adddf3+0x212>
 8000492:	ea54 0c00 	orrs.w	ip, r4, r0
 8000496:	bf04      	itt	eq
 8000498:	4619      	moveq	r1, r3
 800049a:	4610      	moveq	r0, r2
 800049c:	bd30      	pop	{r4, r5, pc}
 800049e:	ea91 0f03 	teq	r1, r3
 80004a2:	bf1e      	ittt	ne
 80004a4:	2100      	movne	r1, #0
 80004a6:	2000      	movne	r0, #0
 80004a8:	bd30      	popne	{r4, r5, pc}
 80004aa:	ea5f 5c54 	movs.w	ip, r4, lsr #21
 80004ae:	d105      	bne.n	80004bc <__adddf3+0x230>
 80004b0:	0040      	lsls	r0, r0, #1
 80004b2:	4149      	adcs	r1, r1
 80004b4:	bf28      	it	cs
 80004b6:	f041 4100 	orrcs.w	r1, r1, #2147483648	; 0x80000000
 80004ba:	bd30      	pop	{r4, r5, pc}
 80004bc:	f514 0480 	adds.w	r4, r4, #4194304	; 0x400000
 80004c0:	bf3c      	itt	cc
 80004c2:	f501 1180 	addcc.w	r1, r1, #1048576	; 0x100000
 80004c6:	bd30      	popcc	{r4, r5, pc}
 80004c8:	f001 4500 	and.w	r5, r1, #2147483648	; 0x80000000
 80004cc:	f045 41fe 	orr.w	r1, r5, #2130706432	; 0x7f000000
 80004d0:	f441 0170 	orr.w	r1, r1, #15728640	; 0xf00000
 80004d4:	f04f 0000 	mov.w	r0, #0
 80004d8:	bd30      	pop	{r4, r5, pc}
 80004da:	ea7f 5c64 	mvns.w	ip, r4, asr #21
 80004de:	bf1a      	itte	ne
 80004e0:	4619      	movne	r1, r3
 80004e2:	4610      	movne	r0, r2
 80004e4:	ea7f 5c65 	mvnseq.w	ip, r5, asr #21
 80004e8:	bf1c      	itt	ne
 80004ea:	460b      	movne	r3, r1
 80004ec:	4602      	movne	r2, r0
 80004ee:	ea50 3401 	orrs.w	r4, r0, r1, lsl #12
 80004f2:	bf06      	itte	eq
 80004f4:	ea52 3503 	orrseq.w	r5, r2, r3, lsl #12
 80004f8:	ea91 0f03 	teqeq	r1, r3
 80004fc:	f441 2100 	orrne.w	r1, r1, #524288	; 0x80000
 8000500:	bd30      	pop	{r4, r5, pc}
 8000502:	bf00      	nop

08000504 <__aeabi_ui2d>:
 8000504:	f090 0f00 	teq	r0, #0
 8000508:	bf04      	itt	eq
 800050a:	2100      	moveq	r1, #0
 800050c:	4770      	bxeq	lr
 800050e:	b530      	push	{r4, r5, lr}
 8000510:	f44f 6480 	mov.w	r4, #1024	; 0x400
 8000514:	f104 0432 	add.w	r4, r4, #50	; 0x32
 8000518:	f04f 0500 	mov.w	r5, #0
 800051c:	f04f 0100 	mov.w	r1, #0
 8000520:	e750      	b.n	80003c4 <__adddf3+0x138>
 8000522:	bf00      	nop

08000524 <__aeabi_i2d>:
 8000524:	f090 0f00 	teq	r0, #0
 8000528:	bf04      	itt	eq
 800052a:	2100      	moveq	r1, #0
 800052c:	4770      	bxeq	lr
 800052e:	b530      	push	{r4, r5, lr}
 8000530:	f44f 6480 	mov.w	r4, #1024	; 0x400
 8000534:	f104 0432 	add.w	r4, r4, #50	; 0x32
 8000538:	f010 4500 	ands.w	r5, r0, #2147483648	; 0x80000000
 800053c:	bf48      	it	mi
 800053e:	4240      	negmi	r0, r0
 8000540:	f04f 0100 	mov.w	r1, #0
 8000544:	e73e      	b.n	80003c4 <__adddf3+0x138>
 8000546:	bf00      	nop

08000548 <__aeabi_f2d>:
 8000548:	0042      	lsls	r2, r0, #1
 800054a:	ea4f 01e2 	mov.w	r1, r2, asr #3
 800054e:	ea4f 0131 	mov.w	r1, r1, rrx
 8000552:	ea4f 7002 	mov.w	r0, r2, lsl #28
 8000556:	bf1f      	itttt	ne
 8000558:	f012 437f 	andsne.w	r3, r2, #4278190080	; 0xff000000
 800055c:	f093 4f7f 	teqne	r3, #4278190080	; 0xff000000
 8000560:	f081 5160 	eorne.w	r1, r1, #939524096	; 0x38000000
 8000564:	4770      	bxne	lr
 8000566:	f032 427f 	bics.w	r2, r2, #4278190080	; 0xff000000
 800056a:	bf08      	it	eq
 800056c:	4770      	bxeq	lr
 800056e:	f093 4f7f 	teq	r3, #4278190080	; 0xff000000
 8000572:	bf04      	itt	eq
 8000574:	f441 2100 	orreq.w	r1, r1, #524288	; 0x80000
 8000578:	4770      	bxeq	lr
 800057a:	b530      	push	{r4, r5, lr}
 800057c:	f44f 7460 	mov.w	r4, #896	; 0x380
 8000580:	f001 4500 	and.w	r5, r1, #2147483648	; 0x80000000
 8000584:	f021 4100 	bic.w	r1, r1, #2147483648	; 0x80000000
 8000588:	e71c      	b.n	80003c4 <__adddf3+0x138>
 800058a:	bf00      	nop

0800058c <__aeabi_ul2d>:
 800058c:	ea50 0201 	orrs.w	r2, r0, r1
 8000590:	bf08      	it	eq
 8000592:	4770      	bxeq	lr
 8000594:	b530      	push	{r4, r5, lr}
 8000596:	f04f 0500 	mov.w	r5, #0
 800059a:	e00a      	b.n	80005b2 <__aeabi_l2d+0x16>

0800059c <__aeabi_l2d>:
 800059c:	ea50 0201 	orrs.w	r2, r0, r1
 80005a0:	bf08      	it	eq
 80005a2:	4770      	bxeq	lr
 80005a4:	b530      	push	{r4, r5, lr}
 80005a6:	f011 4500 	ands.w	r5, r1, #2147483648	; 0x80000000
 80005aa:	d502      	bpl.n	80005b2 <__aeabi_l2d+0x16>
 80005ac:	4240      	negs	r0, r0
 80005ae:	eb61 0141 	sbc.w	r1, r1, r1, lsl #1
 80005b2:	f44f 6480 	mov.w	r4, #1024	; 0x400
 80005b6:	f104 0432 	add.w	r4, r4, #50	; 0x32
 80005ba:	ea5f 5c91 	movs.w	ip, r1, lsr #22
 80005be:	f43f aed8 	beq.w	8000372 <__adddf3+0xe6>
 80005c2:	f04f 0203 	mov.w	r2, #3
 80005c6:	ea5f 0cdc 	movs.w	ip, ip, lsr #3
 80005ca:	bf18      	it	ne
 80005cc:	3203      	addne	r2, #3
 80005ce:	ea5f 0cdc 	movs.w	ip, ip, lsr #3
 80005d2:	bf18      	it	ne
 80005d4:	3203      	addne	r2, #3
 80005d6:	eb02 02dc 	add.w	r2, r2, ip, lsr #3
 80005da:	f1c2 0320 	rsb	r3, r2, #32
 80005de:	fa00 fc03 	lsl.w	ip, r0, r3
 80005e2:	fa20 f002 	lsr.w	r0, r0, r2
 80005e6:	fa01 fe03 	lsl.w	lr, r1, r3
 80005ea:	ea40 000e 	orr.w	r0, r0, lr
 80005ee:	fa21 f102 	lsr.w	r1, r1, r2
 80005f2:	4414      	add	r4, r2
 80005f4:	e6bd      	b.n	8000372 <__adddf3+0xe6>
 80005f6:	bf00      	nop

080005f8 <__aeabi_dmul>:
 80005f8:	b570      	push	{r4, r5, r6, lr}
 80005fa:	f04f 0cff 	mov.w	ip, #255	; 0xff
 80005fe:	f44c 6ce0 	orr.w	ip, ip, #1792	; 0x700
 8000602:	ea1c 5411 	ands.w	r4, ip, r1, lsr #20
 8000606:	bf1d      	ittte	ne
 8000608:	ea1c 5513 	andsne.w	r5, ip, r3, lsr #20
 800060c:	ea94 0f0c 	teqne	r4, ip
 8000610:	ea95 0f0c 	teqne	r5, ip
 8000614:	f000 f8de 	bleq	80007d4 <__aeabi_dmul+0x1dc>
 8000618:	442c      	add	r4, r5
 800061a:	ea81 0603 	eor.w	r6, r1, r3
 800061e:	ea21 514c 	bic.w	r1, r1, ip, lsl #21
 8000622:	ea23 534c 	bic.w	r3, r3, ip, lsl #21
 8000626:	ea50 3501 	orrs.w	r5, r0, r1, lsl #12
 800062a:	bf18      	it	ne
 800062c:	ea52 3503 	orrsne.w	r5, r2, r3, lsl #12
 8000630:	f441 1180 	orr.w	r1, r1, #1048576	; 0x100000
 8000634:	f443 1380 	orr.w	r3, r3, #1048576	; 0x100000
 8000638:	d038      	beq.n	80006ac <__aeabi_dmul+0xb4>
 800063a:	fba0 ce02 	umull	ip, lr, r0, r2
 800063e:	f04f 0500 	mov.w	r5, #0
 8000642:	fbe1 e502 	umlal	lr, r5, r1, r2
 8000646:	f006 4200 	and.w	r2, r6, #2147483648	; 0x80000000
 800064a:	fbe0 e503 	umlal	lr, r5, r0, r3
 800064e:	f04f 0600 	mov.w	r6, #0
 8000652:	fbe1 5603 	umlal	r5, r6, r1, r3
 8000656:	f09c 0f00 	teq	ip, #0
 800065a:	bf18      	it	ne
 800065c:	f04e 0e01 	orrne.w	lr, lr, #1
 8000660:	f1a4 04ff 	sub.w	r4, r4, #255	; 0xff
 8000664:	f5b6 7f00 	cmp.w	r6, #512	; 0x200
 8000668:	f564 7440 	sbc.w	r4, r4, #768	; 0x300
 800066c:	d204      	bcs.n	8000678 <__aeabi_dmul+0x80>
 800066e:	ea5f 0e4e 	movs.w	lr, lr, lsl #1
 8000672:	416d      	adcs	r5, r5
 8000674:	eb46 0606 	adc.w	r6, r6, r6
 8000678:	ea42 21c6 	orr.w	r1, r2, r6, lsl #11
 800067c:	ea41 5155 	orr.w	r1, r1, r5, lsr #21
 8000680:	ea4f 20c5 	mov.w	r0, r5, lsl #11
 8000684:	ea40 505e 	orr.w	r0, r0, lr, lsr #21
 8000688:	ea4f 2ece 	mov.w	lr, lr, lsl #11
 800068c:	f1b4 0cfd 	subs.w	ip, r4, #253	; 0xfd
 8000690:	bf88      	it	hi
 8000692:	f5bc 6fe0 	cmphi.w	ip, #1792	; 0x700
 8000696:	d81e      	bhi.n	80006d6 <__aeabi_dmul+0xde>
 8000698:	f1be 4f00 	cmp.w	lr, #2147483648	; 0x80000000
 800069c:	bf08      	it	eq
 800069e:	ea5f 0e50 	movseq.w	lr, r0, lsr #1
 80006a2:	f150 0000 	adcs.w	r0, r0, #0
 80006a6:	eb41 5104 	adc.w	r1, r1, r4, lsl #20
 80006aa:	bd70      	pop	{r4, r5, r6, pc}
 80006ac:	f006 4600 	and.w	r6, r6, #2147483648	; 0x80000000
 80006b0:	ea46 0101 	orr.w	r1, r6, r1
 80006b4:	ea40 0002 	orr.w	r0, r0, r2
 80006b8:	ea81 0103 	eor.w	r1, r1, r3
 80006bc:	ebb4 045c 	subs.w	r4, r4, ip, lsr #1
 80006c0:	bfc2      	ittt	gt
 80006c2:	ebd4 050c 	rsbsgt	r5, r4, ip
 80006c6:	ea41 5104 	orrgt.w	r1, r1, r4, lsl #20
 80006ca:	bd70      	popgt	{r4, r5, r6, pc}
 80006cc:	f441 1180 	orr.w	r1, r1, #1048576	; 0x100000
 80006d0:	f04f 0e00 	mov.w	lr, #0
 80006d4:	3c01      	subs	r4, #1
 80006d6:	f300 80ab 	bgt.w	8000830 <__aeabi_dmul+0x238>
 80006da:	f114 0f36 	cmn.w	r4, #54	; 0x36
 80006de:	bfde      	ittt	le
 80006e0:	2000      	movle	r0, #0
 80006e2:	f001 4100 	andle.w	r1, r1, #2147483648	; 0x80000000
 80006e6:	bd70      	pople	{r4, r5, r6, pc}
 80006e8:	f1c4 0400 	rsb	r4, r4, #0
 80006ec:	3c20      	subs	r4, #32
 80006ee:	da35      	bge.n	800075c <__aeabi_dmul+0x164>
 80006f0:	340c      	adds	r4, #12
 80006f2:	dc1b      	bgt.n	800072c <__aeabi_dmul+0x134>
 80006f4:	f104 0414 	add.w	r4, r4, #20
 80006f8:	f1c4 0520 	rsb	r5, r4, #32
 80006fc:	fa00 f305 	lsl.w	r3, r0, r5
 8000700:	fa20 f004 	lsr.w	r0, r0, r4
 8000704:	fa01 f205 	lsl.w	r2, r1, r5
 8000708:	ea40 0002 	orr.w	r0, r0, r2
 800070c:	f001 4200 	and.w	r2, r1, #2147483648	; 0x80000000
 8000710:	f021 4100 	bic.w	r1, r1, #2147483648	; 0x80000000
 8000714:	eb10 70d3 	adds.w	r0, r0, r3, lsr #31
 8000718:	fa21 f604 	lsr.w	r6, r1, r4
 800071c:	eb42 0106 	adc.w	r1, r2, r6
 8000720:	ea5e 0e43 	orrs.w	lr, lr, r3, lsl #1
 8000724:	bf08      	it	eq
 8000726:	ea20 70d3 	biceq.w	r0, r0, r3, lsr #31
 800072a:	bd70      	pop	{r4, r5, r6, pc}
 800072c:	f1c4 040c 	rsb	r4, r4, #12
 8000730:	f1c4 0520 	rsb	r5, r4, #32
 8000734:	fa00 f304 	lsl.w	r3, r0, r4
 8000738:	fa20 f005 	lsr.w	r0, r0, r5
 800073c:	fa01 f204 	lsl.w	r2, r1, r4
 8000740:	ea40 0002 	orr.w	r0, r0, r2
 8000744:	f001 4100 	and.w	r1, r1, #2147483648	; 0x80000000
 8000748:	eb10 70d3 	adds.w	r0, r0, r3, lsr #31
 800074c:	f141 0100 	adc.w	r1, r1, #0
 8000750:	ea5e 0e43 	orrs.w	lr, lr, r3, lsl #1
 8000754:	bf08      	it	eq
 8000756:	ea20 70d3 	biceq.w	r0, r0, r3, lsr #31
 800075a:	bd70      	pop	{r4, r5, r6, pc}
 800075c:	f1c4 0520 	rsb	r5, r4, #32
 8000760:	fa00 f205 	lsl.w	r2, r0, r5
 8000764:	ea4e 0e02 	orr.w	lr, lr, r2
 8000768:	fa20 f304 	lsr.w	r3, r0, r4
 800076c:	fa01 f205 	lsl.w	r2, r1, r5
 8000770:	ea43 0302 	orr.w	r3, r3, r2
 8000774:	fa21 f004 	lsr.w	r0, r1, r4
 8000778:	f001 4100 	and.w	r1, r1, #2147483648	; 0x80000000
 800077c:	fa21 f204 	lsr.w	r2, r1, r4
 8000780:	ea20 0002 	bic.w	r0, r0, r2
 8000784:	eb00 70d3 	add.w	r0, r0, r3, lsr #31
 8000788:	ea5e 0e43 	orrs.w	lr, lr, r3, lsl #1
 800078c:	bf08      	it	eq
 800078e:	ea20 70d3 	biceq.w	r0, r0, r3, lsr #31
 8000792:	bd70      	pop	{r4, r5, r6, pc}
 8000794:	f094 0f00 	teq	r4, #0
 8000798:	d10f      	bne.n	80007ba <__aeabi_dmul+0x1c2>
 800079a:	f001 4600 	and.w	r6, r1, #2147483648	; 0x80000000
 800079e:	0040      	lsls	r0, r0, #1
 80007a0:	eb41 0101 	adc.w	r1, r1, r1
 80007a4:	f411 1f80 	tst.w	r1, #1048576	; 0x100000
 80007a8:	bf08      	it	eq
 80007aa:	3c01      	subeq	r4, #1
 80007ac:	d0f7      	beq.n	800079e <__aeabi_dmul+0x1a6>
 80007ae:	ea41 0106 	orr.w	r1, r1, r6
 80007b2:	f095 0f00 	teq	r5, #0
 80007b6:	bf18      	it	ne
 80007b8:	4770      	bxne	lr
 80007ba:	f003 4600 	and.w	r6, r3, #2147483648	; 0x80000000
 80007be:	0052      	lsls	r2, r2, #1
 80007c0:	eb43 0303 	adc.w	r3, r3, r3
 80007c4:	f413 1f80 	tst.w	r3, #1048576	; 0x100000
 80007c8:	bf08      	it	eq
 80007ca:	3d01      	subeq	r5, #1
 80007cc:	d0f7      	beq.n	80007be <__aeabi_dmul+0x1c6>
 80007ce:	ea43 0306 	orr.w	r3, r3, r6
 80007d2:	4770      	bx	lr
 80007d4:	ea94 0f0c 	teq	r4, ip
 80007d8:	ea0c 5513 	and.w	r5, ip, r3, lsr #20
 80007dc:	bf18      	it	ne
 80007de:	ea95 0f0c 	teqne	r5, ip
 80007e2:	d00c      	beq.n	80007fe <__aeabi_dmul+0x206>
 80007e4:	ea50 0641 	orrs.w	r6, r0, r1, lsl #1
 80007e8:	bf18      	it	ne
 80007ea:	ea52 0643 	orrsne.w	r6, r2, r3, lsl #1
 80007ee:	d1d1      	bne.n	8000794 <__aeabi_dmul+0x19c>
 80007f0:	ea81 0103 	eor.w	r1, r1, r3
 80007f4:	f001 4100 	and.w	r1, r1, #2147483648	; 0x80000000
 80007f8:	f04f 0000 	mov.w	r0, #0
 80007fc:	bd70      	pop	{r4, r5, r6, pc}
 80007fe:	ea50 0641 	orrs.w	r6, r0, r1, lsl #1
 8000802:	bf06      	itte	eq
 8000804:	4610      	moveq	r0, r2
 8000806:	4619      	moveq	r1, r3
 8000808:	ea52 0643 	orrsne.w	r6, r2, r3, lsl #1
 800080c:	d019      	beq.n	8000842 <__aeabi_dmul+0x24a>
 800080e:	ea94 0f0c 	teq	r4, ip
 8000812:	d102      	bne.n	800081a <__aeabi_dmul+0x222>
 8000814:	ea50 3601 	orrs.w	r6, r0, r1, lsl #12
 8000818:	d113      	bne.n	8000842 <__aeabi_dmul+0x24a>
 800081a:	ea95 0f0c 	teq	r5, ip
 800081e:	d105      	bne.n	800082c <__aeabi_dmul+0x234>
 8000820:	ea52 3603 	orrs.w	r6, r2, r3, lsl #12
 8000824:	bf1c      	itt	ne
 8000826:	4610      	movne	r0, r2
 8000828:	4619      	movne	r1, r3
 800082a:	d10a      	bne.n	8000842 <__aeabi_dmul+0x24a>
 800082c:	ea81 0103 	eor.w	r1, r1, r3
 8000830:	f001 4100 	and.w	r1, r1, #2147483648	; 0x80000000
 8000834:	f041 41fe 	orr.w	r1, r1, #2130706432	; 0x7f000000
 8000838:	f441 0170 	orr.w	r1, r1, #15728640	; 0xf00000
 800083c:	f04f 0000 	mov.w	r0, #0
 8000840:	bd70      	pop	{r4, r5, r6, pc}
 8000842:	f041 41fe 	orr.w	r1, r1, #2130706432	; 0x7f000000
 8000846:	f441 0178 	orr.w	r1, r1, #16252928	; 0xf80000
 800084a:	bd70      	pop	{r4, r5, r6, pc}

0800084c <__aeabi_ddiv>:
 800084c:	b570      	push	{r4, r5, r6, lr}
 800084e:	f04f 0cff 	mov.w	ip, #255	; 0xff
 8000852:	f44c 6ce0 	orr.w	ip, ip, #1792	; 0x700
 8000856:	ea1c 5411 	ands.w	r4, ip, r1, lsr #20
 800085a:	bf1d      	ittte	ne
 800085c:	ea1c 5513 	andsne.w	r5, ip, r3, lsr #20
 8000860:	ea94 0f0c 	teqne	r4, ip
 8000864:	ea95 0f0c 	teqne	r5, ip
 8000868:	f000 f8a7 	bleq	80009ba <__aeabi_ddiv+0x16e>
 800086c:	eba4 0405 	sub.w	r4, r4, r5
 8000870:	ea81 0e03 	eor.w	lr, r1, r3
 8000874:	ea52 3503 	orrs.w	r5, r2, r3, lsl #12
 8000878:	ea4f 3101 	mov.w	r1, r1, lsl #12
 800087c:	f000 8088 	beq.w	8000990 <__aeabi_ddiv+0x144>
 8000880:	ea4f 3303 	mov.w	r3, r3, lsl #12
 8000884:	f04f 5580 	mov.w	r5, #268435456	; 0x10000000
 8000888:	ea45 1313 	orr.w	r3, r5, r3, lsr #4
 800088c:	ea43 6312 	orr.w	r3, r3, r2, lsr #24
 8000890:	ea4f 2202 	mov.w	r2, r2, lsl #8
 8000894:	ea45 1511 	orr.w	r5, r5, r1, lsr #4
 8000898:	ea45 6510 	orr.w	r5, r5, r0, lsr #24
 800089c:	ea4f 2600 	mov.w	r6, r0, lsl #8
 80008a0:	f00e 4100 	and.w	r1, lr, #2147483648	; 0x80000000
 80008a4:	429d      	cmp	r5, r3
 80008a6:	bf08      	it	eq
 80008a8:	4296      	cmpeq	r6, r2
 80008aa:	f144 04fd 	adc.w	r4, r4, #253	; 0xfd
 80008ae:	f504 7440 	add.w	r4, r4, #768	; 0x300
 80008b2:	d202      	bcs.n	80008ba <__aeabi_ddiv+0x6e>
 80008b4:	085b      	lsrs	r3, r3, #1
 80008b6:	ea4f 0232 	mov.w	r2, r2, rrx
 80008ba:	1ab6      	subs	r6, r6, r2
 80008bc:	eb65 0503 	sbc.w	r5, r5, r3
 80008c0:	085b      	lsrs	r3, r3, #1
 80008c2:	ea4f 0232 	mov.w	r2, r2, rrx
 80008c6:	f44f 1080 	mov.w	r0, #1048576	; 0x100000
 80008ca:	f44f 2c00 	mov.w	ip, #524288	; 0x80000
 80008ce:	ebb6 0e02 	subs.w	lr, r6, r2
 80008d2:	eb75 0e03 	sbcs.w	lr, r5, r3
 80008d6:	bf22      	ittt	cs
 80008d8:	1ab6      	subcs	r6, r6, r2
 80008da:	4675      	movcs	r5, lr
 80008dc:	ea40 000c 	orrcs.w	r0, r0, ip
 80008e0:	085b      	lsrs	r3, r3, #1
 80008e2:	ea4f 0232 	mov.w	r2, r2, rrx
 80008e6:	ebb6 0e02 	subs.w	lr, r6, r2
 80008ea:	eb75 0e03 	sbcs.w	lr, r5, r3
 80008ee:	bf22      	ittt	cs
 80008f0:	1ab6      	subcs	r6, r6, r2
 80008f2:	4675      	movcs	r5, lr
 80008f4:	ea40 005c 	orrcs.w	r0, r0, ip, lsr #1
 80008f8:	085b      	lsrs	r3, r3, #1
 80008fa:	ea4f 0232 	mov.w	r2, r2, rrx
 80008fe:	ebb6 0e02 	subs.w	lr, r6, r2
 8000902:	eb75 0e03 	sbcs.w	lr, r5, r3
 8000906:	bf22      	ittt	cs
 8000908:	1ab6      	subcs	r6, r6, r2
 800090a:	4675      	movcs	r5, lr
 800090c:	ea40 009c 	orrcs.w	r0, r0, ip, lsr #2
 8000910:	085b      	lsrs	r3, r3, #1
 8000912:	ea4f 0232 	mov.w	r2, r2, rrx
 8000916:	ebb6 0e02 	subs.w	lr, r6, r2
 800091a:	eb75 0e03 	sbcs.w	lr, r5, r3
 800091e:	bf22      	ittt	cs
 8000920:	1ab6      	subcs	r6, r6, r2
 8000922:	4675      	movcs	r5, lr
 8000924:	ea40 00dc 	orrcs.w	r0, r0, ip, lsr #3
 8000928:	ea55 0e06 	orrs.w	lr, r5, r6
 800092c:	d018      	beq.n	8000960 <__aeabi_ddiv+0x114>
 800092e:	ea4f 1505 	mov.w	r5, r5, lsl #4
 8000932:	ea45 7516 	orr.w	r5, r5, r6, lsr #28
 8000936:	ea4f 1606 	mov.w	r6, r6, lsl #4
 800093a:	ea4f 03c3 	mov.w	r3, r3, lsl #3
 800093e:	ea43 7352 	orr.w	r3, r3, r2, lsr #29
 8000942:	ea4f 02c2 	mov.w	r2, r2, lsl #3
 8000946:	ea5f 1c1c 	movs.w	ip, ip, lsr #4
 800094a:	d1c0      	bne.n	80008ce <__aeabi_ddiv+0x82>
 800094c:	f411 1f80 	tst.w	r1, #1048576	; 0x100000
 8000950:	d10b      	bne.n	800096a <__aeabi_ddiv+0x11e>
 8000952:	ea41 0100 	orr.w	r1, r1, r0
 8000956:	f04f 0000 	mov.w	r0, #0
 800095a:	f04f 4c00 	mov.w	ip, #2147483648	; 0x80000000
 800095e:	e7b6      	b.n	80008ce <__aeabi_ddiv+0x82>
 8000960:	f411 1f80 	tst.w	r1, #1048576	; 0x100000
 8000964:	bf04      	itt	eq
 8000966:	4301      	orreq	r1, r0
 8000968:	2000      	moveq	r0, #0
 800096a:	f1b4 0cfd 	subs.w	ip, r4, #253	; 0xfd
 800096e:	bf88      	it	hi
 8000970:	f5bc 6fe0 	cmphi.w	ip, #1792	; 0x700
 8000974:	f63f aeaf 	bhi.w	80006d6 <__aeabi_dmul+0xde>
 8000978:	ebb5 0c03 	subs.w	ip, r5, r3
 800097c:	bf04      	itt	eq
 800097e:	ebb6 0c02 	subseq.w	ip, r6, r2
 8000982:	ea5f 0c50 	movseq.w	ip, r0, lsr #1
 8000986:	f150 0000 	adcs.w	r0, r0, #0
 800098a:	eb41 5104 	adc.w	r1, r1, r4, lsl #20
 800098e:	bd70      	pop	{r4, r5, r6, pc}
 8000990:	f00e 4e00 	and.w	lr, lr, #2147483648	; 0x80000000
 8000994:	ea4e 3111 	orr.w	r1, lr, r1, lsr #12
 8000998:	eb14 045c 	adds.w	r4, r4, ip, lsr #1
 800099c:	bfc2      	ittt	gt
 800099e:	ebd4 050c 	rsbsgt	r5, r4, ip
 80009a2:	ea41 5104 	orrgt.w	r1, r1, r4, lsl #20
 80009a6:	bd70      	popgt	{r4, r5, r6, pc}
 80009a8:	f441 1180 	orr.w	r1, r1, #1048576	; 0x100000
 80009ac:	f04f 0e00 	mov.w	lr, #0
 80009b0:	3c01      	subs	r4, #1
 80009b2:	e690      	b.n	80006d6 <__aeabi_dmul+0xde>
 80009b4:	ea45 0e06 	orr.w	lr, r5, r6
 80009b8:	e68d      	b.n	80006d6 <__aeabi_dmul+0xde>
 80009ba:	ea0c 5513 	and.w	r5, ip, r3, lsr #20
 80009be:	ea94 0f0c 	teq	r4, ip
 80009c2:	bf08      	it	eq
 80009c4:	ea95 0f0c 	teqeq	r5, ip
 80009c8:	f43f af3b 	beq.w	8000842 <__aeabi_dmul+0x24a>
 80009cc:	ea94 0f0c 	teq	r4, ip
 80009d0:	d10a      	bne.n	80009e8 <__aeabi_ddiv+0x19c>
 80009d2:	ea50 3401 	orrs.w	r4, r0, r1, lsl #12
 80009d6:	f47f af34 	bne.w	8000842 <__aeabi_dmul+0x24a>
 80009da:	ea95 0f0c 	teq	r5, ip
 80009de:	f47f af25 	bne.w	800082c <__aeabi_dmul+0x234>
 80009e2:	4610      	mov	r0, r2
 80009e4:	4619      	mov	r1, r3
 80009e6:	e72c      	b.n	8000842 <__aeabi_dmul+0x24a>
 80009e8:	ea95 0f0c 	teq	r5, ip
 80009ec:	d106      	bne.n	80009fc <__aeabi_ddiv+0x1b0>
 80009ee:	ea52 3503 	orrs.w	r5, r2, r3, lsl #12
 80009f2:	f43f aefd 	beq.w	80007f0 <__aeabi_dmul+0x1f8>
 80009f6:	4610      	mov	r0, r2
 80009f8:	4619      	mov	r1, r3
 80009fa:	e722      	b.n	8000842 <__aeabi_dmul+0x24a>
 80009fc:	ea50 0641 	orrs.w	r6, r0, r1, lsl #1
 8000a00:	bf18      	it	ne
 8000a02:	ea52 0643 	orrsne.w	r6, r2, r3, lsl #1
 8000a06:	f47f aec5 	bne.w	8000794 <__aeabi_dmul+0x19c>
 8000a0a:	ea50 0441 	orrs.w	r4, r0, r1, lsl #1
 8000a0e:	f47f af0d 	bne.w	800082c <__aeabi_dmul+0x234>
 8000a12:	ea52 0543 	orrs.w	r5, r2, r3, lsl #1
 8000a16:	f47f aeeb 	bne.w	80007f0 <__aeabi_dmul+0x1f8>
 8000a1a:	e712      	b.n	8000842 <__aeabi_dmul+0x24a>

08000a1c <__gedf2>:
 8000a1c:	f04f 3cff 	mov.w	ip, #4294967295
 8000a20:	e006      	b.n	8000a30 <__cmpdf2+0x4>
 8000a22:	bf00      	nop

08000a24 <__ledf2>:
 8000a24:	f04f 0c01 	mov.w	ip, #1
 8000a28:	e002      	b.n	8000a30 <__cmpdf2+0x4>
 8000a2a:	bf00      	nop

08000a2c <__cmpdf2>:
 8000a2c:	f04f 0c01 	mov.w	ip, #1
 8000a30:	f84d cd04 	str.w	ip, [sp, #-4]!
 8000a34:	ea4f 0c41 	mov.w	ip, r1, lsl #1
 8000a38:	ea7f 5c6c 	mvns.w	ip, ip, asr #21
 8000a3c:	ea4f 0c43 	mov.w	ip, r3, lsl #1
 8000a40:	bf18      	it	ne
 8000a42:	ea7f 5c6c 	mvnsne.w	ip, ip, asr #21
 8000a46:	d01b      	beq.n	8000a80 <__cmpdf2+0x54>
 8000a48:	b001      	add	sp, #4
 8000a4a:	ea50 0c41 	orrs.w	ip, r0, r1, lsl #1
 8000a4e:	bf0c      	ite	eq
 8000a50:	ea52 0c43 	orrseq.w	ip, r2, r3, lsl #1
 8000a54:	ea91 0f03 	teqne	r1, r3
 8000a58:	bf02      	ittt	eq
 8000a5a:	ea90 0f02 	teqeq	r0, r2
 8000a5e:	2000      	moveq	r0, #0
 8000a60:	4770      	bxeq	lr
 8000a62:	f110 0f00 	cmn.w	r0, #0
 8000a66:	ea91 0f03 	teq	r1, r3
 8000a6a:	bf58      	it	pl
 8000a6c:	4299      	cmppl	r1, r3
 8000a6e:	bf08      	it	eq
 8000a70:	4290      	cmpeq	r0, r2
 8000a72:	bf2c      	ite	cs
 8000a74:	17d8      	asrcs	r0, r3, #31
 8000a76:	ea6f 70e3 	mvncc.w	r0, r3, asr #31
 8000a7a:	f040 0001 	orr.w	r0, r0, #1
 8000a7e:	4770      	bx	lr
 8000a80:	ea4f 0c41 	mov.w	ip, r1, lsl #1
 8000a84:	ea7f 5c6c 	mvns.w	ip, ip, asr #21
 8000a88:	d102      	bne.n	8000a90 <__cmpdf2+0x64>
 8000a8a:	ea50 3c01 	orrs.w	ip, r0, r1, lsl #12
 8000a8e:	d107      	bne.n	8000aa0 <__cmpdf2+0x74>
 8000a90:	ea4f 0c43 	mov.w	ip, r3, lsl #1
 8000a94:	ea7f 5c6c 	mvns.w	ip, ip, asr #21
 8000a98:	d1d6      	bne.n	8000a48 <__cmpdf2+0x1c>
 8000a9a:	ea52 3c03 	orrs.w	ip, r2, r3, lsl #12
 8000a9e:	d0d3      	beq.n	8000a48 <__cmpdf2+0x1c>
 8000aa0:	f85d 0b04 	ldr.w	r0, [sp], #4
 8000aa4:	4770      	bx	lr
 8000aa6:	bf00      	nop

08000aa8 <__aeabi_cdrcmple>:
 8000aa8:	4684      	mov	ip, r0
 8000aaa:	4610      	mov	r0, r2
 8000aac:	4662      	mov	r2, ip
 8000aae:	468c      	mov	ip, r1
 8000ab0:	4619      	mov	r1, r3
 8000ab2:	4663      	mov	r3, ip
 8000ab4:	e000      	b.n	8000ab8 <__aeabi_cdcmpeq>
 8000ab6:	bf00      	nop

08000ab8 <__aeabi_cdcmpeq>:
 8000ab8:	b501      	push	{r0, lr}
 8000aba:	f7ff ffb7 	bl	8000a2c <__cmpdf2>
 8000abe:	2800      	cmp	r0, #0
 8000ac0:	bf48      	it	mi
 8000ac2:	f110 0f00 	cmnmi.w	r0, #0
 8000ac6:	bd01      	pop	{r0, pc}

08000ac8 <__aeabi_dcmpeq>:
 8000ac8:	f84d ed08 	str.w	lr, [sp, #-8]!
 8000acc:	f7ff fff4 	bl	8000ab8 <__aeabi_cdcmpeq>
 8000ad0:	bf0c      	ite	eq
 8000ad2:	2001      	moveq	r0, #1
 8000ad4:	2000      	movne	r0, #0
 8000ad6:	f85d fb08 	ldr.w	pc, [sp], #8
 8000ada:	bf00      	nop

08000adc <__aeabi_dcmplt>:
 8000adc:	f84d ed08 	str.w	lr, [sp, #-8]!
 8000ae0:	f7ff ffea 	bl	8000ab8 <__aeabi_cdcmpeq>
 8000ae4:	bf34      	ite	cc
 8000ae6:	2001      	movcc	r0, #1
 8000ae8:	2000      	movcs	r0, #0
 8000aea:	f85d fb08 	ldr.w	pc, [sp], #8
 8000aee:	bf00      	nop

08000af0 <__aeabi_dcmple>:
 8000af0:	f84d ed08 	str.w	lr, [sp, #-8]!
 8000af4:	f7ff ffe0 	bl	8000ab8 <__aeabi_cdcmpeq>
 8000af8:	bf94      	ite	ls
 8000afa:	2001      	movls	r0, #1
 8000afc:	2000      	movhi	r0, #0
 8000afe:	f85d fb08 	ldr.w	pc, [sp], #8
 8000b02:	bf00      	nop

08000b04 <__aeabi_dcmpge>:
 8000b04:	f84d ed08 	str.w	lr, [sp, #-8]!
 8000b08:	f7ff ffce 	bl	8000aa8 <__aeabi_cdrcmple>
 8000b0c:	bf94      	ite	ls
 8000b0e:	2001      	movls	r0, #1
 8000b10:	2000      	movhi	r0, #0
 8000b12:	f85d fb08 	ldr.w	pc, [sp], #8
 8000b16:	bf00      	nop

08000b18 <__aeabi_dcmpgt>:
 8000b18:	f84d ed08 	str.w	lr, [sp, #-8]!
 8000b1c:	f7ff ffc4 	bl	8000aa8 <__aeabi_cdrcmple>
 8000b20:	bf34      	ite	cc
 8000b22:	2001      	movcc	r0, #1
 8000b24:	2000      	movcs	r0, #0
 8000b26:	f85d fb08 	ldr.w	pc, [sp], #8
 8000b2a:	bf00      	nop

08000b2c <__aeabi_dcmpun>:
 8000b2c:	ea4f 0c41 	mov.w	ip, r1, lsl #1
 8000b30:	ea7f 5c6c 	mvns.w	ip, ip, asr #21
 8000b34:	d102      	bne.n	8000b3c <__aeabi_dcmpun+0x10>
 8000b36:	ea50 3c01 	orrs.w	ip, r0, r1, lsl #12
 8000b3a:	d10a      	bne.n	8000b52 <__aeabi_dcmpun+0x26>
 8000b3c:	ea4f 0c43 	mov.w	ip, r3, lsl #1
 8000b40:	ea7f 5c6c 	mvns.w	ip, ip, asr #21
 8000b44:	d102      	bne.n	8000b4c <__aeabi_dcmpun+0x20>
 8000b46:	ea52 3c03 	orrs.w	ip, r2, r3, lsl #12
 8000b4a:	d102      	bne.n	8000b52 <__aeabi_dcmpun+0x26>
 8000b4c:	f04f 0000 	mov.w	r0, #0
 8000b50:	4770      	bx	lr
 8000b52:	f04f 0001 	mov.w	r0, #1
 8000b56:	4770      	bx	lr

08000b58 <__aeabi_d2iz>:
 8000b58:	ea4f 0241 	mov.w	r2, r1, lsl #1
 8000b5c:	f512 1200 	adds.w	r2, r2, #2097152	; 0x200000
 8000b60:	d215      	bcs.n	8000b8e <__aeabi_d2iz+0x36>
 8000b62:	d511      	bpl.n	8000b88 <__aeabi_d2iz+0x30>
 8000b64:	f46f 7378 	mvn.w	r3, #992	; 0x3e0
 8000b68:	ebb3 5262 	subs.w	r2, r3, r2, asr #21
 8000b6c:	d912      	bls.n	8000b94 <__aeabi_d2iz+0x3c>
 8000b6e:	ea4f 23c1 	mov.w	r3, r1, lsl #11
 8000b72:	f043 4300 	orr.w	r3, r3, #2147483648	; 0x80000000
 8000b76:	ea43 5350 	orr.w	r3, r3, r0, lsr #21
 8000b7a:	f011 4f00 	tst.w	r1, #2147483648	; 0x80000000
 8000b7e:	fa23 f002 	lsr.w	r0, r3, r2
 8000b82:	bf18      	it	ne
 8000b84:	4240      	negne	r0, r0
 8000b86:	4770      	bx	lr
 8000b88:	f04f 0000 	mov.w	r0, #0
 8000b8c:	4770      	bx	lr
 8000b8e:	ea50 3001 	orrs.w	r0, r0, r1, lsl #12
 8000b92:	d105      	bne.n	8000ba0 <__aeabi_d2iz+0x48>
 8000b94:	f011 4000 	ands.w	r0, r1, #2147483648	; 0x80000000
 8000b98:	bf08      	it	eq
 8000b9a:	f06f 4000 	mvneq.w	r0, #2147483648	; 0x80000000
 8000b9e:	4770      	bx	lr
 8000ba0:	f04f 0000 	mov.w	r0, #0
 8000ba4:	4770      	bx	lr
 8000ba6:	bf00      	nop

08000ba8 <__aeabi_d2uiz>:
 8000ba8:	004a      	lsls	r2, r1, #1
 8000baa:	d211      	bcs.n	8000bd0 <__aeabi_d2uiz+0x28>
 8000bac:	f512 1200 	adds.w	r2, r2, #2097152	; 0x200000
 8000bb0:	d211      	bcs.n	8000bd6 <__aeabi_d2uiz+0x2e>
 8000bb2:	d50d      	bpl.n	8000bd0 <__aeabi_d2uiz+0x28>
 8000bb4:	f46f 7378 	mvn.w	r3, #992	; 0x3e0
 8000bb8:	ebb3 5262 	subs.w	r2, r3, r2, asr #21
 8000bbc:	d40e      	bmi.n	8000bdc <__aeabi_d2uiz+0x34>
 8000bbe:	ea4f 23c1 	mov.w	r3, r1, lsl #11
 8000bc2:	f043 4300 	orr.w	r3, r3, #2147483648	; 0x80000000
 8000bc6:	ea43 5350 	orr.w	r3, r3, r0, lsr #21
 8000bca:	fa23 f002 	lsr.w	r0, r3, r2
 8000bce:	4770      	bx	lr
 8000bd0:	f04f 0000 	mov.w	r0, #0
 8000bd4:	4770      	bx	lr
 8000bd6:	ea50 3001 	orrs.w	r0, r0, r1, lsl #12
 8000bda:	d102      	bne.n	8000be2 <__aeabi_d2uiz+0x3a>
 8000bdc:	f04f 30ff 	mov.w	r0, #4294967295
 8000be0:	4770      	bx	lr
 8000be2:	f04f 0000 	mov.w	r0, #0
 8000be6:	4770      	bx	lr

08000be8 <__aeabi_d2f>:
 8000be8:	ea4f 0241 	mov.w	r2, r1, lsl #1
 8000bec:	f1b2 43e0 	subs.w	r3, r2, #1879048192	; 0x70000000
 8000bf0:	bf24      	itt	cs
 8000bf2:	f5b3 1c00 	subscs.w	ip, r3, #2097152	; 0x200000
 8000bf6:	f1dc 5cfe 	rsbscs	ip, ip, #532676608	; 0x1fc00000
 8000bfa:	d90d      	bls.n	8000c18 <__aeabi_d2f+0x30>
 8000bfc:	f001 4c00 	and.w	ip, r1, #2147483648	; 0x80000000
 8000c00:	ea4f 02c0 	mov.w	r2, r0, lsl #3
 8000c04:	ea4c 7050 	orr.w	r0, ip, r0, lsr #29
 8000c08:	f1b2 4f00 	cmp.w	r2, #2147483648	; 0x80000000
 8000c0c:	eb40 0083 	adc.w	r0, r0, r3, lsl #2
 8000c10:	bf08      	it	eq
 8000c12:	f020 0001 	biceq.w	r0, r0, #1
 8000c16:	4770      	bx	lr
 8000c18:	f011 4f80 	tst.w	r1, #1073741824	; 0x40000000
 8000c1c:	d121      	bne.n	8000c62 <__aeabi_d2f+0x7a>
 8000c1e:	f113 7238 	adds.w	r2, r3, #48234496	; 0x2e00000
 8000c22:	bfbc      	itt	lt
 8000c24:	f001 4000 	andlt.w	r0, r1, #2147483648	; 0x80000000
 8000c28:	4770      	bxlt	lr
 8000c2a:	f441 1180 	orr.w	r1, r1, #1048576	; 0x100000
 8000c2e:	ea4f 5252 	mov.w	r2, r2, lsr #21
 8000c32:	f1c2 0218 	rsb	r2, r2, #24
 8000c36:	f1c2 0c20 	rsb	ip, r2, #32
 8000c3a:	fa10 f30c 	lsls.w	r3, r0, ip
 8000c3e:	fa20 f002 	lsr.w	r0, r0, r2
 8000c42:	bf18      	it	ne
 8000c44:	f040 0001 	orrne.w	r0, r0, #1
 8000c48:	ea4f 23c1 	mov.w	r3, r1, lsl #11
 8000c4c:	ea4f 23d3 	mov.w	r3, r3, lsr #11
 8000c50:	fa03 fc0c 	lsl.w	ip, r3, ip
 8000c54:	ea40 000c 	orr.w	r0, r0, ip
 8000c58:	fa23 f302 	lsr.w	r3, r3, r2
 8000c5c:	ea4f 0343 	mov.w	r3, r3, lsl #1
 8000c60:	e7cc      	b.n	8000bfc <__aeabi_d2f+0x14>
 8000c62:	ea7f 5362 	mvns.w	r3, r2, asr #21
 8000c66:	d107      	bne.n	8000c78 <__aeabi_d2f+0x90>
 8000c68:	ea50 3301 	orrs.w	r3, r0, r1, lsl #12
 8000c6c:	bf1e      	ittt	ne
 8000c6e:	f04f 40fe 	movne.w	r0, #2130706432	; 0x7f000000
 8000c72:	f440 0040 	orrne.w	r0, r0, #12582912	; 0xc00000
 8000c76:	4770      	bxne	lr
 8000c78:	f001 4000 	and.w	r0, r1, #2147483648	; 0x80000000
 8000c7c:	f040 40fe 	orr.w	r0, r0, #2130706432	; 0x7f000000
 8000c80:	f440 0000 	orr.w	r0, r0, #8388608	; 0x800000
 8000c84:	4770      	bx	lr
 8000c86:	bf00      	nop

08000c88 <__aeabi_uldivmod>:
 8000c88:	b953      	cbnz	r3, 8000ca0 <__aeabi_uldivmod+0x18>
 8000c8a:	b94a      	cbnz	r2, 8000ca0 <__aeabi_uldivmod+0x18>
 8000c8c:	2900      	cmp	r1, #0
 8000c8e:	bf08      	it	eq
 8000c90:	2800      	cmpeq	r0, #0
 8000c92:	bf1c      	itt	ne
 8000c94:	f04f 31ff 	movne.w	r1, #4294967295
 8000c98:	f04f 30ff 	movne.w	r0, #4294967295
 8000c9c:	f000 b96e 	b.w	8000f7c <__aeabi_idiv0>
 8000ca0:	f1ad 0c08 	sub.w	ip, sp, #8
 8000ca4:	e96d ce04 	strd	ip, lr, [sp, #-16]!
 8000ca8:	f000 f806 	bl	8000cb8 <__udivmoddi4>
 8000cac:	f8dd e004 	ldr.w	lr, [sp, #4]
 8000cb0:	e9dd 2302 	ldrd	r2, r3, [sp, #8]
 8000cb4:	b004      	add	sp, #16
 8000cb6:	4770      	bx	lr

08000cb8 <__udivmoddi4>:
 8000cb8:	e92d 47f0 	stmdb	sp!, {r4, r5, r6, r7, r8, r9, sl, lr}
 8000cbc:	9d08      	ldr	r5, [sp, #32]
 8000cbe:	4604      	mov	r4, r0
 8000cc0:	468c      	mov	ip, r1
 8000cc2:	2b00      	cmp	r3, #0
 8000cc4:	f040 8083 	bne.w	8000dce <__udivmoddi4+0x116>
 8000cc8:	428a      	cmp	r2, r1
 8000cca:	4617      	mov	r7, r2
 8000ccc:	d947      	bls.n	8000d5e <__udivmoddi4+0xa6>
 8000cce:	fab2 f282 	clz	r2, r2
 8000cd2:	b142      	cbz	r2, 8000ce6 <__udivmoddi4+0x2e>
 8000cd4:	f1c2 0020 	rsb	r0, r2, #32
 8000cd8:	fa24 f000 	lsr.w	r0, r4, r0
 8000cdc:	4091      	lsls	r1, r2
 8000cde:	4097      	lsls	r7, r2
 8000ce0:	ea40 0c01 	orr.w	ip, r0, r1
 8000ce4:	4094      	lsls	r4, r2
 8000ce6:	ea4f 4817 	mov.w	r8, r7, lsr #16
 8000cea:	0c23      	lsrs	r3, r4, #16
 8000cec:	fbbc f6f8 	udiv	r6, ip, r8
 8000cf0:	fa1f fe87 	uxth.w	lr, r7
 8000cf4:	fb08 c116 	mls	r1, r8, r6, ip
 8000cf8:	ea43 4301 	orr.w	r3, r3, r1, lsl #16
 8000cfc:	fb06 f10e 	mul.w	r1, r6, lr
 8000d00:	4299      	cmp	r1, r3
 8000d02:	d909      	bls.n	8000d18 <__udivmoddi4+0x60>
 8000d04:	18fb      	adds	r3, r7, r3
 8000d06:	f106 30ff 	add.w	r0, r6, #4294967295
 8000d0a:	f080 8119 	bcs.w	8000f40 <__udivmoddi4+0x288>
 8000d0e:	4299      	cmp	r1, r3
 8000d10:	f240 8116 	bls.w	8000f40 <__udivmoddi4+0x288>
 8000d14:	3e02      	subs	r6, #2
 8000d16:	443b      	add	r3, r7
 8000d18:	1a5b      	subs	r3, r3, r1
 8000d1a:	b2a4      	uxth	r4, r4
 8000d1c:	fbb3 f0f8 	udiv	r0, r3, r8
 8000d20:	fb08 3310 	mls	r3, r8, r0, r3
 8000d24:	ea44 4403 	orr.w	r4, r4, r3, lsl #16
 8000d28:	fb00 fe0e 	mul.w	lr, r0, lr
 8000d2c:	45a6      	cmp	lr, r4
 8000d2e:	d909      	bls.n	8000d44 <__udivmoddi4+0x8c>
 8000d30:	193c      	adds	r4, r7, r4
 8000d32:	f100 33ff 	add.w	r3, r0, #4294967295
 8000d36:	f080 8105 	bcs.w	8000f44 <__udivmoddi4+0x28c>
 8000d3a:	45a6      	cmp	lr, r4
 8000d3c:	f240 8102 	bls.w	8000f44 <__udivmoddi4+0x28c>
 8000d40:	3802      	subs	r0, #2
 8000d42:	443c      	add	r4, r7
 8000d44:	ea40 4006 	orr.w	r0, r0, r6, lsl #16
 8000d48:	eba4 040e 	sub.w	r4, r4, lr
 8000d4c:	2600      	movs	r6, #0
 8000d4e:	b11d      	cbz	r5, 8000d58 <__udivmoddi4+0xa0>
 8000d50:	40d4      	lsrs	r4, r2
 8000d52:	2300      	movs	r3, #0
 8000d54:	e9c5 4300 	strd	r4, r3, [r5]
 8000d58:	4631      	mov	r1, r6
 8000d5a:	e8bd 87f0 	ldmia.w	sp!, {r4, r5, r6, r7, r8, r9, sl, pc}
 8000d5e:	b902      	cbnz	r2, 8000d62 <__udivmoddi4+0xaa>
 8000d60:	deff      	udf	#255	; 0xff
 8000d62:	fab2 f282 	clz	r2, r2
 8000d66:	2a00      	cmp	r2, #0
 8000d68:	d150      	bne.n	8000e0c <__udivmoddi4+0x154>
 8000d6a:	1bcb      	subs	r3, r1, r7
 8000d6c:	ea4f 4e17 	mov.w	lr, r7, lsr #16
 8000d70:	fa1f f887 	uxth.w	r8, r7
 8000d74:	2601      	movs	r6, #1
 8000d76:	fbb3 fcfe 	udiv	ip, r3, lr
 8000d7a:	0c21      	lsrs	r1, r4, #16
 8000d7c:	fb0e 331c 	mls	r3, lr, ip, r3
 8000d80:	ea41 4103 	orr.w	r1, r1, r3, lsl #16
 8000d84:	fb08 f30c 	mul.w	r3, r8, ip
 8000d88:	428b      	cmp	r3, r1
 8000d8a:	d907      	bls.n	8000d9c <__udivmoddi4+0xe4>
 8000d8c:	1879      	adds	r1, r7, r1
 8000d8e:	f10c 30ff 	add.w	r0, ip, #4294967295
 8000d92:	d202      	bcs.n	8000d9a <__udivmoddi4+0xe2>
 8000d94:	428b      	cmp	r3, r1
 8000d96:	f200 80e9 	bhi.w	8000f6c <__udivmoddi4+0x2b4>
 8000d9a:	4684      	mov	ip, r0
 8000d9c:	1ac9      	subs	r1, r1, r3
 8000d9e:	b2a3      	uxth	r3, r4
 8000da0:	fbb1 f0fe 	udiv	r0, r1, lr
 8000da4:	fb0e 1110 	mls	r1, lr, r0, r1
 8000da8:	ea43 4401 	orr.w	r4, r3, r1, lsl #16
 8000dac:	fb08 f800 	mul.w	r8, r8, r0
 8000db0:	45a0      	cmp	r8, r4
 8000db2:	d907      	bls.n	8000dc4 <__udivmoddi4+0x10c>
 8000db4:	193c      	adds	r4, r7, r4
 8000db6:	f100 33ff 	add.w	r3, r0, #4294967295
 8000dba:	d202      	bcs.n	8000dc2 <__udivmoddi4+0x10a>
 8000dbc:	45a0      	cmp	r8, r4
 8000dbe:	f200 80d9 	bhi.w	8000f74 <__udivmoddi4+0x2bc>
 8000dc2:	4618      	mov	r0, r3
 8000dc4:	eba4 0408 	sub.w	r4, r4, r8
 8000dc8:	ea40 400c 	orr.w	r0, r0, ip, lsl #16
 8000dcc:	e7bf      	b.n	8000d4e <__udivmoddi4+0x96>
 8000dce:	428b      	cmp	r3, r1
 8000dd0:	d909      	bls.n	8000de6 <__udivmoddi4+0x12e>
 8000dd2:	2d00      	cmp	r5, #0
 8000dd4:	f000 80b1 	beq.w	8000f3a <__udivmoddi4+0x282>
 8000dd8:	2600      	movs	r6, #0
 8000dda:	e9c5 0100 	strd	r0, r1, [r5]
 8000dde:	4630      	mov	r0, r6
 8000de0:	4631      	mov	r1, r6
 8000de2:	e8bd 87f0 	ldmia.w	sp!, {r4, r5, r6, r7, r8, r9, sl, pc}
 8000de6:	fab3 f683 	clz	r6, r3
 8000dea:	2e00      	cmp	r6, #0
 8000dec:	d14a      	bne.n	8000e84 <__udivmoddi4+0x1cc>
 8000dee:	428b      	cmp	r3, r1
 8000df0:	d302      	bcc.n	8000df8 <__udivmoddi4+0x140>
 8000df2:	4282      	cmp	r2, r0
 8000df4:	f200 80b8 	bhi.w	8000f68 <__udivmoddi4+0x2b0>
 8000df8:	1a84      	subs	r4, r0, r2
 8000dfa:	eb61 0103 	sbc.w	r1, r1, r3
 8000dfe:	2001      	movs	r0, #1
 8000e00:	468c      	mov	ip, r1
 8000e02:	2d00      	cmp	r5, #0
 8000e04:	d0a8      	beq.n	8000d58 <__udivmoddi4+0xa0>
 8000e06:	e9c5 4c00 	strd	r4, ip, [r5]
 8000e0a:	e7a5      	b.n	8000d58 <__udivmoddi4+0xa0>
 8000e0c:	f1c2 0320 	rsb	r3, r2, #32
 8000e10:	fa20 f603 	lsr.w	r6, r0, r3
 8000e14:	4097      	lsls	r7, r2
 8000e16:	fa01 f002 	lsl.w	r0, r1, r2
 8000e1a:	ea4f 4e17 	mov.w	lr, r7, lsr #16
 8000e1e:	40d9      	lsrs	r1, r3
 8000e20:	4330      	orrs	r0, r6
 8000e22:	0c03      	lsrs	r3, r0, #16
 8000e24:	fbb1 f6fe 	udiv	r6, r1, lr
 8000e28:	fa1f f887 	uxth.w	r8, r7
 8000e2c:	fb0e 1116 	mls	r1, lr, r6, r1
 8000e30:	ea43 4301 	orr.w	r3, r3, r1, lsl #16
 8000e34:	fb06 f108 	mul.w	r1, r6, r8
 8000e38:	4299      	cmp	r1, r3
 8000e3a:	fa04 f402 	lsl.w	r4, r4, r2
 8000e3e:	d909      	bls.n	8000e54 <__udivmoddi4+0x19c>
 8000e40:	18fb      	adds	r3, r7, r3
 8000e42:	f106 3cff 	add.w	ip, r6, #4294967295
 8000e46:	f080 808d 	bcs.w	8000f64 <__udivmoddi4+0x2ac>
 8000e4a:	4299      	cmp	r1, r3
 8000e4c:	f240 808a 	bls.w	8000f64 <__udivmoddi4+0x2ac>
 8000e50:	3e02      	subs	r6, #2
 8000e52:	443b      	add	r3, r7
 8000e54:	1a5b      	subs	r3, r3, r1
 8000e56:	b281      	uxth	r1, r0
 8000e58:	fbb3 f0fe 	udiv	r0, r3, lr
 8000e5c:	fb0e 3310 	mls	r3, lr, r0, r3
 8000e60:	ea41 4103 	orr.w	r1, r1, r3, lsl #16
 8000e64:	fb00 f308 	mul.w	r3, r0, r8
 8000e68:	428b      	cmp	r3, r1
 8000e6a:	d907      	bls.n	8000e7c <__udivmoddi4+0x1c4>
 8000e6c:	1879      	adds	r1, r7, r1
 8000e6e:	f100 3cff 	add.w	ip, r0, #4294967295
 8000e72:	d273      	bcs.n	8000f5c <__udivmoddi4+0x2a4>
 8000e74:	428b      	cmp	r3, r1
 8000e76:	d971      	bls.n	8000f5c <__udivmoddi4+0x2a4>
 8000e78:	3802      	subs	r0, #2
 8000e7a:	4439      	add	r1, r7
 8000e7c:	1acb      	subs	r3, r1, r3
 8000e7e:	ea40 4606 	orr.w	r6, r0, r6, lsl #16
 8000e82:	e778      	b.n	8000d76 <__udivmoddi4+0xbe>
 8000e84:	f1c6 0c20 	rsb	ip, r6, #32
 8000e88:	fa03 f406 	lsl.w	r4, r3, r6
 8000e8c:	fa22 f30c 	lsr.w	r3, r2, ip
 8000e90:	431c      	orrs	r4, r3
 8000e92:	fa20 f70c 	lsr.w	r7, r0, ip
 8000e96:	fa01 f306 	lsl.w	r3, r1, r6
 8000e9a:	ea4f 4e14 	mov.w	lr, r4, lsr #16
 8000e9e:	fa21 f10c 	lsr.w	r1, r1, ip
 8000ea2:	431f      	orrs	r7, r3
 8000ea4:	0c3b      	lsrs	r3, r7, #16
 8000ea6:	fbb1 f9fe 	udiv	r9, r1, lr
 8000eaa:	fa1f f884 	uxth.w	r8, r4
 8000eae:	fb0e 1119 	mls	r1, lr, r9, r1
 8000eb2:	ea43 4101 	orr.w	r1, r3, r1, lsl #16
 8000eb6:	fb09 fa08 	mul.w	sl, r9, r8
 8000eba:	458a      	cmp	sl, r1
 8000ebc:	fa02 f206 	lsl.w	r2, r2, r6
 8000ec0:	fa00 f306 	lsl.w	r3, r0, r6
 8000ec4:	d908      	bls.n	8000ed8 <__udivmoddi4+0x220>
 8000ec6:	1861      	adds	r1, r4, r1
 8000ec8:	f109 30ff 	add.w	r0, r9, #4294967295
 8000ecc:	d248      	bcs.n	8000f60 <__udivmoddi4+0x2a8>
 8000ece:	458a      	cmp	sl, r1
 8000ed0:	d946      	bls.n	8000f60 <__udivmoddi4+0x2a8>
 8000ed2:	f1a9 0902 	sub.w	r9, r9, #2
 8000ed6:	4421      	add	r1, r4
 8000ed8:	eba1 010a 	sub.w	r1, r1, sl
 8000edc:	b2bf      	uxth	r7, r7
 8000ede:	fbb1 f0fe 	udiv	r0, r1, lr
 8000ee2:	fb0e 1110 	mls	r1, lr, r0, r1
 8000ee6:	ea47 4701 	orr.w	r7, r7, r1, lsl #16
 8000eea:	fb00 f808 	mul.w	r8, r0, r8
 8000eee:	45b8      	cmp	r8, r7
 8000ef0:	d907      	bls.n	8000f02 <__udivmoddi4+0x24a>
 8000ef2:	19e7      	adds	r7, r4, r7
 8000ef4:	f100 31ff 	add.w	r1, r0, #4294967295
 8000ef8:	d22e      	bcs.n	8000f58 <__udivmoddi4+0x2a0>
 8000efa:	45b8      	cmp	r8, r7
 8000efc:	d92c      	bls.n	8000f58 <__udivmoddi4+0x2a0>
 8000efe:	3802      	subs	r0, #2
 8000f00:	4427      	add	r7, r4
 8000f02:	ea40 4009 	orr.w	r0, r0, r9, lsl #16
 8000f06:	eba7 0708 	sub.w	r7, r7, r8
 8000f0a:	fba0 8902 	umull	r8, r9, r0, r2
 8000f0e:	454f      	cmp	r7, r9
 8000f10:	46c6      	mov	lr, r8
 8000f12:	4649      	mov	r1, r9
 8000f14:	d31a      	bcc.n	8000f4c <__udivmoddi4+0x294>
 8000f16:	d017      	beq.n	8000f48 <__udivmoddi4+0x290>
 8000f18:	b15d      	cbz	r5, 8000f32 <__udivmoddi4+0x27a>
 8000f1a:	ebb3 020e 	subs.w	r2, r3, lr
 8000f1e:	eb67 0701 	sbc.w	r7, r7, r1
 8000f22:	fa07 fc0c 	lsl.w	ip, r7, ip
 8000f26:	40f2      	lsrs	r2, r6
 8000f28:	ea4c 0202 	orr.w	r2, ip, r2
 8000f2c:	40f7      	lsrs	r7, r6
 8000f2e:	e9c5 2700 	strd	r2, r7, [r5]
 8000f32:	2600      	movs	r6, #0
 8000f34:	4631      	mov	r1, r6
 8000f36:	e8bd 87f0 	ldmia.w	sp!, {r4, r5, r6, r7, r8, r9, sl, pc}
 8000f3a:	462e      	mov	r6, r5
 8000f3c:	4628      	mov	r0, r5
 8000f3e:	e70b      	b.n	8000d58 <__udivmoddi4+0xa0>
 8000f40:	4606      	mov	r6, r0
 8000f42:	e6e9      	b.n	8000d18 <__udivmoddi4+0x60>
 8000f44:	4618      	mov	r0, r3
 8000f46:	e6fd      	b.n	8000d44 <__udivmoddi4+0x8c>
 8000f48:	4543      	cmp	r3, r8
 8000f4a:	d2e5      	bcs.n	8000f18 <__udivmoddi4+0x260>
 8000f4c:	ebb8 0e02 	subs.w	lr, r8, r2
 8000f50:	eb69 0104 	sbc.w	r1, r9, r4
 8000f54:	3801      	subs	r0, #1
 8000f56:	e7df      	b.n	8000f18 <__udivmoddi4+0x260>
 8000f58:	4608      	mov	r0, r1
 8000f5a:	e7d2      	b.n	8000f02 <__udivmoddi4+0x24a>
 8000f5c:	4660      	mov	r0, ip
 8000f5e:	e78d      	b.n	8000e7c <__udivmoddi4+0x1c4>
 8000f60:	4681      	mov	r9, r0
 8000f62:	e7b9      	b.n	8000ed8 <__udivmoddi4+0x220>
 8000f64:	4666      	mov	r6, ip
 8000f66:	e775      	b.n	8000e54 <__udivmoddi4+0x19c>
 8000f68:	4630      	mov	r0, r6
 8000f6a:	e74a      	b.n	8000e02 <__udivmoddi4+0x14a>
 8000f6c:	f1ac 0c02 	sub.w	ip, ip, #2
 8000f70:	4439      	add	r1, r7
 8000f72:	e713      	b.n	8000d9c <__udivmoddi4+0xe4>
 8000f74:	3802      	subs	r0, #2
 8000f76:	443c      	add	r4, r7
 8000f78:	e724      	b.n	8000dc4 <__udivmoddi4+0x10c>
 8000f7a:	bf00      	nop

08000f7c <__aeabi_idiv0>:
 8000f7c:	4770      	bx	lr
 8000f7e:	bf00      	nop

08000f80 <u8x8_byte_hw_i2c>:
 8000f80:	b573      	push	{r0, r1, r4, r5, r6, lr}
 8000f82:	3914      	subs	r1, #20
 8000f84:	290c      	cmp	r1, #12
 8000f86:	d82b      	bhi.n	8000fe0 <u8x8_byte_hw_i2c+0x60>
 8000f88:	e8df f001 	tbb	[pc, r1]
 8000f8c:	072a2a11 	.word	0x072a2a11
 8000f90:	2a2a1f1b 	.word	0x2a2a1f1b
 8000f94:	2a2a2a2a 	.word	0x2a2a2a2a
 8000f98:	11          	.byte	0x11
 8000f99:	00          	.byte	0x00
 8000f9a:	4812      	ldr	r0, [pc, #72]	; (8000fe4 <u8x8_byte_hw_i2c+0x64>)
 8000f9c:	4d12      	ldr	r5, [pc, #72]	; (8000fe8 <u8x8_byte_hw_i2c+0x68>)
 8000f9e:	7801      	ldrb	r1, [r0, #0]
 8000fa0:	440a      	add	r2, r1
 8000fa2:	b2d2      	uxtb	r2, r2
 8000fa4:	2400      	movs	r4, #0
 8000fa6:	4291      	cmp	r1, r2
 8000fa8:	d104      	bne.n	8000fb4 <u8x8_byte_hw_i2c+0x34>
 8000faa:	b104      	cbz	r4, 8000fae <u8x8_byte_hw_i2c+0x2e>
 8000fac:	7001      	strb	r1, [r0, #0]
 8000fae:	2001      	movs	r0, #1
 8000fb0:	b002      	add	sp, #8
 8000fb2:	bd70      	pop	{r4, r5, r6, pc}
 8000fb4:	1c4c      	adds	r4, r1, #1
 8000fb6:	f813 6b01 	ldrb.w	r6, [r3], #1
 8000fba:	546e      	strb	r6, [r5, r1]
 8000fbc:	b2e1      	uxtb	r1, r4
 8000fbe:	2401      	movs	r4, #1
 8000fc0:	e7f1      	b.n	8000fa6 <u8x8_byte_hw_i2c+0x26>
 8000fc2:	4b08      	ldr	r3, [pc, #32]	; (8000fe4 <u8x8_byte_hw_i2c+0x64>)
 8000fc4:	2200      	movs	r2, #0
 8000fc6:	701a      	strb	r2, [r3, #0]
 8000fc8:	e7f1      	b.n	8000fae <u8x8_byte_hw_i2c+0x2e>
 8000fca:	f44f 737a 	mov.w	r3, #1000	; 0x3e8
 8000fce:	9300      	str	r3, [sp, #0]
 8000fd0:	4b04      	ldr	r3, [pc, #16]	; (8000fe4 <u8x8_byte_hw_i2c+0x64>)
 8000fd2:	4a05      	ldr	r2, [pc, #20]	; (8000fe8 <u8x8_byte_hw_i2c+0x68>)
 8000fd4:	781b      	ldrb	r3, [r3, #0]
 8000fd6:	4805      	ldr	r0, [pc, #20]	; (8000fec <u8x8_byte_hw_i2c+0x6c>)
 8000fd8:	2178      	movs	r1, #120	; 0x78
 8000fda:	f005 fba7 	bl	800672c <HAL_I2C_Master_Transmit>
 8000fde:	e7e6      	b.n	8000fae <u8x8_byte_hw_i2c+0x2e>
 8000fe0:	2000      	movs	r0, #0
 8000fe2:	e7e5      	b.n	8000fb0 <u8x8_byte_hw_i2c+0x30>
 8000fe4:	20000928 	.word	0x20000928
 8000fe8:	20000929 	.word	0x20000929
 8000fec:	20000f24 	.word	0x20000f24

08000ff0 <u8x8_gpio_and_delay>:
 8000ff0:	292d      	cmp	r1, #45	; 0x2d
 8000ff2:	b508      	push	{r3, lr}
 8000ff4:	4603      	mov	r3, r0
 8000ff6:	4610      	mov	r0, r2
 8000ff8:	d012      	beq.n	8001020 <u8x8_gpio_and_delay+0x30>
 8000ffa:	d807      	bhi.n	800100c <u8x8_gpio_and_delay+0x1c>
 8000ffc:	2928      	cmp	r1, #40	; 0x28
 8000ffe:	d00c      	beq.n	800101a <u8x8_gpio_and_delay+0x2a>
 8001000:	2929      	cmp	r1, #41	; 0x29
 8001002:	d00b      	beq.n	800101c <u8x8_gpio_and_delay+0x2c>
 8001004:	2201      	movs	r2, #1
 8001006:	f883 2028 	strb.w	r2, [r3, #40]	; 0x28
 800100a:	e009      	b.n	8001020 <u8x8_gpio_and_delay+0x30>
 800100c:	294c      	cmp	r1, #76	; 0x4c
 800100e:	d009      	beq.n	8001024 <u8x8_gpio_and_delay+0x34>
 8001010:	294d      	cmp	r1, #77	; 0x4d
 8001012:	d1f7      	bne.n	8001004 <u8x8_gpio_and_delay+0x14>
 8001014:	f44f 4180 	mov.w	r1, #16384	; 0x4000
 8001018:	e006      	b.n	8001028 <u8x8_gpio_and_delay+0x38>
 800101a:	2001      	movs	r0, #1
 800101c:	f004 ff24 	bl	8005e68 <HAL_Delay>
 8001020:	2001      	movs	r0, #1
 8001022:	bd08      	pop	{r3, pc}
 8001024:	f44f 5100 	mov.w	r1, #8192	; 0x2000
 8001028:	4801      	ldr	r0, [pc, #4]	; (8001030 <u8x8_gpio_and_delay+0x40>)
 800102a:	f005 fa1b 	bl	8006464 <HAL_GPIO_WritePin>
 800102e:	e7f7      	b.n	8001020 <u8x8_gpio_and_delay+0x30>
 8001030:	48000400 	.word	0x48000400

08001034 <display_InitBis>:
 8001034:	b508      	push	{r3, lr}
 8001036:	4a09      	ldr	r2, [pc, #36]	; (800105c <display_InitBis+0x28>)
 8001038:	4b09      	ldr	r3, [pc, #36]	; (8001060 <display_InitBis+0x2c>)
 800103a:	490a      	ldr	r1, [pc, #40]	; (8001064 <display_InitBis+0x30>)
 800103c:	480a      	ldr	r0, [pc, #40]	; (8001068 <display_InitBis+0x34>)
 800103e:	f002 ff5b 	bl	8003ef8 <u8g2_Setup_ssd1306_i2c_128x32_univision_1>
 8001042:	4809      	ldr	r0, [pc, #36]	; (8001068 <display_InitBis+0x34>)
 8001044:	f003 fd3c 	bl	8004ac0 <u8x8_InitDisplay>
 8001048:	4807      	ldr	r0, [pc, #28]	; (8001068 <display_InitBis+0x34>)
 800104a:	2100      	movs	r1, #0
 800104c:	f003 fd41 	bl	8004ad2 <u8x8_SetPowerSave>
 8001050:	e8bd 4008 	ldmia.w	sp!, {r3, lr}
 8001054:	4804      	ldr	r0, [pc, #16]	; (8001068 <display_InitBis+0x34>)
 8001056:	f002 bf39 	b.w	8003ecc <u8g2_ClearDisplay>
 800105a:	bf00      	nop
 800105c:	08000f81 	.word	0x08000f81
 8001060:	08000ff1 	.word	0x08000ff1
 8001064:	0800fcc0 	.word	0x0800fcc0
 8001068:	20001888 	.word	0x20001888

0800106c <display_GPS_status>:
 800106c:	b510      	push	{r4, lr}
 800106e:	6853      	ldr	r3, [r2, #4]
 8001070:	2b01      	cmp	r3, #1
 8001072:	b088      	sub	sp, #32
 8001074:	460c      	mov	r4, r1
 8001076:	d137      	bne.n	80010e8 <display_GPS_status+0x7c>
 8001078:	f8d2 2100 	ldr.w	r2, [r2, #256]	; 0x100
 800107c:	4928      	ldr	r1, [pc, #160]	; (8001120 <display_GPS_status+0xb4>)
 800107e:	a802      	add	r0, sp, #8
 8001080:	f00a ff2a 	bl	800bed8 <siprintf>
 8001084:	68a3      	ldr	r3, [r4, #8]
 8001086:	2b00      	cmp	r3, #0
 8001088:	d048      	beq.n	800111c <display_GPS_status+0xb0>
 800108a:	f004 fee7 	bl	8005e5c <HAL_GetTick>
 800108e:	68a4      	ldr	r4, [r4, #8]
 8001090:	1b00      	subs	r0, r0, r4
 8001092:	f64e 2460 	movw	r4, #60000	; 0xea60
 8001096:	fbb0 f4f4 	udiv	r4, r0, r4
 800109a:	3401      	adds	r4, #1
 800109c:	f5b4 7ff0 	cmp.w	r4, #480	; 0x1e0
 80010a0:	d927      	bls.n	80010f2 <display_GPS_status+0x86>
 80010a2:	4920      	ldr	r1, [pc, #128]	; (8001124 <display_GPS_status+0xb8>)
 80010a4:	a803      	add	r0, sp, #12
 80010a6:	f00a ff46 	bl	800bf36 <strcpy>
 80010aa:	491f      	ldr	r1, [pc, #124]	; (8001128 <display_GPS_status+0xbc>)
 80010ac:	481f      	ldr	r0, [pc, #124]	; (800112c <display_GPS_status+0xc0>)
 80010ae:	f003 f9a3 	bl	80043f8 <u8g2_SetFont>
 80010b2:	491f      	ldr	r1, [pc, #124]	; (8001130 <display_GPS_status+0xc4>)
 80010b4:	a805      	add	r0, sp, #20
 80010b6:	f00a ff3e 	bl	800bf36 <strcpy>
 80010ba:	a903      	add	r1, sp, #12
 80010bc:	a805      	add	r0, sp, #20
 80010be:	f00a ff2b 	bl	800bf18 <strcat>
 80010c2:	481a      	ldr	r0, [pc, #104]	; (800112c <display_GPS_status+0xc0>)
 80010c4:	ab05      	add	r3, sp, #20
 80010c6:	2208      	movs	r2, #8
 80010c8:	2100      	movs	r1, #0
 80010ca:	f003 f959 	bl	8004380 <u8g2_DrawStr>
 80010ce:	2c01      	cmp	r4, #1
 80010d0:	d124      	bne.n	800111c <display_GPS_status+0xb0>
 80010d2:	4b18      	ldr	r3, [pc, #96]	; (8001134 <display_GPS_status+0xc8>)
 80010d4:	9301      	str	r3, [sp, #4]
 80010d6:	230c      	movs	r3, #12
 80010d8:	4814      	ldr	r0, [pc, #80]	; (800112c <display_GPS_status+0xc0>)
 80010da:	9300      	str	r3, [sp, #0]
 80010dc:	2200      	movs	r2, #0
 80010de:	215a      	movs	r1, #90	; 0x5a
 80010e0:	f002 fe60 	bl	8003da4 <u8g2_DrawXBM>
 80010e4:	b008      	add	sp, #32
 80010e6:	bd10      	pop	{r4, pc}
 80010e8:	4913      	ldr	r1, [pc, #76]	; (8001138 <display_GPS_status+0xcc>)
 80010ea:	a802      	add	r0, sp, #8
 80010ec:	f00a ff23 	bl	800bf36 <strcpy>
 80010f0:	e7c8      	b.n	8001084 <display_GPS_status+0x18>
 80010f2:	2c3b      	cmp	r4, #59	; 0x3b
 80010f4:	d90b      	bls.n	800110e <display_GPS_status+0xa2>
 80010f6:	4911      	ldr	r1, [pc, #68]	; (800113c <display_GPS_status+0xd0>)
 80010f8:	223c      	movs	r2, #60	; 0x3c
 80010fa:	a803      	add	r0, sp, #12
 80010fc:	fbb4 f2f2 	udiv	r2, r4, r2
 8001100:	f00a feea 	bl	800bed8 <siprintf>
 8001104:	490e      	ldr	r1, [pc, #56]	; (8001140 <display_GPS_status+0xd4>)
 8001106:	a803      	add	r0, sp, #12
 8001108:	f00a ff06 	bl	800bf18 <strcat>
 800110c:	e7cd      	b.n	80010aa <display_GPS_status+0x3e>
 800110e:	490b      	ldr	r1, [pc, #44]	; (800113c <display_GPS_status+0xd0>)
 8001110:	4622      	mov	r2, r4
 8001112:	a803      	add	r0, sp, #12
 8001114:	f00a fee0 	bl	800bed8 <siprintf>
 8001118:	490a      	ldr	r1, [pc, #40]	; (8001144 <display_GPS_status+0xd8>)
 800111a:	e7f4      	b.n	8001106 <display_GPS_status+0x9a>
 800111c:	4b0a      	ldr	r3, [pc, #40]	; (8001148 <display_GPS_status+0xdc>)
 800111e:	e7d9      	b.n	80010d4 <display_GPS_status+0x68>
 8001120:	0800e860 	.word	0x0800e860
 8001124:	0800e678 	.word	0x0800e678
 8001128:	0800e88c 	.word	0x0800e88c
 800112c:	20001888 	.word	0x20001888
 8001130:	0800e684 	.word	0x0800e684
 8001134:	20000114 	.word	0x20000114
 8001138:	0800e763 	.word	0x0800e763
 800113c:	0800e67b 	.word	0x0800e67b
 8001140:	0800e67e 	.word	0x0800e67e
 8001144:	0800e680 	.word	0x0800e680
 8001148:	200000fc 	.word	0x200000fc

0800114c <display_Chargement_perso>:
 800114c:	b510      	push	{r4, lr}
 800114e:	4b12      	ldr	r3, [pc, #72]	; (8001198 <display_Chargement_perso+0x4c>)
 8001150:	4c12      	ldr	r4, [pc, #72]	; (800119c <display_Chargement_perso+0x50>)
 8001152:	6818      	ldr	r0, [r3, #0]
 8001154:	889a      	ldrh	r2, [r3, #4]
 8001156:	799b      	ldrb	r3, [r3, #6]
 8001158:	b086      	sub	sp, #24
 800115a:	2100      	movs	r1, #0
 800115c:	9001      	str	r0, [sp, #4]
 800115e:	f8ad 2008 	strh.w	r2, [sp, #8]
 8001162:	f10d 000b 	add.w	r0, sp, #11
 8001166:	220d      	movs	r2, #13
 8001168:	f88d 300a 	strb.w	r3, [sp, #10]
 800116c:	f00a f9d4 	bl	800b518 <memset>
 8001170:	480a      	ldr	r0, [pc, #40]	; (800119c <display_Chargement_perso+0x50>)
 8001172:	f002 fe7f 	bl	8003e74 <u8g2_FirstPage>
 8001176:	490a      	ldr	r1, [pc, #40]	; (80011a0 <display_Chargement_perso+0x54>)
 8001178:	4808      	ldr	r0, [pc, #32]	; (800119c <display_Chargement_perso+0x50>)
 800117a:	f003 f93d 	bl	80043f8 <u8g2_SetFont>
 800117e:	ab01      	add	r3, sp, #4
 8001180:	2214      	movs	r2, #20
 8001182:	2132      	movs	r1, #50	; 0x32
 8001184:	4620      	mov	r0, r4
 8001186:	f003 f8fb 	bl	8004380 <u8g2_DrawStr>
 800118a:	4620      	mov	r0, r4
 800118c:	f002 fe7f 	bl	8003e8e <u8g2_NextPage>
 8001190:	2800      	cmp	r0, #0
 8001192:	d1f4      	bne.n	800117e <display_Chargement_perso+0x32>
 8001194:	b006      	add	sp, #24
 8001196:	bd10      	pop	{r4, pc}
 8001198:	0800e580 	.word	0x0800e580
 800119c:	20001888 	.word	0x20001888
 80011a0:	0800ec01 	.word	0x0800ec01

080011a4 <display_Init>:
 80011a4:	b510      	push	{r4, lr}
 80011a6:	4b0c      	ldr	r3, [pc, #48]	; (80011d8 <display_Init+0x34>)
 80011a8:	4a0c      	ldr	r2, [pc, #48]	; (80011dc <display_Init+0x38>)
 80011aa:	490d      	ldr	r1, [pc, #52]	; (80011e0 <display_Init+0x3c>)
 80011ac:	4604      	mov	r4, r0
 80011ae:	480d      	ldr	r0, [pc, #52]	; (80011e4 <display_Init+0x40>)
 80011b0:	f002 fea2 	bl	8003ef8 <u8g2_Setup_ssd1306_i2c_128x32_univision_1>
 80011b4:	480b      	ldr	r0, [pc, #44]	; (80011e4 <display_Init+0x40>)
 80011b6:	f003 fc83 	bl	8004ac0 <u8x8_InitDisplay>
 80011ba:	480a      	ldr	r0, [pc, #40]	; (80011e4 <display_Init+0x40>)
 80011bc:	2100      	movs	r1, #0
 80011be:	f003 fc88 	bl	8004ad2 <u8x8_SetPowerSave>
 80011c2:	4808      	ldr	r0, [pc, #32]	; (80011e4 <display_Init+0x40>)
 80011c4:	f002 fe82 	bl	8003ecc <u8g2_ClearDisplay>
 80011c8:	b10c      	cbz	r4, 80011ce <display_Init+0x2a>
 80011ca:	f7ff ffbf 	bl	800114c <display_Chargement_perso>
 80011ce:	e8bd 4010 	ldmia.w	sp!, {r4, lr}
 80011d2:	4804      	ldr	r0, [pc, #16]	; (80011e4 <display_Init+0x40>)
 80011d4:	f002 be4e 	b.w	8003e74 <u8g2_FirstPage>
 80011d8:	08000ff1 	.word	0x08000ff1
 80011dc:	08000f81 	.word	0x08000f81
 80011e0:	0800fcc0 	.word	0x0800fcc0
 80011e4:	20001888 	.word	0x20001888

080011e8 <display_AlerteDanger>:
 80011e8:	e92d 47ff 	stmdb	sp!, {r0, r1, r2, r3, r4, r5, r6, r7, r8, r9, sl, lr}
 80011ec:	f8d0 3090 	ldr.w	r3, [r0, #144]	; 0x90
 80011f0:	4605      	mov	r5, r0
 80011f2:	4688      	mov	r8, r1
 80011f4:	4617      	mov	r7, r2
 80011f6:	2b00      	cmp	r3, #0
 80011f8:	f000 80bb 	beq.w	8001372 <display_AlerteDanger+0x18a>
 80011fc:	4860      	ldr	r0, [pc, #384]	; (8001380 <display_AlerteDanger+0x198>)
 80011fe:	f8df 91c0 	ldr.w	r9, [pc, #448]	; 80013c0 <display_AlerteDanger+0x1d8>
 8001202:	4c5f      	ldr	r4, [pc, #380]	; (8001380 <display_AlerteDanger+0x198>)
 8001204:	f8df a1bc 	ldr.w	sl, [pc, #444]	; 80013c4 <display_AlerteDanger+0x1dc>
 8001208:	f002 fe34 	bl	8003e74 <u8g2_FirstPage>
 800120c:	2320      	movs	r3, #32
 800120e:	2f00      	cmp	r7, #0
 8001210:	f040 80b2 	bne.w	8001378 <display_AlerteDanger+0x190>
 8001214:	f8cd a004 	str.w	sl, [sp, #4]
 8001218:	9300      	str	r3, [sp, #0]
 800121a:	2200      	movs	r2, #0
 800121c:	2105      	movs	r1, #5
 800121e:	4620      	mov	r0, r4
 8001220:	f002 fdc0 	bl	8003da4 <u8g2_DrawXBM>
 8001224:	4957      	ldr	r1, [pc, #348]	; (8001384 <display_AlerteDanger+0x19c>)
 8001226:	4620      	mov	r0, r4
 8001228:	f003 f8e6 	bl	80043f8 <u8g2_SetFont>
 800122c:	f8d8 6000 	ldr.w	r6, [r8]
 8001230:	f004 fe14 	bl	8005e5c <HAL_GetTick>
 8001234:	f506 43ee 	add.w	r3, r6, #30464	; 0x7700
 8001238:	3324      	adds	r3, #36	; 0x24
 800123a:	1a18      	subs	r0, r3, r0
 800123c:	4952      	ldr	r1, [pc, #328]	; (8001388 <display_AlerteDanger+0x1a0>)
 800123e:	f44f 727a 	mov.w	r2, #1000	; 0x3e8
 8001242:	fbb0 f2f2 	udiv	r2, r0, r2
 8001246:	a803      	add	r0, sp, #12
 8001248:	f00a fe46 	bl	800bed8 <siprintf>
 800124c:	4b4f      	ldr	r3, [pc, #316]	; (800138c <display_AlerteDanger+0x1a4>)
 800124e:	220d      	movs	r2, #13
 8001250:	212d      	movs	r1, #45	; 0x2d
 8001252:	4620      	mov	r0, r4
 8001254:	f003 f894 	bl	8004380 <u8g2_DrawStr>
 8001258:	2219      	movs	r2, #25
 800125a:	ab03      	add	r3, sp, #12
 800125c:	2150      	movs	r1, #80	; 0x50
 800125e:	4620      	mov	r0, r4
 8001260:	f003 f88e 	bl	8004380 <u8g2_DrawStr>
 8001264:	f8d5 2090 	ldr.w	r2, [r5, #144]	; 0x90
 8001268:	2a0d      	cmp	r2, #13
 800126a:	d104      	bne.n	8001276 <display_AlerteDanger+0x8e>
 800126c:	4b48      	ldr	r3, [pc, #288]	; (8001390 <display_AlerteDanger+0x1a8>)
 800126e:	212d      	movs	r1, #45	; 0x2d
 8001270:	4620      	mov	r0, r4
 8001272:	f003 f885 	bl	8004380 <u8g2_DrawStr>
 8001276:	f8d5 3090 	ldr.w	r3, [r5, #144]	; 0x90
 800127a:	2b01      	cmp	r3, #1
 800127c:	d105      	bne.n	800128a <display_AlerteDanger+0xa2>
 800127e:	4b45      	ldr	r3, [pc, #276]	; (8001394 <display_AlerteDanger+0x1ac>)
 8001280:	220d      	movs	r2, #13
 8001282:	212d      	movs	r1, #45	; 0x2d
 8001284:	4620      	mov	r0, r4
 8001286:	f003 f87b 	bl	8004380 <u8g2_DrawStr>
 800128a:	f8d5 3090 	ldr.w	r3, [r5, #144]	; 0x90
 800128e:	2b02      	cmp	r3, #2
 8001290:	d105      	bne.n	800129e <display_AlerteDanger+0xb6>
 8001292:	4b41      	ldr	r3, [pc, #260]	; (8001398 <display_AlerteDanger+0x1b0>)
 8001294:	220d      	movs	r2, #13
 8001296:	212d      	movs	r1, #45	; 0x2d
 8001298:	4620      	mov	r0, r4
 800129a:	f003 f871 	bl	8004380 <u8g2_DrawStr>
 800129e:	f8d5 3090 	ldr.w	r3, [r5, #144]	; 0x90
 80012a2:	2b03      	cmp	r3, #3
 80012a4:	d105      	bne.n	80012b2 <display_AlerteDanger+0xca>
 80012a6:	4b3d      	ldr	r3, [pc, #244]	; (800139c <display_AlerteDanger+0x1b4>)
 80012a8:	220d      	movs	r2, #13
 80012aa:	212d      	movs	r1, #45	; 0x2d
 80012ac:	4620      	mov	r0, r4
 80012ae:	f003 f867 	bl	8004380 <u8g2_DrawStr>
 80012b2:	f8d5 3090 	ldr.w	r3, [r5, #144]	; 0x90
 80012b6:	2b07      	cmp	r3, #7
 80012b8:	d105      	bne.n	80012c6 <display_AlerteDanger+0xde>
 80012ba:	4b39      	ldr	r3, [pc, #228]	; (80013a0 <display_AlerteDanger+0x1b8>)
 80012bc:	220d      	movs	r2, #13
 80012be:	2132      	movs	r1, #50	; 0x32
 80012c0:	4620      	mov	r0, r4
 80012c2:	f003 f85d 	bl	8004380 <u8g2_DrawStr>
 80012c6:	f8d5 3090 	ldr.w	r3, [r5, #144]	; 0x90
 80012ca:	2b08      	cmp	r3, #8
 80012cc:	d10b      	bne.n	80012e6 <display_AlerteDanger+0xfe>
 80012ce:	4b34      	ldr	r3, [pc, #208]	; (80013a0 <display_AlerteDanger+0x1b8>)
 80012d0:	220d      	movs	r2, #13
 80012d2:	2132      	movs	r1, #50	; 0x32
 80012d4:	4620      	mov	r0, r4
 80012d6:	f003 f853 	bl	8004380 <u8g2_DrawStr>
 80012da:	4b32      	ldr	r3, [pc, #200]	; (80013a4 <display_AlerteDanger+0x1bc>)
 80012dc:	221e      	movs	r2, #30
 80012de:	2164      	movs	r1, #100	; 0x64
 80012e0:	4620      	mov	r0, r4
 80012e2:	f003 f84d 	bl	8004380 <u8g2_DrawStr>
 80012e6:	f8d5 3090 	ldr.w	r3, [r5, #144]	; 0x90
 80012ea:	2b09      	cmp	r3, #9
 80012ec:	d10b      	bne.n	8001306 <display_AlerteDanger+0x11e>
 80012ee:	4b2e      	ldr	r3, [pc, #184]	; (80013a8 <display_AlerteDanger+0x1c0>)
 80012f0:	220d      	movs	r2, #13
 80012f2:	2132      	movs	r1, #50	; 0x32
 80012f4:	4620      	mov	r0, r4
 80012f6:	f003 f843 	bl	8004380 <u8g2_DrawStr>
 80012fa:	4b2c      	ldr	r3, [pc, #176]	; (80013ac <display_AlerteDanger+0x1c4>)
 80012fc:	221e      	movs	r2, #30
 80012fe:	2164      	movs	r1, #100	; 0x64
 8001300:	4620      	mov	r0, r4
 8001302:	f003 f83d 	bl	8004380 <u8g2_DrawStr>
 8001306:	f8d5 3090 	ldr.w	r3, [r5, #144]	; 0x90
 800130a:	2b0a      	cmp	r3, #10
 800130c:	d10b      	bne.n	8001326 <display_AlerteDanger+0x13e>
 800130e:	4b28      	ldr	r3, [pc, #160]	; (80013b0 <display_AlerteDanger+0x1c8>)
 8001310:	220d      	movs	r2, #13
 8001312:	2132      	movs	r1, #50	; 0x32
 8001314:	4620      	mov	r0, r4
 8001316:	f003 f833 	bl	8004380 <u8g2_DrawStr>
 800131a:	4b26      	ldr	r3, [pc, #152]	; (80013b4 <display_AlerteDanger+0x1cc>)
 800131c:	221e      	movs	r2, #30
 800131e:	2164      	movs	r1, #100	; 0x64
 8001320:	4620      	mov	r0, r4
 8001322:	f003 f82d 	bl	8004380 <u8g2_DrawStr>
 8001326:	f8d5 3090 	ldr.w	r3, [r5, #144]	; 0x90
 800132a:	2b0b      	cmp	r3, #11
 800132c:	d10b      	bne.n	8001346 <display_AlerteDanger+0x15e>
 800132e:	4b20      	ldr	r3, [pc, #128]	; (80013b0 <display_AlerteDanger+0x1c8>)
 8001330:	220d      	movs	r2, #13
 8001332:	2132      	movs	r1, #50	; 0x32
 8001334:	4620      	mov	r0, r4
 8001336:	f003 f823 	bl	8004380 <u8g2_DrawStr>
 800133a:	4b1a      	ldr	r3, [pc, #104]	; (80013a4 <display_AlerteDanger+0x1bc>)
 800133c:	221e      	movs	r2, #30
 800133e:	2164      	movs	r1, #100	; 0x64
 8001340:	4620      	mov	r0, r4
 8001342:	f003 f81d 	bl	8004380 <u8g2_DrawStr>
 8001346:	f8d5 3090 	ldr.w	r3, [r5, #144]	; 0x90
 800134a:	2b0c      	cmp	r3, #12
 800134c:	d10b      	bne.n	8001366 <display_AlerteDanger+0x17e>
 800134e:	4b1a      	ldr	r3, [pc, #104]	; (80013b8 <display_AlerteDanger+0x1d0>)
 8001350:	220d      	movs	r2, #13
 8001352:	2132      	movs	r1, #50	; 0x32
 8001354:	4620      	mov	r0, r4
 8001356:	f003 f813 	bl	8004380 <u8g2_DrawStr>
 800135a:	4b18      	ldr	r3, [pc, #96]	; (80013bc <display_AlerteDanger+0x1d4>)
 800135c:	221e      	movs	r2, #30
 800135e:	2164      	movs	r1, #100	; 0x64
 8001360:	4620      	mov	r0, r4
 8001362:	f003 f80d 	bl	8004380 <u8g2_DrawStr>
 8001366:	4620      	mov	r0, r4
 8001368:	f002 fd91 	bl	8003e8e <u8g2_NextPage>
 800136c:	2800      	cmp	r0, #0
 800136e:	f47f af4d 	bne.w	800120c <display_AlerteDanger+0x24>
 8001372:	b004      	add	sp, #16
 8001374:	e8bd 87f0 	ldmia.w	sp!, {r4, r5, r6, r7, r8, r9, sl, pc}
 8001378:	f8cd 9004 	str.w	r9, [sp, #4]
 800137c:	e74c      	b.n	8001218 <display_AlerteDanger+0x30>
 800137e:	bf00      	nop
 8001380:	20001888 	.word	0x20001888
 8001384:	0800f8d4 	.word	0x0800f8d4
 8001388:	0800e67b 	.word	0x0800e67b
 800138c:	0800e689 	.word	0x0800e689
 8001390:	0800e690 	.word	0x0800e690
 8001394:	0800e69d 	.word	0x0800e69d
 8001398:	0800e6a8 	.word	0x0800e6a8
 800139c:	0800e6b7 	.word	0x0800e6b7
 80013a0:	0800e6c2 	.word	0x0800e6c2
 80013a4:	0800e7b5 	.word	0x0800e7b5
 80013a8:	0800e6c6 	.word	0x0800e6c6
 80013ac:	0800e6cd 	.word	0x0800e6cd
 80013b0:	0800e6d0 	.word	0x0800e6d0
 80013b4:	0800e7b0 	.word	0x0800e7b0
 80013b8:	0800e6d3 	.word	0x0800e6d3
 80013bc:	0800e6da 	.word	0x0800e6da
 80013c0:	200005c0 	.word	0x200005c0
 80013c4:	20000540 	.word	0x20000540

080013c8 <display_SendMess>:
 80013c8:	b573      	push	{r0, r1, r4, r5, r6, lr}
 80013ca:	4812      	ldr	r0, [pc, #72]	; (8001414 <display_SendMess+0x4c>)
 80013cc:	4e12      	ldr	r6, [pc, #72]	; (8001418 <display_SendMess+0x50>)
 80013ce:	4c11      	ldr	r4, [pc, #68]	; (8001414 <display_SendMess+0x4c>)
 80013d0:	4d12      	ldr	r5, [pc, #72]	; (800141c <display_SendMess+0x54>)
 80013d2:	f002 fd4f 	bl	8003e74 <u8g2_FirstPage>
 80013d6:	2320      	movs	r3, #32
 80013d8:	9300      	str	r3, [sp, #0]
 80013da:	2200      	movs	r2, #0
 80013dc:	2105      	movs	r1, #5
 80013de:	4620      	mov	r0, r4
 80013e0:	9601      	str	r6, [sp, #4]
 80013e2:	f002 fcdf 	bl	8003da4 <u8g2_DrawXBM>
 80013e6:	4629      	mov	r1, r5
 80013e8:	4620      	mov	r0, r4
 80013ea:	f003 f805 	bl	80043f8 <u8g2_SetFont>
 80013ee:	4b0c      	ldr	r3, [pc, #48]	; (8001420 <display_SendMess+0x58>)
 80013f0:	220d      	movs	r2, #13
 80013f2:	2132      	movs	r1, #50	; 0x32
 80013f4:	4620      	mov	r0, r4
 80013f6:	f002 ffc3 	bl	8004380 <u8g2_DrawStr>
 80013fa:	4b0a      	ldr	r3, [pc, #40]	; (8001424 <display_SendMess+0x5c>)
 80013fc:	221e      	movs	r2, #30
 80013fe:	2132      	movs	r1, #50	; 0x32
 8001400:	4620      	mov	r0, r4
 8001402:	f002 ffbd 	bl	8004380 <u8g2_DrawStr>
 8001406:	4620      	mov	r0, r4
 8001408:	f002 fd41 	bl	8003e8e <u8g2_NextPage>
 800140c:	2800      	cmp	r0, #0
 800140e:	d1e2      	bne.n	80013d6 <display_SendMess+0xe>
 8001410:	b002      	add	sp, #8
 8001412:	bd70      	pop	{r4, r5, r6, pc}
 8001414:	20001888 	.word	0x20001888
 8001418:	20000540 	.word	0x20000540
 800141c:	0800f8d4 	.word	0x0800f8d4
 8001420:	0800e6dd 	.word	0x0800e6dd
 8001424:	0800e689 	.word	0x0800e689

08001428 <display_Alerte>:
 8001428:	b510      	push	{r4, lr}
 800142a:	4930      	ldr	r1, [pc, #192]	; (80014ec <display_Alerte+0xc4>)
 800142c:	b088      	sub	sp, #32
 800142e:	4604      	mov	r4, r0
 8001430:	482f      	ldr	r0, [pc, #188]	; (80014f0 <display_Alerte+0xc8>)
 8001432:	f002 ffe1 	bl	80043f8 <u8g2_SetFont>
 8001436:	4b2f      	ldr	r3, [pc, #188]	; (80014f4 <display_Alerte+0xcc>)
 8001438:	781b      	ldrb	r3, [r3, #0]
 800143a:	2b01      	cmp	r3, #1
 800143c:	d117      	bne.n	800146e <display_Alerte+0x46>
 800143e:	492b      	ldr	r1, [pc, #172]	; (80014ec <display_Alerte+0xc4>)
 8001440:	482b      	ldr	r0, [pc, #172]	; (80014f0 <display_Alerte+0xc8>)
 8001442:	f002 ffd9 	bl	80043f8 <u8g2_SetFont>
 8001446:	4b2c      	ldr	r3, [pc, #176]	; (80014f8 <display_Alerte+0xd0>)
 8001448:	4829      	ldr	r0, [pc, #164]	; (80014f0 <display_Alerte+0xc8>)
 800144a:	2214      	movs	r2, #20
 800144c:	2100      	movs	r1, #0
 800144e:	f002 ff97 	bl	8004380 <u8g2_DrawStr>
 8001452:	f8d4 2138 	ldr.w	r2, [r4, #312]	; 0x138
 8001456:	4929      	ldr	r1, [pc, #164]	; (80014fc <display_Alerte+0xd4>)
 8001458:	a801      	add	r0, sp, #4
 800145a:	f00a fd3d 	bl	800bed8 <siprintf>
 800145e:	ab01      	add	r3, sp, #4
 8001460:	221e      	movs	r2, #30
 8001462:	2100      	movs	r1, #0
 8001464:	4822      	ldr	r0, [pc, #136]	; (80014f0 <display_Alerte+0xc8>)
 8001466:	f002 ff8b 	bl	8004380 <u8g2_DrawStr>
 800146a:	b008      	add	sp, #32
 800146c:	bd10      	pop	{r4, pc}
 800146e:	f8d4 30ac 	ldr.w	r3, [r4, #172]	; 0xac
 8001472:	2b01      	cmp	r3, #1
 8001474:	d103      	bne.n	800147e <display_Alerte+0x56>
 8001476:	4b22      	ldr	r3, [pc, #136]	; (8001500 <display_Alerte+0xd8>)
 8001478:	221e      	movs	r2, #30
 800147a:	2102      	movs	r1, #2
 800147c:	e7f2      	b.n	8001464 <display_Alerte+0x3c>
 800147e:	f8d4 30a8 	ldr.w	r3, [r4, #168]	; 0xa8
 8001482:	3b06      	subs	r3, #6
 8001484:	2b08      	cmp	r3, #8
 8001486:	d80a      	bhi.n	800149e <display_Alerte+0x76>
 8001488:	f004 fce8 	bl	8005e5c <HAL_GetTick>
 800148c:	4b1d      	ldr	r3, [pc, #116]	; (8001504 <display_Alerte+0xdc>)
 800148e:	695b      	ldr	r3, [r3, #20]
 8001490:	1ac0      	subs	r0, r0, r3
 8001492:	f242 730f 	movw	r3, #9999	; 0x270f
 8001496:	4298      	cmp	r0, r3
 8001498:	d801      	bhi.n	800149e <display_Alerte+0x76>
 800149a:	4b1b      	ldr	r3, [pc, #108]	; (8001508 <display_Alerte+0xe0>)
 800149c:	e7ec      	b.n	8001478 <display_Alerte+0x50>
 800149e:	f8d4 30a8 	ldr.w	r3, [r4, #168]	; 0xa8
 80014a2:	2b04      	cmp	r3, #4
 80014a4:	dc0a      	bgt.n	80014bc <display_Alerte+0x94>
 80014a6:	f004 fcd9 	bl	8005e5c <HAL_GetTick>
 80014aa:	4b16      	ldr	r3, [pc, #88]	; (8001504 <display_Alerte+0xdc>)
 80014ac:	695b      	ldr	r3, [r3, #20]
 80014ae:	1ac0      	subs	r0, r0, r3
 80014b0:	f242 730f 	movw	r3, #9999	; 0x270f
 80014b4:	4298      	cmp	r0, r3
 80014b6:	d801      	bhi.n	80014bc <display_Alerte+0x94>
 80014b8:	4b14      	ldr	r3, [pc, #80]	; (800150c <display_Alerte+0xe4>)
 80014ba:	e7dd      	b.n	8001478 <display_Alerte+0x50>
 80014bc:	f8d4 30a0 	ldr.w	r3, [r4, #160]	; 0xa0
 80014c0:	2b01      	cmp	r3, #1
 80014c2:	d101      	bne.n	80014c8 <display_Alerte+0xa0>
 80014c4:	4b12      	ldr	r3, [pc, #72]	; (8001510 <display_Alerte+0xe8>)
 80014c6:	e7d7      	b.n	8001478 <display_Alerte+0x50>
 80014c8:	6863      	ldr	r3, [r4, #4]
 80014ca:	2b01      	cmp	r3, #1
 80014cc:	d003      	beq.n	80014d6 <display_Alerte+0xae>
 80014ce:	f8d4 20f0 	ldr.w	r2, [r4, #240]	; 0xf0
 80014d2:	2a01      	cmp	r2, #1
 80014d4:	d101      	bne.n	80014da <display_Alerte+0xb2>
 80014d6:	4b0f      	ldr	r3, [pc, #60]	; (8001514 <display_Alerte+0xec>)
 80014d8:	e7ce      	b.n	8001478 <display_Alerte+0x50>
 80014da:	b923      	cbnz	r3, 80014e6 <display_Alerte+0xbe>
 80014dc:	f8d4 308c 	ldr.w	r3, [r4, #140]	; 0x8c
 80014e0:	b90b      	cbnz	r3, 80014e6 <display_Alerte+0xbe>
 80014e2:	4b0d      	ldr	r3, [pc, #52]	; (8001518 <display_Alerte+0xf0>)
 80014e4:	e7c8      	b.n	8001478 <display_Alerte+0x50>
 80014e6:	4b0d      	ldr	r3, [pc, #52]	; (800151c <display_Alerte+0xf4>)
 80014e8:	e7c6      	b.n	8001478 <display_Alerte+0x50>
 80014ea:	bf00      	nop
 80014ec:	0800f8d4 	.word	0x0800f8d4
 80014f0:	20001888 	.word	0x20001888
 80014f4:	2000094b 	.word	0x2000094b
 80014f8:	0800e6e3 	.word	0x0800e6e3
 80014fc:	0800e6f5 	.word	0x0800e6f5
 8001500:	0800e709 	.word	0x0800e709
 8001504:	20001a3c 	.word	0x20001a3c
 8001508:	0800e71d 	.word	0x0800e71d
 800150c:	0800e72d 	.word	0x0800e72d
 8001510:	0800e742 	.word	0x0800e742
 8001514:	0800e754 	.word	0x0800e754
 8001518:	0800e765 	.word	0x0800e765
 800151c:	0800e76d 	.word	0x0800e76d

08001520 <display_wait>:
 8001520:	b573      	push	{r0, r1, r4, r5, r6, lr}
 8001522:	3801      	subs	r0, #1
 8001524:	2807      	cmp	r0, #7
 8001526:	d82c      	bhi.n	8001582 <display_wait+0x62>
 8001528:	e8df f010 	tbh	[pc, r0, lsl #1]
 800152c:	002d0008 	.word	0x002d0008
 8001530:	00750051 	.word	0x00750051
 8001534:	00bd0099 	.word	0x00bd0099
 8001538:	00ff00e1 	.word	0x00ff00e1
 800153c:	488a      	ldr	r0, [pc, #552]	; (8001768 <display_wait+0x248>)
 800153e:	4e8b      	ldr	r6, [pc, #556]	; (800176c <display_wait+0x24c>)
 8001540:	4c89      	ldr	r4, [pc, #548]	; (8001768 <display_wait+0x248>)
 8001542:	4d8b      	ldr	r5, [pc, #556]	; (8001770 <display_wait+0x250>)
 8001544:	f002 fc96 	bl	8003e74 <u8g2_FirstPage>
 8001548:	2320      	movs	r3, #32
 800154a:	2200      	movs	r2, #0
 800154c:	4611      	mov	r1, r2
 800154e:	9300      	str	r3, [sp, #0]
 8001550:	4620      	mov	r0, r4
 8001552:	9601      	str	r6, [sp, #4]
 8001554:	f002 fc26 	bl	8003da4 <u8g2_DrawXBM>
 8001558:	4629      	mov	r1, r5
 800155a:	4620      	mov	r0, r4
 800155c:	f002 ff4c 	bl	80043f8 <u8g2_SetFont>
 8001560:	4b84      	ldr	r3, [pc, #528]	; (8001774 <display_wait+0x254>)
 8001562:	220c      	movs	r2, #12
 8001564:	212d      	movs	r1, #45	; 0x2d
 8001566:	4620      	mov	r0, r4
 8001568:	f002 ff0a 	bl	8004380 <u8g2_DrawStr>
 800156c:	4b82      	ldr	r3, [pc, #520]	; (8001778 <display_wait+0x258>)
 800156e:	221c      	movs	r2, #28
 8001570:	2132      	movs	r1, #50	; 0x32
 8001572:	4620      	mov	r0, r4
 8001574:	f002 ff04 	bl	8004380 <u8g2_DrawStr>
 8001578:	4620      	mov	r0, r4
 800157a:	f002 fc88 	bl	8003e8e <u8g2_NextPage>
 800157e:	2800      	cmp	r0, #0
 8001580:	d1e2      	bne.n	8001548 <display_wait+0x28>
 8001582:	b002      	add	sp, #8
 8001584:	bd70      	pop	{r4, r5, r6, pc}
 8001586:	4878      	ldr	r0, [pc, #480]	; (8001768 <display_wait+0x248>)
 8001588:	4e7c      	ldr	r6, [pc, #496]	; (800177c <display_wait+0x25c>)
 800158a:	4c77      	ldr	r4, [pc, #476]	; (8001768 <display_wait+0x248>)
 800158c:	4d78      	ldr	r5, [pc, #480]	; (8001770 <display_wait+0x250>)
 800158e:	f002 fc71 	bl	8003e74 <u8g2_FirstPage>
 8001592:	2320      	movs	r3, #32
 8001594:	2200      	movs	r2, #0
 8001596:	4611      	mov	r1, r2
 8001598:	9300      	str	r3, [sp, #0]
 800159a:	4620      	mov	r0, r4
 800159c:	9601      	str	r6, [sp, #4]
 800159e:	f002 fc01 	bl	8003da4 <u8g2_DrawXBM>
 80015a2:	4629      	mov	r1, r5
 80015a4:	4620      	mov	r0, r4
 80015a6:	f002 ff27 	bl	80043f8 <u8g2_SetFont>
 80015aa:	4b72      	ldr	r3, [pc, #456]	; (8001774 <display_wait+0x254>)
 80015ac:	220c      	movs	r2, #12
 80015ae:	212d      	movs	r1, #45	; 0x2d
 80015b0:	4620      	mov	r0, r4
 80015b2:	f002 fee5 	bl	8004380 <u8g2_DrawStr>
 80015b6:	4b70      	ldr	r3, [pc, #448]	; (8001778 <display_wait+0x258>)
 80015b8:	221c      	movs	r2, #28
 80015ba:	2132      	movs	r1, #50	; 0x32
 80015bc:	4620      	mov	r0, r4
 80015be:	f002 fedf 	bl	8004380 <u8g2_DrawStr>
 80015c2:	4620      	mov	r0, r4
 80015c4:	f002 fc63 	bl	8003e8e <u8g2_NextPage>
 80015c8:	2800      	cmp	r0, #0
 80015ca:	d1e2      	bne.n	8001592 <display_wait+0x72>
 80015cc:	e7d9      	b.n	8001582 <display_wait+0x62>
 80015ce:	4866      	ldr	r0, [pc, #408]	; (8001768 <display_wait+0x248>)
 80015d0:	4e6b      	ldr	r6, [pc, #428]	; (8001780 <display_wait+0x260>)
 80015d2:	4c65      	ldr	r4, [pc, #404]	; (8001768 <display_wait+0x248>)
 80015d4:	4d66      	ldr	r5, [pc, #408]	; (8001770 <display_wait+0x250>)
 80015d6:	f002 fc4d 	bl	8003e74 <u8g2_FirstPage>
 80015da:	2320      	movs	r3, #32
 80015dc:	2200      	movs	r2, #0
 80015de:	4611      	mov	r1, r2
 80015e0:	9300      	str	r3, [sp, #0]
 80015e2:	4620      	mov	r0, r4
 80015e4:	9601      	str	r6, [sp, #4]
 80015e6:	f002 fbdd 	bl	8003da4 <u8g2_DrawXBM>
 80015ea:	4629      	mov	r1, r5
 80015ec:	4620      	mov	r0, r4
 80015ee:	f002 ff03 	bl	80043f8 <u8g2_SetFont>
 80015f2:	4b60      	ldr	r3, [pc, #384]	; (8001774 <display_wait+0x254>)
 80015f4:	220c      	movs	r2, #12
 80015f6:	212d      	movs	r1, #45	; 0x2d
 80015f8:	4620      	mov	r0, r4
 80015fa:	f002 fec1 	bl	8004380 <u8g2_DrawStr>
 80015fe:	4b61      	ldr	r3, [pc, #388]	; (8001784 <display_wait+0x264>)
 8001600:	221c      	movs	r2, #28
 8001602:	2132      	movs	r1, #50	; 0x32
 8001604:	4620      	mov	r0, r4
 8001606:	f002 febb 	bl	8004380 <u8g2_DrawStr>
 800160a:	4620      	mov	r0, r4
 800160c:	f002 fc3f 	bl	8003e8e <u8g2_NextPage>
 8001610:	2800      	cmp	r0, #0
 8001612:	d1e2      	bne.n	80015da <display_wait+0xba>
 8001614:	e7b5      	b.n	8001582 <display_wait+0x62>
 8001616:	4854      	ldr	r0, [pc, #336]	; (8001768 <display_wait+0x248>)
 8001618:	4e5b      	ldr	r6, [pc, #364]	; (8001788 <display_wait+0x268>)
 800161a:	4c53      	ldr	r4, [pc, #332]	; (8001768 <display_wait+0x248>)
 800161c:	4d54      	ldr	r5, [pc, #336]	; (8001770 <display_wait+0x250>)
 800161e:	f002 fc29 	bl	8003e74 <u8g2_FirstPage>
 8001622:	2320      	movs	r3, #32
 8001624:	2200      	movs	r2, #0
 8001626:	4611      	mov	r1, r2
 8001628:	9300      	str	r3, [sp, #0]
 800162a:	4620      	mov	r0, r4
 800162c:	9601      	str	r6, [sp, #4]
 800162e:	f002 fbb9 	bl	8003da4 <u8g2_DrawXBM>
 8001632:	4629      	mov	r1, r5
 8001634:	4620      	mov	r0, r4
 8001636:	f002 fedf 	bl	80043f8 <u8g2_SetFont>
 800163a:	4b4e      	ldr	r3, [pc, #312]	; (8001774 <display_wait+0x254>)
 800163c:	220c      	movs	r2, #12
 800163e:	212d      	movs	r1, #45	; 0x2d
 8001640:	4620      	mov	r0, r4
 8001642:	f002 fe9d 	bl	8004380 <u8g2_DrawStr>
 8001646:	4b4f      	ldr	r3, [pc, #316]	; (8001784 <display_wait+0x264>)
 8001648:	221c      	movs	r2, #28
 800164a:	2132      	movs	r1, #50	; 0x32
 800164c:	4620      	mov	r0, r4
 800164e:	f002 fe97 	bl	8004380 <u8g2_DrawStr>
 8001652:	4620      	mov	r0, r4
 8001654:	f002 fc1b 	bl	8003e8e <u8g2_NextPage>
 8001658:	2800      	cmp	r0, #0
 800165a:	d1e2      	bne.n	8001622 <display_wait+0x102>
 800165c:	e791      	b.n	8001582 <display_wait+0x62>
 800165e:	4842      	ldr	r0, [pc, #264]	; (8001768 <display_wait+0x248>)
 8001660:	4e4a      	ldr	r6, [pc, #296]	; (800178c <display_wait+0x26c>)
 8001662:	4c41      	ldr	r4, [pc, #260]	; (8001768 <display_wait+0x248>)
 8001664:	4d42      	ldr	r5, [pc, #264]	; (8001770 <display_wait+0x250>)
 8001666:	f002 fc05 	bl	8003e74 <u8g2_FirstPage>
 800166a:	2320      	movs	r3, #32
 800166c:	2200      	movs	r2, #0
 800166e:	4611      	mov	r1, r2
 8001670:	9300      	str	r3, [sp, #0]
 8001672:	4620      	mov	r0, r4
 8001674:	9601      	str	r6, [sp, #4]
 8001676:	f002 fb95 	bl	8003da4 <u8g2_DrawXBM>
 800167a:	4629      	mov	r1, r5
 800167c:	4620      	mov	r0, r4
 800167e:	f002 febb 	bl	80043f8 <u8g2_SetFont>
 8001682:	4b3c      	ldr	r3, [pc, #240]	; (8001774 <display_wait+0x254>)
 8001684:	220c      	movs	r2, #12
 8001686:	212d      	movs	r1, #45	; 0x2d
 8001688:	4620      	mov	r0, r4
 800168a:	f002 fe79 	bl	8004380 <u8g2_DrawStr>
 800168e:	4b40      	ldr	r3, [pc, #256]	; (8001790 <display_wait+0x270>)
 8001690:	221c      	movs	r2, #28
 8001692:	2132      	movs	r1, #50	; 0x32
 8001694:	4620      	mov	r0, r4
 8001696:	f002 fe73 	bl	8004380 <u8g2_DrawStr>
 800169a:	4620      	mov	r0, r4
 800169c:	f002 fbf7 	bl	8003e8e <u8g2_NextPage>
 80016a0:	2800      	cmp	r0, #0
 80016a2:	d1e2      	bne.n	800166a <display_wait+0x14a>
 80016a4:	e76d      	b.n	8001582 <display_wait+0x62>
 80016a6:	4830      	ldr	r0, [pc, #192]	; (8001768 <display_wait+0x248>)
 80016a8:	4e3a      	ldr	r6, [pc, #232]	; (8001794 <display_wait+0x274>)
 80016aa:	4c2f      	ldr	r4, [pc, #188]	; (8001768 <display_wait+0x248>)
 80016ac:	4d30      	ldr	r5, [pc, #192]	; (8001770 <display_wait+0x250>)
 80016ae:	f002 fbe1 	bl	8003e74 <u8g2_FirstPage>
 80016b2:	2320      	movs	r3, #32
 80016b4:	2200      	movs	r2, #0
 80016b6:	4611      	mov	r1, r2
 80016b8:	9300      	str	r3, [sp, #0]
 80016ba:	4620      	mov	r0, r4
 80016bc:	9601      	str	r6, [sp, #4]
 80016be:	f002 fb71 	bl	8003da4 <u8g2_DrawXBM>
 80016c2:	4629      	mov	r1, r5
 80016c4:	4620      	mov	r0, r4
 80016c6:	f002 fe97 	bl	80043f8 <u8g2_SetFont>
 80016ca:	4b2a      	ldr	r3, [pc, #168]	; (8001774 <display_wait+0x254>)
 80016cc:	220c      	movs	r2, #12
 80016ce:	212d      	movs	r1, #45	; 0x2d
 80016d0:	4620      	mov	r0, r4
 80016d2:	f002 fe55 	bl	8004380 <u8g2_DrawStr>
 80016d6:	4b2e      	ldr	r3, [pc, #184]	; (8001790 <display_wait+0x270>)
 80016d8:	221c      	movs	r2, #28
 80016da:	2132      	movs	r1, #50	; 0x32
 80016dc:	4620      	mov	r0, r4
 80016de:	f002 fe4f 	bl	8004380 <u8g2_DrawStr>
 80016e2:	4620      	mov	r0, r4
 80016e4:	f002 fbd3 	bl	8003e8e <u8g2_NextPage>
 80016e8:	2800      	cmp	r0, #0
 80016ea:	d1e2      	bne.n	80016b2 <display_wait+0x192>
 80016ec:	e749      	b.n	8001582 <display_wait+0x62>
 80016ee:	481e      	ldr	r0, [pc, #120]	; (8001768 <display_wait+0x248>)
 80016f0:	4e29      	ldr	r6, [pc, #164]	; (8001798 <display_wait+0x278>)
 80016f2:	4c1d      	ldr	r4, [pc, #116]	; (8001768 <display_wait+0x248>)
 80016f4:	4d1e      	ldr	r5, [pc, #120]	; (8001770 <display_wait+0x250>)
 80016f6:	f002 fbbd 	bl	8003e74 <u8g2_FirstPage>
 80016fa:	2320      	movs	r3, #32
 80016fc:	2200      	movs	r2, #0
 80016fe:	4611      	mov	r1, r2
 8001700:	9300      	str	r3, [sp, #0]
 8001702:	4620      	mov	r0, r4
 8001704:	9601      	str	r6, [sp, #4]
 8001706:	f002 fb4d 	bl	8003da4 <u8g2_DrawXBM>
 800170a:	4629      	mov	r1, r5
 800170c:	4620      	mov	r0, r4
 800170e:	f002 fe73 	bl	80043f8 <u8g2_SetFont>
 8001712:	4b18      	ldr	r3, [pc, #96]	; (8001774 <display_wait+0x254>)
 8001714:	2214      	movs	r2, #20
 8001716:	2128      	movs	r1, #40	; 0x28
 8001718:	4620      	mov	r0, r4
 800171a:	f002 fe31 	bl	8004380 <u8g2_DrawStr>
 800171e:	4620      	mov	r0, r4
 8001720:	f002 fbb5 	bl	8003e8e <u8g2_NextPage>
 8001724:	2800      	cmp	r0, #0
 8001726:	d1e8      	bne.n	80016fa <display_wait+0x1da>
 8001728:	e72b      	b.n	8001582 <display_wait+0x62>
 800172a:	480f      	ldr	r0, [pc, #60]	; (8001768 <display_wait+0x248>)
 800172c:	4e1b      	ldr	r6, [pc, #108]	; (800179c <display_wait+0x27c>)
 800172e:	4c0e      	ldr	r4, [pc, #56]	; (8001768 <display_wait+0x248>)
 8001730:	4d0f      	ldr	r5, [pc, #60]	; (8001770 <display_wait+0x250>)
 8001732:	f002 fb9f 	bl	8003e74 <u8g2_FirstPage>
 8001736:	2320      	movs	r3, #32
 8001738:	2200      	movs	r2, #0
 800173a:	4611      	mov	r1, r2
 800173c:	9300      	str	r3, [sp, #0]
 800173e:	4620      	mov	r0, r4
 8001740:	9601      	str	r6, [sp, #4]
 8001742:	f002 fb2f 	bl	8003da4 <u8g2_DrawXBM>
 8001746:	4629      	mov	r1, r5
 8001748:	4620      	mov	r0, r4
 800174a:	f002 fe55 	bl	80043f8 <u8g2_SetFont>
 800174e:	4b09      	ldr	r3, [pc, #36]	; (8001774 <display_wait+0x254>)
 8001750:	2214      	movs	r2, #20
 8001752:	2128      	movs	r1, #40	; 0x28
 8001754:	4620      	mov	r0, r4
 8001756:	f002 fe13 	bl	8004380 <u8g2_DrawStr>
 800175a:	4620      	mov	r0, r4
 800175c:	f002 fb97 	bl	8003e8e <u8g2_NextPage>
 8001760:	2800      	cmp	r0, #0
 8001762:	d1e8      	bne.n	8001736 <display_wait+0x216>
 8001764:	e70d      	b.n	8001582 <display_wait+0x62>
 8001766:	bf00      	nop
 8001768:	20001888 	.word	0x20001888
 800176c:	2000012c 	.word	0x2000012c
 8001770:	0800f8d4 	.word	0x0800f8d4
 8001774:	0800e772 	.word	0x0800e772
 8001778:	0800e77d 	.word	0x0800e77d
 800177c:	200001ac 	.word	0x200001ac
 8001780:	2000022c 	.word	0x2000022c
 8001784:	0800e786 	.word	0x0800e786
 8001788:	200002ac 	.word	0x200002ac
 800178c:	2000032c 	.word	0x2000032c
 8001790:	0800e78f 	.word	0x0800e78f
 8001794:	200003ac 	.word	0x200003ac
 8001798:	2000042c 	.word	0x2000042c
 800179c:	200004ac 	.word	0x200004ac

080017a0 <display_Print>:
 80017a0:	b570      	push	{r4, r5, r6, lr}
 80017a2:	4605      	mov	r5, r0
 80017a4:	480a      	ldr	r0, [pc, #40]	; (80017d0 <display_Print+0x30>)
 80017a6:	4e0b      	ldr	r6, [pc, #44]	; (80017d4 <display_Print+0x34>)
 80017a8:	4c09      	ldr	r4, [pc, #36]	; (80017d0 <display_Print+0x30>)
 80017aa:	f002 fb63 	bl	8003e74 <u8g2_FirstPage>
 80017ae:	4631      	mov	r1, r6
 80017b0:	4620      	mov	r0, r4
 80017b2:	f002 fe21 	bl	80043f8 <u8g2_SetFont>
 80017b6:	462b      	mov	r3, r5
 80017b8:	220f      	movs	r2, #15
 80017ba:	2100      	movs	r1, #0
 80017bc:	4620      	mov	r0, r4
 80017be:	f002 fddf 	bl	8004380 <u8g2_DrawStr>
 80017c2:	4620      	mov	r0, r4
 80017c4:	f002 fb63 	bl	8003e8e <u8g2_NextPage>
 80017c8:	2800      	cmp	r0, #0
 80017ca:	d1f0      	bne.n	80017ae <display_Print+0xe>
 80017cc:	bd70      	pop	{r4, r5, r6, pc}
 80017ce:	bf00      	nop
 80017d0:	20001888 	.word	0x20001888
 80017d4:	0800f083 	.word	0x0800f083

080017d8 <display_BatteryLvl>:
 80017d8:	280a      	cmp	r0, #10
 80017da:	b507      	push	{r0, r1, r2, lr}
 80017dc:	d80b      	bhi.n	80017f6 <display_BatteryLvl+0x1e>
 80017de:	4b16      	ldr	r3, [pc, #88]	; (8001838 <display_BatteryLvl+0x60>)
 80017e0:	9301      	str	r3, [sp, #4]
 80017e2:	230c      	movs	r3, #12
 80017e4:	9300      	str	r3, [sp, #0]
 80017e6:	4815      	ldr	r0, [pc, #84]	; (800183c <display_BatteryLvl+0x64>)
 80017e8:	2314      	movs	r3, #20
 80017ea:	2200      	movs	r2, #0
 80017ec:	f002 fada 	bl	8003da4 <u8g2_DrawXBM>
 80017f0:	b003      	add	sp, #12
 80017f2:	f85d fb04 	ldr.w	pc, [sp], #4
 80017f6:	f1a0 030b 	sub.w	r3, r0, #11
 80017fa:	2b12      	cmp	r3, #18
 80017fc:	d801      	bhi.n	8001802 <display_BatteryLvl+0x2a>
 80017fe:	4b10      	ldr	r3, [pc, #64]	; (8001840 <display_BatteryLvl+0x68>)
 8001800:	e7ee      	b.n	80017e0 <display_BatteryLvl+0x8>
 8001802:	f1a0 031e 	sub.w	r3, r0, #30
 8001806:	2b13      	cmp	r3, #19
 8001808:	d801      	bhi.n	800180e <display_BatteryLvl+0x36>
 800180a:	4b0e      	ldr	r3, [pc, #56]	; (8001844 <display_BatteryLvl+0x6c>)
 800180c:	e7e8      	b.n	80017e0 <display_BatteryLvl+0x8>
 800180e:	f1a0 0332 	sub.w	r3, r0, #50	; 0x32
 8001812:	2b13      	cmp	r3, #19
 8001814:	d801      	bhi.n	800181a <display_BatteryLvl+0x42>
 8001816:	4b0c      	ldr	r3, [pc, #48]	; (8001848 <display_BatteryLvl+0x70>)
 8001818:	e7e2      	b.n	80017e0 <display_BatteryLvl+0x8>
 800181a:	f1a0 0346 	sub.w	r3, r0, #70	; 0x46
 800181e:	2b13      	cmp	r3, #19
 8001820:	d801      	bhi.n	8001826 <display_BatteryLvl+0x4e>
 8001822:	4b0a      	ldr	r3, [pc, #40]	; (800184c <display_BatteryLvl+0x74>)
 8001824:	e7dc      	b.n	80017e0 <display_BatteryLvl+0x8>
 8001826:	385a      	subs	r0, #90	; 0x5a
 8001828:	280a      	cmp	r0, #10
 800182a:	bf94      	ite	ls
 800182c:	4a08      	ldrls	r2, [pc, #32]	; (8001850 <display_BatteryLvl+0x78>)
 800182e:	4a09      	ldrhi	r2, [pc, #36]	; (8001854 <display_BatteryLvl+0x7c>)
 8001830:	9201      	str	r2, [sp, #4]
 8001832:	230c      	movs	r3, #12
 8001834:	e7d6      	b.n	80017e4 <display_BatteryLvl+0xc>
 8001836:	bf00      	nop
 8001838:	20000024 	.word	0x20000024
 800183c:	20001888 	.word	0x20001888
 8001840:	2000006c 	.word	0x2000006c
 8001844:	20000090 	.word	0x20000090
 8001848:	200000b4 	.word	0x200000b4
 800184c:	200000d8 	.word	0x200000d8
 8001850:	20000048 	.word	0x20000048
 8001854:	20000000 	.word	0x20000000

08001858 <display_dco>:
 8001858:	e92d 41f0 	stmdb	sp!, {r4, r5, r6, r7, r8, lr}
 800185c:	461f      	mov	r7, r3
 800185e:	4b79      	ldr	r3, [pc, #484]	; (8001a44 <display_dco+0x1ec>)
 8001860:	b0b2      	sub	sp, #200	; 0xc8
 8001862:	4680      	mov	r8, r0
 8001864:	6818      	ldr	r0, [r3, #0]
 8001866:	791b      	ldrb	r3, [r3, #4]
 8001868:	f88d 3018 	strb.w	r3, [sp, #24]
 800186c:	4b76      	ldr	r3, [pc, #472]	; (8001a48 <display_dco+0x1f0>)
 800186e:	9005      	str	r0, [sp, #20]
 8001870:	4616      	mov	r6, r2
 8001872:	881a      	ldrh	r2, [r3, #0]
 8001874:	789b      	ldrb	r3, [r3, #2]
 8001876:	f88d 3006 	strb.w	r3, [sp, #6]
 800187a:	4b74      	ldr	r3, [pc, #464]	; (8001a4c <display_dco+0x1f4>)
 800187c:	f8ad 2004 	strh.w	r2, [sp, #4]
 8001880:	6818      	ldr	r0, [r3, #0]
 8001882:	791b      	ldrb	r3, [r3, #4]
 8001884:	4a72      	ldr	r2, [pc, #456]	; (8001a50 <display_dco+0x1f8>)
 8001886:	f88d 3020 	strb.w	r3, [sp, #32]
 800188a:	4b72      	ldr	r3, [pc, #456]	; (8001a54 <display_dco+0x1fc>)
 800188c:	9007      	str	r0, [sp, #28]
 800188e:	e9cd 2302 	strd	r2, r3, [sp, #8]
 8001892:	4b71      	ldr	r3, [pc, #452]	; (8001a58 <display_dco+0x200>)
 8001894:	2400      	movs	r4, #0
 8001896:	6818      	ldr	r0, [r3, #0]
 8001898:	889b      	ldrh	r3, [r3, #4]
 800189a:	9009      	str	r0, [sp, #36]	; 0x24
 800189c:	460d      	mov	r5, r1
 800189e:	f8ad 3028 	strh.w	r3, [sp, #40]	; 0x28
 80018a2:	221a      	movs	r2, #26
 80018a4:	4b6d      	ldr	r3, [pc, #436]	; (8001a5c <display_dco+0x204>)
 80018a6:	9304      	str	r3, [sp, #16]
 80018a8:	4621      	mov	r1, r4
 80018aa:	a813      	add	r0, sp, #76	; 0x4c
 80018ac:	9412      	str	r4, [sp, #72]	; 0x48
 80018ae:	f009 fe33 	bl	800b518 <memset>
 80018b2:	221a      	movs	r2, #26
 80018b4:	4621      	mov	r1, r4
 80018b6:	a81b      	add	r0, sp, #108	; 0x6c
 80018b8:	941a      	str	r4, [sp, #104]	; 0x68
 80018ba:	f009 fe2d 	bl	800b518 <memset>
 80018be:	221a      	movs	r2, #26
 80018c0:	4621      	mov	r1, r4
 80018c2:	a823      	add	r0, sp, #140	; 0x8c
 80018c4:	9422      	str	r4, [sp, #136]	; 0x88
 80018c6:	f009 fe27 	bl	800b518 <memset>
 80018ca:	221a      	movs	r2, #26
 80018cc:	4621      	mov	r1, r4
 80018ce:	a82b      	add	r0, sp, #172	; 0xac
 80018d0:	942a      	str	r4, [sp, #168]	; 0xa8
 80018d2:	f009 fe21 	bl	800b518 <memset>
 80018d6:	4962      	ldr	r1, [pc, #392]	; (8001a60 <display_dco+0x208>)
 80018d8:	940b      	str	r4, [sp, #44]	; 0x2c
 80018da:	a812      	add	r0, sp, #72	; 0x48
 80018dc:	f8ad 4030 	strh.w	r4, [sp, #48]	; 0x30
 80018e0:	f00a fb1a 	bl	800bf18 <strcat>
 80018e4:	9939      	ldr	r1, [sp, #228]	; 0xe4
 80018e6:	a812      	add	r0, sp, #72	; 0x48
 80018e8:	f00a fb16 	bl	800bf18 <strcat>
 80018ec:	a905      	add	r1, sp, #20
 80018ee:	a812      	add	r0, sp, #72	; 0x48
 80018f0:	f00a fb12 	bl	800bf18 <strcat>
 80018f4:	6a2b      	ldr	r3, [r5, #32]
 80018f6:	2b01      	cmp	r3, #1
 80018f8:	f040 808b 	bne.w	8001a12 <display_dco+0x1ba>
 80018fc:	a909      	add	r1, sp, #36	; 0x24
 80018fe:	a812      	add	r0, sp, #72	; 0x48
 8001900:	f00a fb0a 	bl	800bf18 <strcat>
 8001904:	4957      	ldr	r1, [pc, #348]	; (8001a64 <display_dco+0x20c>)
 8001906:	a81a      	add	r0, sp, #104	; 0x68
 8001908:	f00a fb06 	bl	800bf18 <strcat>
 800190c:	993a      	ldr	r1, [sp, #232]	; 0xe8
 800190e:	a81a      	add	r0, sp, #104	; 0x68
 8001910:	f00a fb02 	bl	800bf18 <strcat>
 8001914:	a901      	add	r1, sp, #4
 8001916:	a81a      	add	r0, sp, #104	; 0x68
 8001918:	f00a fafe 	bl	800bf18 <strcat>
 800191c:	6a6b      	ldr	r3, [r5, #36]	; 0x24
 800191e:	2b01      	cmp	r3, #1
 8001920:	d103      	bne.n	800192a <display_dco+0xd2>
 8001922:	a902      	add	r1, sp, #8
 8001924:	a81a      	add	r0, sp, #104	; 0x68
 8001926:	f00a faf7 	bl	800bf18 <strcat>
 800192a:	494f      	ldr	r1, [pc, #316]	; (8001a68 <display_dco+0x210>)
 800192c:	a822      	add	r0, sp, #136	; 0x88
 800192e:	f00a faf3 	bl	800bf18 <strcat>
 8001932:	993b      	ldr	r1, [sp, #236]	; 0xec
 8001934:	a822      	add	r0, sp, #136	; 0x88
 8001936:	f00a faef 	bl	800bf18 <strcat>
 800193a:	a905      	add	r1, sp, #20
 800193c:	a822      	add	r0, sp, #136	; 0x88
 800193e:	f00a faeb 	bl	800bf18 <strcat>
 8001942:	6aeb      	ldr	r3, [r5, #44]	; 0x2c
 8001944:	2b01      	cmp	r3, #1
 8001946:	d16a      	bne.n	8001a1e <display_dco+0x1c6>
 8001948:	a909      	add	r1, sp, #36	; 0x24
 800194a:	a822      	add	r0, sp, #136	; 0x88
 800194c:	f00a fae4 	bl	800bf18 <strcat>
 8001950:	4946      	ldr	r1, [pc, #280]	; (8001a6c <display_dco+0x214>)
 8001952:	a82a      	add	r0, sp, #168	; 0xa8
 8001954:	f00a fae0 	bl	800bf18 <strcat>
 8001958:	993c      	ldr	r1, [sp, #240]	; 0xf0
 800195a:	a82a      	add	r0, sp, #168	; 0xa8
 800195c:	f00a fadc 	bl	800bf18 <strcat>
 8001960:	a901      	add	r1, sp, #4
 8001962:	a82a      	add	r0, sp, #168	; 0xa8
 8001964:	f00a fad8 	bl	800bf18 <strcat>
 8001968:	6b2b      	ldr	r3, [r5, #48]	; 0x30
 800196a:	2b01      	cmp	r3, #1
 800196c:	d103      	bne.n	8001976 <display_dco+0x11e>
 800196e:	a903      	add	r1, sp, #12
 8001970:	a82a      	add	r0, sp, #168	; 0xa8
 8001972:	f00a fad1 	bl	800bf18 <strcat>
 8001976:	edd8 7a04 	vldr	s15, [r8, #16]
 800197a:	4b3d      	ldr	r3, [pc, #244]	; (8001a70 <display_dco+0x218>)
 800197c:	f8df 8120 	ldr.w	r8, [pc, #288]	; 8001aa0 <display_dco+0x248>
 8001980:	4c3c      	ldr	r4, [pc, #240]	; (8001a74 <display_dco+0x21c>)
 8001982:	4d3d      	ldr	r5, [pc, #244]	; (8001a78 <display_dco+0x220>)
 8001984:	eefc 7ae7 	vcvt.u32.f32	s15, s15
 8001988:	a80b      	add	r0, sp, #44	; 0x2c
 800198a:	ee17 1a90 	vmov	r1, s15
 800198e:	310a      	adds	r1, #10
 8001990:	b2ca      	uxtb	r2, r1
 8001992:	493a      	ldr	r1, [pc, #232]	; (8001a7c <display_dco+0x224>)
 8001994:	701a      	strb	r2, [r3, #0]
 8001996:	f00a fa9f 	bl	800bed8 <siprintf>
 800199a:	a904      	add	r1, sp, #16
 800199c:	a80b      	add	r0, sp, #44	; 0x2c
 800199e:	f00a fabb 	bl	800bf18 <strcat>
 80019a2:	4834      	ldr	r0, [pc, #208]	; (8001a74 <display_dco+0x21c>)
 80019a4:	f002 fa66 	bl	8003e74 <u8g2_FirstPage>
 80019a8:	4641      	mov	r1, r8
 80019aa:	4620      	mov	r0, r4
 80019ac:	f002 fd24 	bl	80043f8 <u8g2_SetFont>
 80019b0:	4b33      	ldr	r3, [pc, #204]	; (8001a80 <display_dco+0x228>)
 80019b2:	781b      	ldrb	r3, [r3, #0]
 80019b4:	2b64      	cmp	r3, #100	; 0x64
 80019b6:	d137      	bne.n	8001a28 <display_dco+0x1d0>
 80019b8:	4b32      	ldr	r3, [pc, #200]	; (8001a84 <display_dco+0x22c>)
 80019ba:	2208      	movs	r2, #8
 80019bc:	212d      	movs	r1, #45	; 0x2d
 80019be:	4620      	mov	r0, r4
 80019c0:	f002 fcde 	bl	8004380 <u8g2_DrawStr>
 80019c4:	f004 fa4a 	bl	8005e5c <HAL_GetTick>
 80019c8:	68fa      	ldr	r2, [r7, #12]
 80019ca:	4b2f      	ldr	r3, [pc, #188]	; (8001a88 <display_dco+0x230>)
 80019cc:	1a80      	subs	r0, r0, r2
 80019ce:	42a8      	cmp	r0, r5
 80019d0:	d832      	bhi.n	8001a38 <display_dco+0x1e0>
 80019d2:	2a00      	cmp	r2, #0
 80019d4:	d132      	bne.n	8001a3c <display_dco+0x1e4>
 80019d6:	701a      	strb	r2, [r3, #0]
 80019d8:	4b2c      	ldr	r3, [pc, #176]	; (8001a8c <display_dco+0x234>)
 80019da:	4632      	mov	r2, r6
 80019dc:	7818      	ldrb	r0, [r3, #0]
 80019de:	4639      	mov	r1, r7
 80019e0:	f7ff fb44 	bl	800106c <display_GPS_status>
 80019e4:	4b2a      	ldr	r3, [pc, #168]	; (8001a90 <display_dco+0x238>)
 80019e6:	2200      	movs	r2, #0
 80019e8:	7818      	ldrb	r0, [r3, #0]
 80019ea:	216c      	movs	r1, #108	; 0x6c
 80019ec:	f7ff fef4 	bl	80017d8 <display_BatteryLvl>
 80019f0:	4928      	ldr	r1, [pc, #160]	; (8001a94 <display_dco+0x23c>)
 80019f2:	4620      	mov	r0, r4
 80019f4:	f002 fd00 	bl	80043f8 <u8g2_SetFont>
 80019f8:	4b27      	ldr	r3, [pc, #156]	; (8001a98 <display_dco+0x240>)
 80019fa:	4630      	mov	r0, r6
 80019fc:	7819      	ldrb	r1, [r3, #0]
 80019fe:	f7ff fd13 	bl	8001428 <display_Alerte>
 8001a02:	4620      	mov	r0, r4
 8001a04:	f002 fa43 	bl	8003e8e <u8g2_NextPage>
 8001a08:	2800      	cmp	r0, #0
 8001a0a:	d1cd      	bne.n	80019a8 <display_dco+0x150>
 8001a0c:	b032      	add	sp, #200	; 0xc8
 8001a0e:	e8bd 81f0 	ldmia.w	sp!, {r4, r5, r6, r7, r8, pc}
 8001a12:	69eb      	ldr	r3, [r5, #28]
 8001a14:	2b01      	cmp	r3, #1
 8001a16:	f47f af75 	bne.w	8001904 <display_dco+0xac>
 8001a1a:	a907      	add	r1, sp, #28
 8001a1c:	e76f      	b.n	80018fe <display_dco+0xa6>
 8001a1e:	6aab      	ldr	r3, [r5, #40]	; 0x28
 8001a20:	2b01      	cmp	r3, #1
 8001a22:	d195      	bne.n	8001950 <display_dco+0xf8>
 8001a24:	a907      	add	r1, sp, #28
 8001a26:	e790      	b.n	800194a <display_dco+0xf2>
 8001a28:	f8d6 2168 	ldr.w	r2, [r6, #360]	; 0x168
 8001a2c:	491b      	ldr	r1, [pc, #108]	; (8001a9c <display_dco+0x244>)
 8001a2e:	a80d      	add	r0, sp, #52	; 0x34
 8001a30:	f00a fa52 	bl	800bed8 <siprintf>
 8001a34:	ab0d      	add	r3, sp, #52	; 0x34
 8001a36:	e7c0      	b.n	80019ba <display_dco+0x162>
 8001a38:	2200      	movs	r2, #0
 8001a3a:	e7cc      	b.n	80019d6 <display_dco+0x17e>
 8001a3c:	2201      	movs	r2, #1
 8001a3e:	701a      	strb	r2, [r3, #0]
 8001a40:	e7d0      	b.n	80019e4 <display_dco+0x18c>
 8001a42:	bf00      	nop
 8001a44:	0800e7a7 	.word	0x0800e7a7
 8001a48:	0800e7ac 	.word	0x0800e7ac
 8001a4c:	0800e7af 	.word	0x0800e7af
 8001a50:	003c3c20 	.word	0x003c3c20
 8001a54:	003e3e20 	.word	0x003e3e20
 8001a58:	0800e7b4 	.word	0x0800e7b4
 8001a5c:	00426420 	.word	0x00426420
 8001a60:	20000536 	.word	0x20000536
 8001a64:	2000053b 	.word	0x2000053b
 8001a68:	2000052c 	.word	0x2000052c
 8001a6c:	20000531 	.word	0x20000531
 8001a70:	200009f4 	.word	0x200009f4
 8001a74:	20001888 	.word	0x20001888
 8001a78:	01312d00 	.word	0x01312d00
 8001a7c:	0800e798 	.word	0x0800e798
 8001a80:	200009d7 	.word	0x200009d7
 8001a84:	0800e79b 	.word	0x0800e79b
 8001a88:	2000094b 	.word	0x2000094b
 8001a8c:	200009f5 	.word	0x200009f5
 8001a90:	200009df 	.word	0x200009df
 8001a94:	0800f8d4 	.word	0x0800f8d4
 8001a98:	200009da 	.word	0x200009da
 8001a9c:	0800e7a1 	.word	0x0800e7a1
 8001aa0:	0800e88c 	.word	0x0800e88c

08001aa4 <PowerBuzVib>:
 8001aa4:	b510      	push	{r4, lr}
 8001aa6:	4604      	mov	r4, r0
 8001aa8:	f000 fa5a 	bl	8001f60 <OutBuzOn>
 8001aac:	2001      	movs	r0, #1
 8001aae:	f000 fa29 	bl	8001f04 <OutMotorWu>
 8001ab2:	4620      	mov	r0, r4
 8001ab4:	f004 f9d8 	bl	8005e68 <HAL_Delay>
 8001ab8:	f000 fa58 	bl	8001f6c <OutBuzOff>
 8001abc:	e8bd 4010 	ldmia.w	sp!, {r4, lr}
 8001ac0:	2000      	movs	r0, #0
 8001ac2:	f000 ba1f 	b.w	8001f04 <OutMotorWu>

08001ac6 <PowerVib>:
 8001ac6:	b510      	push	{r4, lr}
 8001ac8:	4604      	mov	r4, r0
 8001aca:	2001      	movs	r0, #1
 8001acc:	f000 fa1a 	bl	8001f04 <OutMotorWu>
 8001ad0:	4620      	mov	r0, r4
 8001ad2:	f004 f9c9 	bl	8005e68 <HAL_Delay>
 8001ad6:	e8bd 4010 	ldmia.w	sp!, {r4, lr}
 8001ada:	2000      	movs	r0, #0
 8001adc:	f000 ba12 	b.w	8001f04 <OutMotorWu>

08001ae0 <chargerRead>:
 8001ae0:	b570      	push	{r4, r5, r6, lr}
 8001ae2:	4e10      	ldr	r6, [pc, #64]	; (8001b24 <chargerRead+0x44>)
 8001ae4:	b086      	sub	sp, #24
 8001ae6:	2300      	movs	r3, #0
 8001ae8:	f88d 3017 	strb.w	r3, [sp, #23]
 8001aec:	7833      	ldrb	r3, [r6, #0]
 8001aee:	4605      	mov	r5, r0
 8001af0:	460c      	mov	r4, r1
 8001af2:	b963      	cbnz	r3, 8001b0e <chargerRead+0x2e>
 8001af4:	2301      	movs	r3, #1
 8001af6:	220a      	movs	r2, #10
 8001af8:	e9cd 3201 	strd	r3, r2, [sp, #4]
 8001afc:	f10d 0217 	add.w	r2, sp, #23
 8001b00:	9200      	str	r2, [sp, #0]
 8001b02:	4809      	ldr	r0, [pc, #36]	; (8001b28 <chargerRead+0x48>)
 8001b04:	461a      	mov	r2, r3
 8001b06:	218e      	movs	r1, #142	; 0x8e
 8001b08:	f004 fea6 	bl	8006858 <HAL_I2C_Mem_Read>
 8001b0c:	7030      	strb	r0, [r6, #0]
 8001b0e:	f89d 3017 	ldrb.w	r3, [sp, #23]
 8001b12:	f3c3 1200 	ubfx	r2, r3, #4, #1
 8001b16:	f3c3 03c0 	ubfx	r3, r3, #3, #1
 8001b1a:	602a      	str	r2, [r5, #0]
 8001b1c:	6023      	str	r3, [r4, #0]
 8001b1e:	b006      	add	sp, #24
 8001b20:	bd70      	pop	{r4, r5, r6, pc}
 8001b22:	bf00      	nop
 8001b24:	200009d6 	.word	0x200009d6
 8001b28:	20000f70 	.word	0x20000f70
 8001b2c:	00000000 	.word	0x00000000

08001b30 <ReadBat>:
 8001b30:	e92d 43f0 	stmdb	sp!, {r4, r5, r6, r7, r8, r9, lr}
 8001b34:	461e      	mov	r6, r3
 8001b36:	f8d3 30ec 	ldr.w	r3, [r3, #236]	; 0xec
 8001b3a:	b087      	sub	sp, #28
 8001b3c:	4607      	mov	r7, r0
 8001b3e:	4689      	mov	r9, r1
 8001b40:	4690      	mov	r8, r2
 8001b42:	2b00      	cmp	r3, #0
 8001b44:	f040 8082 	bne.w	8001c4c <ReadBat+0x11c>
 8001b48:	4d45      	ldr	r5, [pc, #276]	; (8001c60 <ReadBat+0x130>)
 8001b4a:	f8ad 3014 	strh.w	r3, [sp, #20]
 8001b4e:	782a      	ldrb	r2, [r5, #0]
 8001b50:	2301      	movs	r3, #1
 8001b52:	f8c6 30ec 	str.w	r3, [r6, #236]	; 0xec
 8001b56:	b95a      	cbnz	r2, 8001b70 <ReadBat+0x40>
 8001b58:	2202      	movs	r2, #2
 8001b5a:	2132      	movs	r1, #50	; 0x32
 8001b5c:	e9cd 2101 	strd	r2, r1, [sp, #4]
 8001b60:	aa05      	add	r2, sp, #20
 8001b62:	9200      	str	r2, [sp, #0]
 8001b64:	483f      	ldr	r0, [pc, #252]	; (8001c64 <ReadBat+0x134>)
 8001b66:	2219      	movs	r2, #25
 8001b68:	216c      	movs	r1, #108	; 0x6c
 8001b6a:	f004 fe75 	bl	8006858 <HAL_I2C_Mem_Read>
 8001b6e:	7028      	strb	r0, [r5, #0]
 8001b70:	f89d 0015 	ldrb.w	r0, [sp, #21]
 8001b74:	2300      	movs	r3, #0
 8001b76:	f8c6 30ec 	str.w	r3, [r6, #236]	; 0xec
 8001b7a:	0200      	lsls	r0, r0, #8
 8001b7c:	f7fe fcc2 	bl	8000504 <__aeabi_ui2d>
 8001b80:	4b39      	ldr	r3, [pc, #228]	; (8001c68 <ReadBat+0x138>)
 8001b82:	2200      	movs	r2, #0
 8001b84:	f7fe fd38 	bl	80005f8 <__aeabi_dmul>
 8001b88:	f7ff f80e 	bl	8000ba8 <__aeabi_d2uiz>
 8001b8c:	f7fe fcba 	bl	8000504 <__aeabi_ui2d>
 8001b90:	4b36      	ldr	r3, [pc, #216]	; (8001c6c <ReadBat+0x13c>)
 8001b92:	2200      	movs	r2, #0
 8001b94:	f7fe fd30 	bl	80005f8 <__aeabi_dmul>
 8001b98:	f7fe ffde 	bl	8000b58 <__aeabi_d2iz>
 8001b9c:	782b      	ldrb	r3, [r5, #0]
 8001b9e:	4604      	mov	r4, r0
 8001ba0:	b963      	cbnz	r3, 8001bbc <ReadBat+0x8c>
 8001ba2:	2302      	movs	r3, #2
 8001ba4:	2214      	movs	r2, #20
 8001ba6:	e9cd 3201 	strd	r3, r2, [sp, #4]
 8001baa:	ab05      	add	r3, sp, #20
 8001bac:	9300      	str	r3, [sp, #0]
 8001bae:	482d      	ldr	r0, [pc, #180]	; (8001c64 <ReadBat+0x134>)
 8001bb0:	2301      	movs	r3, #1
 8001bb2:	220b      	movs	r2, #11
 8001bb4:	216c      	movs	r1, #108	; 0x6c
 8001bb6:	f004 fe4f 	bl	8006858 <HAL_I2C_Mem_Read>
 8001bba:	7028      	strb	r0, [r5, #0]
 8001bbc:	f89d 3015 	ldrb.w	r3, [sp, #21]
 8001bc0:	f89d 0014 	ldrb.w	r0, [sp, #20]
 8001bc4:	eb00 2003 	add.w	r0, r0, r3, lsl #8
 8001bc8:	b200      	sxth	r0, r0
 8001bca:	f7fe fcab 	bl	8000524 <__aeabi_i2d>
 8001bce:	a322      	add	r3, pc, #136	; (adr r3, 8001c58 <ReadBat+0x128>)
 8001bd0:	e9d3 2300 	ldrd	r2, r3, [r3]
 8001bd4:	f7fe fd10 	bl	80005f8 <__aeabi_dmul>
 8001bd8:	4b25      	ldr	r3, [pc, #148]	; (8001c70 <ReadBat+0x140>)
 8001bda:	2200      	movs	r2, #0
 8001bdc:	f7fe fe36 	bl	800084c <__aeabi_ddiv>
 8001be0:	f7fe ffba 	bl	8000b58 <__aeabi_d2iz>
 8001be4:	b200      	sxth	r0, r0
 8001be6:	2800      	cmp	r0, #0
 8001be8:	bfb8      	it	lt
 8001bea:	4240      	neglt	r0, r0
 8001bec:	f640 43e3 	movw	r3, #3299	; 0xce3
 8001bf0:	b280      	uxth	r0, r0
 8001bf2:	429c      	cmp	r4, r3
 8001bf4:	f8c6 0168 	str.w	r0, [r6, #360]	; 0x168
 8001bf8:	dd13      	ble.n	8001c22 <ReadBat+0xf2>
 8001bfa:	f241 0303 	movw	r3, #4099	; 0x1003
 8001bfe:	429c      	cmp	r4, r3
 8001c00:	f04f 0564 	mov.w	r5, #100	; 0x64
 8001c04:	dc06      	bgt.n	8001c14 <ReadBat+0xe4>
 8001c06:	f6a4 43e4 	subw	r3, r4, #3300	; 0xce4
 8001c0a:	435d      	muls	r5, r3
 8001c0c:	f44f 7348 	mov.w	r3, #800	; 0x320
 8001c10:	fbb5 f5f3 	udiv	r5, r5, r3
 8001c14:	f640 60d7 	movw	r0, #3799	; 0xed7
 8001c18:	4284      	cmp	r4, r0
 8001c1a:	bfcc      	ite	gt
 8001c1c:	2400      	movgt	r4, #0
 8001c1e:	2401      	movle	r4, #1
 8001c20:	e006      	b.n	8001c30 <ReadBat+0x100>
 8001c22:	f640 431b 	movw	r3, #3099	; 0xc1b
 8001c26:	429c      	cmp	r4, r3
 8001c28:	f04f 0401 	mov.w	r4, #1
 8001c2c:	dc11      	bgt.n	8001c52 <ReadBat+0x122>
 8001c2e:	25ff      	movs	r5, #255	; 0xff
 8001c30:	f8c6 4148 	str.w	r4, [r6, #328]	; 0x148
 8001c34:	683b      	ldr	r3, [r7, #0]
 8001c36:	42ab      	cmp	r3, r5
 8001c38:	dc07      	bgt.n	8001c4a <ReadBat+0x11a>
 8001c3a:	f1b9 0f01 	cmp.w	r9, #1
 8001c3e:	d004      	beq.n	8001c4a <ReadBat+0x11a>
 8001c40:	f1b8 0f01 	cmp.w	r8, #1
 8001c44:	d001      	beq.n	8001c4a <ReadBat+0x11a>
 8001c46:	2dff      	cmp	r5, #255	; 0xff
 8001c48:	d100      	bne.n	8001c4c <ReadBat+0x11c>
 8001c4a:	603d      	str	r5, [r7, #0]
 8001c4c:	b007      	add	sp, #28
 8001c4e:	e8bd 83f0 	ldmia.w	sp!, {r4, r5, r6, r7, r8, r9, pc}
 8001c52:	4625      	mov	r5, r4
 8001c54:	e7ec      	b.n	8001c30 <ReadBat+0x100>
 8001c56:	bf00      	nop
 8001c58:	00000000 	.word	0x00000000
 8001c5c:	40638800 	.word	0x40638800
 8001c60:	200009d6 	.word	0x200009d6
 8001c64:	20000f70 	.word	0x20000f70
 8001c68:	3fb00000 	.word	0x3fb00000
 8001c6c:	3ff40000 	.word	0x3ff40000
 8001c70:	408f4000 	.word	0x408f4000

08001c74 <mean>:
 8001c74:	b530      	push	{r4, r5, lr}
 8001c76:	4c08      	ldr	r4, [pc, #32]	; (8001c98 <mean+0x24>)
 8001c78:	2300      	movs	r3, #0
 8001c7a:	8021      	strh	r1, [r4, #0]
 8001c7c:	310a      	adds	r1, #10
 8001c7e:	8822      	ldrh	r2, [r4, #0]
 8001c80:	428a      	cmp	r2, r1
 8001c82:	dd03      	ble.n	8001c8c <mean+0x18>
 8001c84:	200b      	movs	r0, #11
 8001c86:	fbb3 f0f0 	udiv	r0, r3, r0
 8001c8a:	bd30      	pop	{r4, r5, pc}
 8001c8c:	5c85      	ldrb	r5, [r0, r2]
 8001c8e:	3201      	adds	r2, #1
 8001c90:	442b      	add	r3, r5
 8001c92:	b29b      	uxth	r3, r3
 8001c94:	8022      	strh	r2, [r4, #0]
 8001c96:	e7f2      	b.n	8001c7e <mean+0xa>
 8001c98:	200009e6 	.word	0x200009e6

08001c9c <test_chute>:
 8001c9c:	b5f8      	push	{r3, r4, r5, r6, r7, lr}
 8001c9e:	4607      	mov	r7, r0
 8001ca0:	460e      	mov	r6, r1
 8001ca2:	f004 f8db 	bl	8005e5c <HAL_GetTick>
 8001ca6:	2400      	movs	r4, #0
 8001ca8:	f837 2014 	ldrh.w	r2, [r7, r4, lsl #1]
 8001cac:	b2a5      	uxth	r5, r4
 8001cae:	2a98      	cmp	r2, #152	; 0x98
 8001cb0:	462b      	mov	r3, r5
 8001cb2:	d806      	bhi.n	8001cc2 <test_chute+0x26>
 8001cb4:	462a      	mov	r2, r5
 8001cb6:	1ca1      	adds	r1, r4, #2
 8001cb8:	e00c      	b.n	8001cd4 <test_chute+0x38>
 8001cba:	f837 0012 	ldrh.w	r0, [r7, r2, lsl #1]
 8001cbe:	2899      	cmp	r0, #153	; 0x99
 8001cc0:	d906      	bls.n	8001cd0 <test_chute+0x34>
 8001cc2:	3401      	adds	r4, #1
 8001cc4:	f240 131b 	movw	r3, #283	; 0x11b
 8001cc8:	429c      	cmp	r4, r3
 8001cca:	d1ed      	bne.n	8001ca8 <test_chute+0xc>
 8001ccc:	2000      	movs	r0, #0
 8001cce:	bdf8      	pop	{r3, r4, r5, r6, r7, pc}
 8001cd0:	3201      	adds	r2, #1
 8001cd2:	b292      	uxth	r2, r2
 8001cd4:	428a      	cmp	r2, r1
 8001cd6:	ddf0      	ble.n	8001cba <test_chute+0x1e>
 8001cd8:	2201      	movs	r2, #1
 8001cda:	f104 013a 	add.w	r1, r4, #58	; 0x3a
 8001cde:	428b      	cmp	r3, r1
 8001ce0:	dd0c      	ble.n	8001cfc <test_chute+0x60>
 8001ce2:	2a00      	cmp	r2, #0
 8001ce4:	d0ed      	beq.n	8001cc2 <test_chute+0x26>
 8001ce6:	356d      	adds	r5, #109	; 0x6d
 8001ce8:	b2a9      	uxth	r1, r5
 8001cea:	4630      	mov	r0, r6
 8001cec:	f7ff ffc2 	bl	8001c74 <mean>
 8001cf0:	3872      	subs	r0, #114	; 0x72
 8001cf2:	b280      	uxth	r0, r0
 8001cf4:	281a      	cmp	r0, #26
 8001cf6:	d8e4      	bhi.n	8001cc2 <test_chute+0x26>
 8001cf8:	2001      	movs	r0, #1
 8001cfa:	e7e8      	b.n	8001cce <test_chute+0x32>
 8001cfc:	f837 2013 	ldrh.w	r2, [r7, r3, lsl #1]
 8001d00:	2ace      	cmp	r2, #206	; 0xce
 8001d02:	d8f0      	bhi.n	8001ce6 <test_chute+0x4a>
 8001d04:	3301      	adds	r3, #1
 8001d06:	b29b      	uxth	r3, r3
 8001d08:	2200      	movs	r2, #0
 8001d0a:	e7e8      	b.n	8001cde <test_chute+0x42>

08001d0c <LedChargeIndic>:
 8001d0c:	b530      	push	{r4, r5, lr}
 8001d0e:	b087      	sub	sp, #28
 8001d10:	2501      	movs	r5, #1
 8001d12:	4602      	mov	r2, r0
 8001d14:	9001      	str	r0, [sp, #4]
 8001d16:	a904      	add	r1, sp, #16
 8001d18:	a803      	add	r0, sp, #12
 8001d1a:	2400      	movs	r4, #0
 8001d1c:	e9cd 4403 	strd	r4, r4, [sp, #12]
 8001d20:	9505      	str	r5, [sp, #20]
 8001d22:	f7ff fedd 	bl	8001ae0 <chargerRead>
 8001d26:	9b01      	ldr	r3, [sp, #4]
 8001d28:	462a      	mov	r2, r5
 8001d2a:	4629      	mov	r1, r5
 8001d2c:	a805      	add	r0, sp, #20
 8001d2e:	f7ff feff 	bl	8001b30 <ReadBat>
 8001d32:	9a05      	ldr	r2, [sp, #20]
 8001d34:	9b01      	ldr	r3, [sp, #4]
 8001d36:	2aff      	cmp	r2, #255	; 0xff
 8001d38:	d106      	bne.n	8001d48 <LedChargeIndic+0x3c>
 8001d3a:	2264      	movs	r2, #100	; 0x64
 8001d3c:	4621      	mov	r1, r4
 8001d3e:	4620      	mov	r0, r4
 8001d40:	f000 fb72 	bl	8002428 <LedOn>
 8001d44:	b007      	add	sp, #28
 8001d46:	bd30      	pop	{r4, r5, pc}
 8001d48:	9904      	ldr	r1, [sp, #16]
 8001d4a:	2901      	cmp	r1, #1
 8001d4c:	d00a      	beq.n	8001d64 <LedChargeIndic+0x58>
 8001d4e:	9803      	ldr	r0, [sp, #12]
 8001d50:	2801      	cmp	r0, #1
 8001d52:	d10d      	bne.n	8001d70 <LedChargeIndic+0x64>
 8001d54:	2a63      	cmp	r2, #99	; 0x63
 8001d56:	dd07      	ble.n	8001d68 <LedChargeIndic+0x5c>
 8001d58:	2a64      	cmp	r2, #100	; 0x64
 8001d5a:	d109      	bne.n	8001d70 <LedChargeIndic+0x64>
 8001d5c:	2200      	movs	r2, #0
 8001d5e:	4611      	mov	r1, r2
 8001d60:	4610      	mov	r0, r2
 8001d62:	e7ed      	b.n	8001d40 <LedChargeIndic+0x34>
 8001d64:	2a63      	cmp	r2, #99	; 0x63
 8001d66:	dc07      	bgt.n	8001d78 <LedChargeIndic+0x6c>
 8001d68:	2200      	movs	r2, #0
 8001d6a:	4611      	mov	r1, r2
 8001d6c:	2032      	movs	r0, #50	; 0x32
 8001d6e:	e7e7      	b.n	8001d40 <LedChargeIndic+0x34>
 8001d70:	ea51 0200 	orrs.w	r2, r1, r0
 8001d74:	d1e6      	bne.n	8001d44 <LedChargeIndic+0x38>
 8001d76:	e7f1      	b.n	8001d5c <LedChargeIndic+0x50>
 8001d78:	2a64      	cmp	r2, #100	; 0x64
 8001d7a:	d1e3      	bne.n	8001d44 <LedChargeIndic+0x38>
 8001d7c:	e7ee      	b.n	8001d5c <LedChargeIndic+0x50>

08001d7e <TaskAlertAcc>:
 8001d7e:	3872      	subs	r0, #114	; 0x72
 8001d80:	b2c0      	uxtb	r0, r0
 8001d82:	281a      	cmp	r0, #26
 8001d84:	b570      	push	{r4, r5, r6, lr}
 8001d86:	d833      	bhi.n	8001df0 <TaskAlertAcc+0x72>
 8001d88:	6894      	ldr	r4, [r2, #8]
 8001d8a:	2c00      	cmp	r4, #0
 8001d8c:	d130      	bne.n	8001df0 <TaskAlertAcc+0x72>
 8001d8e:	6adc      	ldr	r4, [r3, #44]	; 0x2c
 8001d90:	2c00      	cmp	r4, #0
 8001d92:	d12d      	bne.n	8001df0 <TaskAlertAcc+0x72>
 8001d94:	6b55      	ldr	r5, [r2, #52]	; 0x34
 8001d96:	bb5d      	cbnz	r5, 8001df0 <TaskAlertAcc+0x72>
 8001d98:	6bdc      	ldr	r4, [r3, #60]	; 0x3c
 8001d9a:	6b1e      	ldr	r6, [r3, #48]	; 0x30
 8001d9c:	3401      	adds	r4, #1
 8001d9e:	42b4      	cmp	r4, r6
 8001da0:	63dc      	str	r4, [r3, #60]	; 0x3c
 8001da2:	db02      	blt.n	8001daa <TaskAlertAcc+0x2c>
 8001da4:	2401      	movs	r4, #1
 8001da6:	6094      	str	r4, [r2, #8]
 8001da8:	63dd      	str	r5, [r3, #60]	; 0x3c
 8001daa:	3999      	subs	r1, #153	; 0x99
 8001dac:	290b      	cmp	r1, #11
 8001dae:	d822      	bhi.n	8001df6 <TaskAlertAcc+0x78>
 8001db0:	6891      	ldr	r1, [r2, #8]
 8001db2:	bb01      	cbnz	r1, 8001df6 <TaskAlertAcc+0x78>
 8001db4:	6ad9      	ldr	r1, [r3, #44]	; 0x2c
 8001db6:	b9f1      	cbnz	r1, 8001df6 <TaskAlertAcc+0x78>
 8001db8:	6b54      	ldr	r4, [r2, #52]	; 0x34
 8001dba:	b9e4      	cbnz	r4, 8001df6 <TaskAlertAcc+0x78>
 8001dbc:	6c19      	ldr	r1, [r3, #64]	; 0x40
 8001dbe:	6b5d      	ldr	r5, [r3, #52]	; 0x34
 8001dc0:	3101      	adds	r1, #1
 8001dc2:	42a9      	cmp	r1, r5
 8001dc4:	6419      	str	r1, [r3, #64]	; 0x40
 8001dc6:	db02      	blt.n	8001dce <TaskAlertAcc+0x50>
 8001dc8:	2101      	movs	r1, #1
 8001dca:	6091      	str	r1, [r2, #8]
 8001dcc:	641c      	str	r4, [r3, #64]	; 0x40
 8001dce:	281a      	cmp	r0, #26
 8001dd0:	d814      	bhi.n	8001dfc <TaskAlertAcc+0x7e>
 8001dd2:	6a99      	ldr	r1, [r3, #40]	; 0x28
 8001dd4:	2901      	cmp	r1, #1
 8001dd6:	d111      	bne.n	8001dfc <TaskAlertAcc+0x7e>
 8001dd8:	6890      	ldr	r0, [r2, #8]
 8001dda:	b978      	cbnz	r0, 8001dfc <TaskAlertAcc+0x7e>
 8001ddc:	6b52      	ldr	r2, [r2, #52]	; 0x34
 8001dde:	b96a      	cbnz	r2, 8001dfc <TaskAlertAcc+0x7e>
 8001de0:	6c5a      	ldr	r2, [r3, #68]	; 0x44
 8001de2:	6b98      	ldr	r0, [r3, #56]	; 0x38
 8001de4:	3201      	adds	r2, #1
 8001de6:	4282      	cmp	r2, r0
 8001de8:	645a      	str	r2, [r3, #68]	; 0x44
 8001dea:	db00      	blt.n	8001dee <TaskAlertAcc+0x70>
 8001dec:	62d9      	str	r1, [r3, #44]	; 0x2c
 8001dee:	bd70      	pop	{r4, r5, r6, pc}
 8001df0:	2400      	movs	r4, #0
 8001df2:	63dc      	str	r4, [r3, #60]	; 0x3c
 8001df4:	e7d9      	b.n	8001daa <TaskAlertAcc+0x2c>
 8001df6:	2100      	movs	r1, #0
 8001df8:	6419      	str	r1, [r3, #64]	; 0x40
 8001dfa:	e7e8      	b.n	8001dce <TaskAlertAcc+0x50>
 8001dfc:	2200      	movs	r2, #0
 8001dfe:	62da      	str	r2, [r3, #44]	; 0x2c
 8001e00:	645a      	str	r2, [r3, #68]	; 0x44
 8001e02:	e7f4      	b.n	8001dee <TaskAlertAcc+0x70>

08001e04 <bootloader>:
 8001e04:	b510      	push	{r4, lr}
 8001e06:	4604      	mov	r4, r0
 8001e08:	b90c      	cbnz	r4, 8001e0e <bootloader+0xa>
 8001e0a:	2001      	movs	r0, #1
 8001e0c:	bd10      	pop	{r4, pc}
 8001e0e:	f000 f89b 	bl	8001f48 <InSOS>
 8001e12:	2801      	cmp	r0, #1
 8001e14:	d10a      	bne.n	8001e2c <bootloader+0x28>
 8001e16:	f44f 727a 	mov.w	r2, #1000	; 0x3e8
 8001e1a:	2100      	movs	r1, #0
 8001e1c:	f003 f8e3 	bl	8004fe6 <vibration_LBL>
 8001e20:	3c01      	subs	r4, #1
 8001e22:	20fa      	movs	r0, #250	; 0xfa
 8001e24:	f004 f820 	bl	8005e68 <HAL_Delay>
 8001e28:	b2e4      	uxtb	r4, r4
 8001e2a:	e7ed      	b.n	8001e08 <bootloader+0x4>
 8001e2c:	2000      	movs	r0, #0
 8001e2e:	e7ed      	b.n	8001e0c <bootloader+0x8>

08001e30 <OuChaIsel>:
 8001e30:	2801      	cmp	r0, #1
 8001e32:	4602      	mov	r2, r0
 8001e34:	f04f 0120 	mov.w	r1, #32
 8001e38:	4802      	ldr	r0, [pc, #8]	; (8001e44 <OuChaIsel+0x14>)
 8001e3a:	bf18      	it	ne
 8001e3c:	2200      	movne	r2, #0
 8001e3e:	f004 bb11 	b.w	8006464 <HAL_GPIO_WritePin>
 8001e42:	bf00      	nop
 8001e44:	48000400 	.word	0x48000400

08001e48 <OutDone1>:
 8001e48:	2801      	cmp	r0, #1
 8001e4a:	4602      	mov	r2, r0
 8001e4c:	f04f 0110 	mov.w	r1, #16
 8001e50:	4802      	ldr	r0, [pc, #8]	; (8001e5c <OutDone1+0x14>)
 8001e52:	bf18      	it	ne
 8001e54:	2200      	movne	r2, #0
 8001e56:	f004 bb05 	b.w	8006464 <HAL_GPIO_WritePin>
 8001e5a:	bf00      	nop
 8001e5c:	48000400 	.word	0x48000400

08001e60 <OutDone2>:
 8001e60:	2801      	cmp	r0, #1
 8001e62:	4602      	mov	r2, r0
 8001e64:	f04f 0108 	mov.w	r1, #8
 8001e68:	4802      	ldr	r0, [pc, #8]	; (8001e74 <OutDone2+0x14>)
 8001e6a:	bf18      	it	ne
 8001e6c:	2200      	movne	r2, #0
 8001e6e:	f004 baf9 	b.w	8006464 <HAL_GPIO_WritePin>
 8001e72:	bf00      	nop
 8001e74:	48000400 	.word	0x48000400

08001e78 <OutDwmRst>:
 8001e78:	2801      	cmp	r0, #1
 8001e7a:	4602      	mov	r2, r0
 8001e7c:	f44f 7180 	mov.w	r1, #256	; 0x100
 8001e80:	bf18      	it	ne
 8001e82:	2200      	movne	r2, #0
 8001e84:	f04f 4090 	mov.w	r0, #1207959552	; 0x48000000
 8001e88:	f004 baec 	b.w	8006464 <HAL_GPIO_WritePin>

08001e8c <OutDwmWu>:
 8001e8c:	2801      	cmp	r0, #1
 8001e8e:	4602      	mov	r2, r0
 8001e90:	f44f 4100 	mov.w	r1, #32768	; 0x8000
 8001e94:	4802      	ldr	r0, [pc, #8]	; (8001ea0 <OutDwmWu+0x14>)
 8001e96:	bf18      	it	ne
 8001e98:	2200      	movne	r2, #0
 8001e9a:	f004 bae3 	b.w	8006464 <HAL_GPIO_WritePin>
 8001e9e:	bf00      	nop
 8001ea0:	48000400 	.word	0x48000400

08001ea4 <OutOledWu>:
 8001ea4:	2801      	cmp	r0, #1
 8001ea6:	4602      	mov	r2, r0
 8001ea8:	f44f 5180 	mov.w	r1, #4096	; 0x1000
 8001eac:	4802      	ldr	r0, [pc, #8]	; (8001eb8 <OutOledWu+0x14>)
 8001eae:	bf18      	it	ne
 8001eb0:	2200      	movne	r2, #0
 8001eb2:	f004 bad7 	b.w	8006464 <HAL_GPIO_WritePin>
 8001eb6:	bf00      	nop
 8001eb8:	48000400 	.word	0x48000400

08001ebc <OutLoraWu>:
 8001ebc:	2801      	cmp	r0, #1
 8001ebe:	4602      	mov	r2, r0
 8001ec0:	f04f 0104 	mov.w	r1, #4
 8001ec4:	4802      	ldr	r0, [pc, #8]	; (8001ed0 <OutLoraWu+0x14>)
 8001ec6:	bf18      	it	ne
 8001ec8:	2200      	movne	r2, #0
 8001eca:	f004 bacb 	b.w	8006464 <HAL_GPIO_WritePin>
 8001ece:	bf00      	nop
 8001ed0:	48000400 	.word	0x48000400

08001ed4 <OutGpsRst>:
 8001ed4:	2801      	cmp	r0, #1
 8001ed6:	4602      	mov	r2, r0
 8001ed8:	f04f 0102 	mov.w	r1, #2
 8001edc:	4802      	ldr	r0, [pc, #8]	; (8001ee8 <OutGpsRst+0x14>)
 8001ede:	bf18      	it	ne
 8001ee0:	2200      	movne	r2, #0
 8001ee2:	f004 babf 	b.w	8006464 <HAL_GPIO_WritePin>
 8001ee6:	bf00      	nop
 8001ee8:	48000400 	.word	0x48000400

08001eec <OutLedWu>:
 8001eec:	2801      	cmp	r0, #1
 8001eee:	4602      	mov	r2, r0
 8001ef0:	f04f 0101 	mov.w	r1, #1
 8001ef4:	4802      	ldr	r0, [pc, #8]	; (8001f00 <OutLedWu+0x14>)
 8001ef6:	bf18      	it	ne
 8001ef8:	2200      	movne	r2, #0
 8001efa:	f004 bab3 	b.w	8006464 <HAL_GPIO_WritePin>
 8001efe:	bf00      	nop
 8001f00:	48000400 	.word	0x48000400

08001f04 <OutMotorWu>:
 8001f04:	2801      	cmp	r0, #1
 8001f06:	4602      	mov	r2, r0
 8001f08:	f04f 0108 	mov.w	r1, #8
 8001f0c:	bf18      	it	ne
 8001f0e:	2200      	movne	r2, #0
 8001f10:	f04f 4090 	mov.w	r0, #1207959552	; 0x48000000
 8001f14:	f004 baa6 	b.w	8006464 <HAL_GPIO_WritePin>

08001f18 <OutOledRst>:
 8001f18:	2801      	cmp	r0, #1
 8001f1a:	4602      	mov	r2, r0
 8001f1c:	f44f 5100 	mov.w	r1, #8192	; 0x2000
 8001f20:	4802      	ldr	r0, [pc, #8]	; (8001f2c <OutOledRst+0x14>)
 8001f22:	bf18      	it	ne
 8001f24:	2200      	movne	r2, #0
 8001f26:	f004 ba9d 	b.w	8006464 <HAL_GPIO_WritePin>
 8001f2a:	bf00      	nop
 8001f2c:	48000800 	.word	0x48000800

08001f30 <InOn>:
 8001f30:	b508      	push	{r3, lr}
 8001f32:	f44f 7180 	mov.w	r1, #256	; 0x100
 8001f36:	4803      	ldr	r0, [pc, #12]	; (8001f44 <InOn+0x14>)
 8001f38:	f004 fa8e 	bl	8006458 <HAL_GPIO_ReadPin>
 8001f3c:	fab0 f080 	clz	r0, r0
 8001f40:	0940      	lsrs	r0, r0, #5
 8001f42:	bd08      	pop	{r3, pc}
 8001f44:	48000400 	.word	0x48000400

08001f48 <InSOS>:
 8001f48:	b508      	push	{r3, lr}
 8001f4a:	f44f 7100 	mov.w	r1, #512	; 0x200
 8001f4e:	4803      	ldr	r0, [pc, #12]	; (8001f5c <InSOS+0x14>)
 8001f50:	f004 fa82 	bl	8006458 <HAL_GPIO_ReadPin>
 8001f54:	fab0 f080 	clz	r0, r0
 8001f58:	0940      	lsrs	r0, r0, #5
 8001f5a:	bd08      	pop	{r3, pc}
 8001f5c:	48000400 	.word	0x48000400

08001f60 <OutBuzOn>:
 8001f60:	4801      	ldr	r0, [pc, #4]	; (8001f68 <OutBuzOn+0x8>)
 8001f62:	2100      	movs	r1, #0
 8001f64:	f006 bea6 	b.w	8008cb4 <HAL_TIM_PWM_Start>
 8001f68:	2000248c 	.word	0x2000248c

08001f6c <OutBuzOff>:
 8001f6c:	4801      	ldr	r0, [pc, #4]	; (8001f74 <OutBuzOff+0x8>)
 8001f6e:	2100      	movs	r1, #0
 8001f70:	f006 bef0 	b.w	8008d54 <HAL_TIM_PWM_Stop>
 8001f74:	2000248c 	.word	0x2000248c

08001f78 <GpsStop>:
 8001f78:	b510      	push	{r4, lr}
 8001f7a:	2001      	movs	r0, #1
 8001f7c:	b086      	sub	sp, #24
 8001f7e:	f7ff ffa9 	bl	8001ed4 <OutGpsRst>
 8001f82:	2001      	movs	r0, #1
 8001f84:	f003 ff70 	bl	8005e68 <HAL_Delay>
 8001f88:	4b0f      	ldr	r3, [pc, #60]	; (8001fc8 <GpsStop+0x50>)
 8001f8a:	4c10      	ldr	r4, [pc, #64]	; (8001fcc <GpsStop+0x54>)
 8001f8c:	6818      	ldr	r0, [r3, #0]
 8001f8e:	6859      	ldr	r1, [r3, #4]
 8001f90:	aa03      	add	r2, sp, #12
 8001f92:	c203      	stmia	r2!, {r0, r1}
 8001f94:	6898      	ldr	r0, [r3, #8]
 8001f96:	6010      	str	r0, [r2, #0]
 8001f98:	f853 0f0c 	ldr.w	r0, [r3, #12]!
 8001f9c:	6859      	ldr	r1, [r3, #4]
 8001f9e:	aa01      	add	r2, sp, #4
 8001fa0:	c203      	stmia	r2!, {r0, r1}
 8001fa2:	220c      	movs	r2, #12
 8001fa4:	eb0d 0102 	add.w	r1, sp, r2
 8001fa8:	4620      	mov	r0, r4
 8001faa:	f006 ff9b 	bl	8008ee4 <HAL_UART_Transmit_IT>
 8001fae:	2014      	movs	r0, #20
 8001fb0:	f003 ff5a 	bl	8005e68 <HAL_Delay>
 8001fb4:	2208      	movs	r2, #8
 8001fb6:	a901      	add	r1, sp, #4
 8001fb8:	4620      	mov	r0, r4
 8001fba:	f006 ff93 	bl	8008ee4 <HAL_UART_Transmit_IT>
 8001fbe:	2014      	movs	r0, #20
 8001fc0:	f003 ff52 	bl	8005e68 <HAL_Delay>
 8001fc4:	b006      	add	sp, #24
 8001fc6:	bd10      	pop	{r4, pc}
 8001fc8:	0800e594 	.word	0x0800e594
 8001fcc:	20002638 	.word	0x20002638

08001fd0 <CheckSum>:
 8001fd0:	2300      	movs	r3, #0
 8001fd2:	b570      	push	{r4, r5, r6, lr}
 8001fd4:	1e8a      	subs	r2, r1, #2
 8001fd6:	2402      	movs	r4, #2
 8001fd8:	461e      	mov	r6, r3
 8001fda:	42a2      	cmp	r2, r4
 8001fdc:	dc09      	bgt.n	8001ff2 <CheckSum+0x22>
 8001fde:	2903      	cmp	r1, #3
 8001fe0:	bf98      	it	ls
 8001fe2:	2202      	movls	r2, #2
 8001fe4:	f101 31ff 	add.w	r1, r1, #4294967295
 8001fe8:	bf98      	it	ls
 8001fea:	2103      	movls	r1, #3
 8001fec:	5486      	strb	r6, [r0, r2]
 8001fee:	5443      	strb	r3, [r0, r1]
 8001ff0:	bd70      	pop	{r4, r5, r6, pc}
 8001ff2:	5d05      	ldrb	r5, [r0, r4]
 8001ff4:	4435      	add	r5, r6
 8001ff6:	fa53 f385 	uxtab	r3, r3, r5
 8001ffa:	b2ee      	uxtb	r6, r5
 8001ffc:	b2db      	uxtb	r3, r3
 8001ffe:	3401      	adds	r4, #1
 8002000:	e7eb      	b.n	8001fda <CheckSum+0xa>
	...

08002004 <GpsStart>:
 8002004:	e92d 47f0 	stmdb	sp!, {r4, r5, r6, r7, r8, r9, sl, lr}
 8002008:	4b73      	ldr	r3, [pc, #460]	; (80021d8 <GpsStart+0x1d4>)
 800200a:	b0b6      	sub	sp, #216	; 0xd8
 800200c:	6818      	ldr	r0, [r3, #0]
 800200e:	6859      	ldr	r1, [r3, #4]
 8002010:	aa02      	add	r2, sp, #8
 8002012:	c203      	stmia	r2!, {r0, r1}
 8002014:	4619      	mov	r1, r3
 8002016:	6898      	ldr	r0, [r3, #8]
 8002018:	6010      	str	r0, [r2, #0]
 800201a:	f851 0d08 	ldr.w	r0, [r1, #-8]!
 800201e:	6849      	ldr	r1, [r1, #4]
 8002020:	466a      	mov	r2, sp
 8002022:	ad05      	add	r5, sp, #20
 8002024:	c203      	stmia	r2!, {r0, r1}
 8002026:	462c      	mov	r4, r5
 8002028:	f103 020c 	add.w	r2, r3, #12
 800202c:	331c      	adds	r3, #28
 800202e:	6810      	ldr	r0, [r2, #0]
 8002030:	6851      	ldr	r1, [r2, #4]
 8002032:	462e      	mov	r6, r5
 8002034:	c603      	stmia	r6!, {r0, r1}
 8002036:	3208      	adds	r2, #8
 8002038:	429a      	cmp	r2, r3
 800203a:	4635      	mov	r5, r6
 800203c:	d1f7      	bne.n	800202e <GpsStart+0x2a>
 800203e:	4b67      	ldr	r3, [pc, #412]	; (80021dc <GpsStart+0x1d8>)
 8002040:	aa09      	add	r2, sp, #36	; 0x24
 8002042:	f103 0710 	add.w	r7, r3, #16
 8002046:	4615      	mov	r5, r2
 8002048:	6818      	ldr	r0, [r3, #0]
 800204a:	6859      	ldr	r1, [r3, #4]
 800204c:	4616      	mov	r6, r2
 800204e:	c603      	stmia	r6!, {r0, r1}
 8002050:	3308      	adds	r3, #8
 8002052:	42bb      	cmp	r3, r7
 8002054:	4632      	mov	r2, r6
 8002056:	d1f7      	bne.n	8002048 <GpsStart+0x44>
 8002058:	4b61      	ldr	r3, [pc, #388]	; (80021e0 <GpsStart+0x1dc>)
 800205a:	aa0d      	add	r2, sp, #52	; 0x34
 800205c:	f103 0c10 	add.w	ip, r3, #16
 8002060:	4616      	mov	r6, r2
 8002062:	6818      	ldr	r0, [r3, #0]
 8002064:	6859      	ldr	r1, [r3, #4]
 8002066:	4617      	mov	r7, r2
 8002068:	c703      	stmia	r7!, {r0, r1}
 800206a:	3308      	adds	r3, #8
 800206c:	4563      	cmp	r3, ip
 800206e:	463a      	mov	r2, r7
 8002070:	d1f7      	bne.n	8002062 <GpsStart+0x5e>
 8002072:	4b5c      	ldr	r3, [pc, #368]	; (80021e4 <GpsStart+0x1e0>)
 8002074:	aa11      	add	r2, sp, #68	; 0x44
 8002076:	f103 0e10 	add.w	lr, r3, #16
 800207a:	4617      	mov	r7, r2
 800207c:	6818      	ldr	r0, [r3, #0]
 800207e:	6859      	ldr	r1, [r3, #4]
 8002080:	4694      	mov	ip, r2
 8002082:	e8ac 0003 	stmia.w	ip!, {r0, r1}
 8002086:	3308      	adds	r3, #8
 8002088:	4573      	cmp	r3, lr
 800208a:	4662      	mov	r2, ip
 800208c:	d1f6      	bne.n	800207c <GpsStart+0x78>
 800208e:	4b56      	ldr	r3, [pc, #344]	; (80021e8 <GpsStart+0x1e4>)
 8002090:	aa15      	add	r2, sp, #84	; 0x54
 8002092:	f103 0e10 	add.w	lr, r3, #16
 8002096:	4690      	mov	r8, r2
 8002098:	6818      	ldr	r0, [r3, #0]
 800209a:	6859      	ldr	r1, [r3, #4]
 800209c:	4694      	mov	ip, r2
 800209e:	e8ac 0003 	stmia.w	ip!, {r0, r1}
 80020a2:	3308      	adds	r3, #8
 80020a4:	4573      	cmp	r3, lr
 80020a6:	4662      	mov	r2, ip
 80020a8:	d1f6      	bne.n	8002098 <GpsStart+0x94>
 80020aa:	4b50      	ldr	r3, [pc, #320]	; (80021ec <GpsStart+0x1e8>)
 80020ac:	aa19      	add	r2, sp, #100	; 0x64
 80020ae:	f103 0e10 	add.w	lr, r3, #16
 80020b2:	4691      	mov	r9, r2
 80020b4:	6818      	ldr	r0, [r3, #0]
 80020b6:	6859      	ldr	r1, [r3, #4]
 80020b8:	4694      	mov	ip, r2
 80020ba:	e8ac 0003 	stmia.w	ip!, {r0, r1}
 80020be:	3308      	adds	r3, #8
 80020c0:	4573      	cmp	r3, lr
 80020c2:	4662      	mov	r2, ip
 80020c4:	d1f6      	bne.n	80020b4 <GpsStart+0xb0>
 80020c6:	4b4a      	ldr	r3, [pc, #296]	; (80021f0 <GpsStart+0x1ec>)
 80020c8:	aa1d      	add	r2, sp, #116	; 0x74
 80020ca:	f103 0e10 	add.w	lr, r3, #16
 80020ce:	4692      	mov	sl, r2
 80020d0:	6818      	ldr	r0, [r3, #0]
 80020d2:	6859      	ldr	r1, [r3, #4]
 80020d4:	4694      	mov	ip, r2
 80020d6:	e8ac 0003 	stmia.w	ip!, {r0, r1}
 80020da:	3308      	adds	r3, #8
 80020dc:	4573      	cmp	r3, lr
 80020de:	4662      	mov	r2, ip
 80020e0:	d1f6      	bne.n	80020d0 <GpsStart+0xcc>
 80020e2:	4b44      	ldr	r3, [pc, #272]	; (80021f4 <GpsStart+0x1f0>)
 80020e4:	f10d 0c84 	add.w	ip, sp, #132	; 0x84
 80020e8:	f103 0e10 	add.w	lr, r3, #16
 80020ec:	6818      	ldr	r0, [r3, #0]
 80020ee:	6859      	ldr	r1, [r3, #4]
 80020f0:	4662      	mov	r2, ip
 80020f2:	c203      	stmia	r2!, {r0, r1}
 80020f4:	3308      	adds	r3, #8
 80020f6:	4573      	cmp	r3, lr
 80020f8:	4694      	mov	ip, r2
 80020fa:	d1f7      	bne.n	80020ec <GpsStart+0xe8>
 80020fc:	2244      	movs	r2, #68	; 0x44
 80020fe:	493e      	ldr	r1, [pc, #248]	; (80021f8 <GpsStart+0x1f4>)
 8002100:	a825      	add	r0, sp, #148	; 0x94
 8002102:	f009 f9fb 	bl	800b4fc <memcpy>
 8002106:	a825      	add	r0, sp, #148	; 0x94
 8002108:	2144      	movs	r1, #68	; 0x44
 800210a:	f7ff ff61 	bl	8001fd0 <CheckSum>
 800210e:	2110      	movs	r1, #16
 8002110:	a821      	add	r0, sp, #132	; 0x84
 8002112:	f7ff ff5d 	bl	8001fd0 <CheckSum>
 8002116:	2001      	movs	r0, #1
 8002118:	f7ff fedc 	bl	8001ed4 <OutGpsRst>
 800211c:	2001      	movs	r0, #1
 800211e:	f003 fea3 	bl	8005e68 <HAL_Delay>
 8002122:	a902      	add	r1, sp, #8
 8002124:	220c      	movs	r2, #12
 8002126:	4835      	ldr	r0, [pc, #212]	; (80021fc <GpsStart+0x1f8>)
 8002128:	f006 fedc 	bl	8008ee4 <HAL_UART_Transmit_IT>
 800212c:	201e      	movs	r0, #30
 800212e:	f003 fe9b 	bl	8005e68 <HAL_Delay>
 8002132:	4669      	mov	r1, sp
 8002134:	2208      	movs	r2, #8
 8002136:	4831      	ldr	r0, [pc, #196]	; (80021fc <GpsStart+0x1f8>)
 8002138:	f006 fed4 	bl	8008ee4 <HAL_UART_Transmit_IT>
 800213c:	201e      	movs	r0, #30
 800213e:	f003 fe93 	bl	8005e68 <HAL_Delay>
 8002142:	4621      	mov	r1, r4
 8002144:	2210      	movs	r2, #16
 8002146:	482d      	ldr	r0, [pc, #180]	; (80021fc <GpsStart+0x1f8>)
 8002148:	f006 fecc 	bl	8008ee4 <HAL_UART_Transmit_IT>
 800214c:	201e      	movs	r0, #30
 800214e:	f003 fe8b 	bl	8005e68 <HAL_Delay>
 8002152:	4629      	mov	r1, r5
 8002154:	2210      	movs	r2, #16
 8002156:	4829      	ldr	r0, [pc, #164]	; (80021fc <GpsStart+0x1f8>)
 8002158:	f006 fec4 	bl	8008ee4 <HAL_UART_Transmit_IT>
 800215c:	201e      	movs	r0, #30
 800215e:	f003 fe83 	bl	8005e68 <HAL_Delay>
 8002162:	4631      	mov	r1, r6
 8002164:	2210      	movs	r2, #16
 8002166:	4825      	ldr	r0, [pc, #148]	; (80021fc <GpsStart+0x1f8>)
 8002168:	f006 febc 	bl	8008ee4 <HAL_UART_Transmit_IT>
 800216c:	201e      	movs	r0, #30
 800216e:	f003 fe7b 	bl	8005e68 <HAL_Delay>
 8002172:	4639      	mov	r1, r7
 8002174:	2210      	movs	r2, #16
 8002176:	4821      	ldr	r0, [pc, #132]	; (80021fc <GpsStart+0x1f8>)
 8002178:	f006 feb4 	bl	8008ee4 <HAL_UART_Transmit_IT>
 800217c:	201e      	movs	r0, #30
 800217e:	f003 fe73 	bl	8005e68 <HAL_Delay>
 8002182:	4641      	mov	r1, r8
 8002184:	2210      	movs	r2, #16
 8002186:	481d      	ldr	r0, [pc, #116]	; (80021fc <GpsStart+0x1f8>)
 8002188:	f006 feac 	bl	8008ee4 <HAL_UART_Transmit_IT>
 800218c:	201e      	movs	r0, #30
 800218e:	f003 fe6b 	bl	8005e68 <HAL_Delay>
 8002192:	4651      	mov	r1, sl
 8002194:	2210      	movs	r2, #16
 8002196:	4819      	ldr	r0, [pc, #100]	; (80021fc <GpsStart+0x1f8>)
 8002198:	f006 fea4 	bl	8008ee4 <HAL_UART_Transmit_IT>
 800219c:	201e      	movs	r0, #30
 800219e:	f003 fe63 	bl	8005e68 <HAL_Delay>
 80021a2:	4649      	mov	r1, r9
 80021a4:	2210      	movs	r2, #16
 80021a6:	4815      	ldr	r0, [pc, #84]	; (80021fc <GpsStart+0x1f8>)
 80021a8:	f006 fe9c 	bl	8008ee4 <HAL_UART_Transmit_IT>
 80021ac:	201e      	movs	r0, #30
 80021ae:	f003 fe5b 	bl	8005e68 <HAL_Delay>
 80021b2:	a925      	add	r1, sp, #148	; 0x94
 80021b4:	2244      	movs	r2, #68	; 0x44
 80021b6:	4811      	ldr	r0, [pc, #68]	; (80021fc <GpsStart+0x1f8>)
 80021b8:	f006 fe94 	bl	8008ee4 <HAL_UART_Transmit_IT>
 80021bc:	201e      	movs	r0, #30
 80021be:	f003 fe53 	bl	8005e68 <HAL_Delay>
 80021c2:	2210      	movs	r2, #16
 80021c4:	a921      	add	r1, sp, #132	; 0x84
 80021c6:	480d      	ldr	r0, [pc, #52]	; (80021fc <GpsStart+0x1f8>)
 80021c8:	f006 fe8c 	bl	8008ee4 <HAL_UART_Transmit_IT>
 80021cc:	201e      	movs	r0, #30
 80021ce:	f003 fe4b 	bl	8005e68 <HAL_Delay>
 80021d2:	b036      	add	sp, #216	; 0xd8
 80021d4:	e8bd 87f0 	ldmia.w	sp!, {r4, r5, r6, r7, r8, r9, sl, pc}
 80021d8:	0800e5a8 	.word	0x0800e5a8
 80021dc:	0800e5c4 	.word	0x0800e5c4
 80021e0:	0800e5d4 	.word	0x0800e5d4
 80021e4:	0800e5e4 	.word	0x0800e5e4
 80021e8:	0800e5f4 	.word	0x0800e5f4
 80021ec:	0800e604 	.word	0x0800e604
 80021f0:	0800e614 	.word	0x0800e614
 80021f4:	0800e624 	.word	0x0800e624
 80021f8:	0800e634 	.word	0x0800e634
 80021fc:	20002638 	.word	0x20002638

08002200 <Init_IMU>:
 8002200:	b530      	push	{r4, r5, lr}
 8002202:	4b0f      	ldr	r3, [pc, #60]	; (8002240 <Init_IMU+0x40>)
 8002204:	4c0f      	ldr	r4, [pc, #60]	; (8002244 <Init_IMU+0x44>)
 8002206:	b085      	sub	sp, #20
 8002208:	2200      	movs	r2, #0
 800220a:	701a      	strb	r2, [r3, #0]
 800220c:	2514      	movs	r5, #20
 800220e:	f647 7320 	movw	r3, #32544	; 0x7f20
 8002212:	f8ad 300c 	strh.w	r3, [sp, #12]
 8002216:	aa03      	add	r2, sp, #12
 8002218:	9500      	str	r5, [sp, #0]
 800221a:	2302      	movs	r3, #2
 800221c:	2132      	movs	r1, #50	; 0x32
 800221e:	4620      	mov	r0, r4
 8002220:	f004 fa84 	bl	800672c <HAL_I2C_Master_Transmit>
 8002224:	f641 0323 	movw	r3, #6179	; 0x1823
 8002228:	f8ad 300c 	strh.w	r3, [sp, #12]
 800222c:	9500      	str	r5, [sp, #0]
 800222e:	2302      	movs	r3, #2
 8002230:	aa03      	add	r2, sp, #12
 8002232:	2132      	movs	r1, #50	; 0x32
 8002234:	4620      	mov	r0, r4
 8002236:	f004 fa79 	bl	800672c <HAL_I2C_Master_Transmit>
 800223a:	b005      	add	sp, #20
 800223c:	bd30      	pop	{r4, r5, pc}
 800223e:	bf00      	nop
 8002240:	200009d7 	.word	0x200009d7
 8002244:	20000f70 	.word	0x20000f70

08002248 <imuMsr2floatG_y_bit_res16bit>:
 8002248:	b510      	push	{r4, lr}
 800224a:	ed2d 8b02 	vpush	{d8}
 800224e:	f990 3001 	ldrsb.w	r3, [r0, #1]
 8002252:	eddf 7a2a 	vldr	s15, [pc, #168]	; 80022fc <imuMsr2floatG_y_bit_res16bit+0xb4>
 8002256:	4c2a      	ldr	r4, [pc, #168]	; (8002300 <imuMsr2floatG_y_bit_res16bit+0xb8>)
 8002258:	ed9f 8a2a 	vldr	s16, [pc, #168]	; 8002304 <imuMsr2floatG_y_bit_res16bit+0xbc>
 800225c:	4a2a      	ldr	r2, [pc, #168]	; (8002308 <imuMsr2floatG_y_bit_res16bit+0xc0>)
 800225e:	ee06 3a10 	vmov	s12, r3
 8002262:	eeb8 6ac6 	vcvt.f32.s32	s12, s12
 8002266:	eef1 8a00 	vmov.f32	s17, #16	; 0x40800000  4.0
 800226a:	ee26 6a27 	vmul.f32	s12, s12, s15
 800226e:	ed84 6a00 	vstr	s12, [r4]
 8002272:	f990 3003 	ldrsb.w	r3, [r0, #3]
 8002276:	ee07 3a10 	vmov	s14, r3
 800227a:	eeb8 7ac7 	vcvt.f32.s32	s14, s14
 800227e:	ee27 7a27 	vmul.f32	s14, s14, s15
 8002282:	ed84 7a01 	vstr	s14, [r4, #4]
 8002286:	f990 3005 	ldrsb.w	r3, [r0, #5]
 800228a:	ee78 5ac7 	vsub.f32	s11, s17, s14
 800228e:	ee06 3a90 	vmov	s13, r3
 8002292:	ee27 7a07 	vmul.f32	s14, s14, s14
 8002296:	eef8 6ae6 	vcvt.f32.s32	s13, s13
 800229a:	eea6 7a06 	vfma.f32	s14, s12, s12
 800229e:	ee65 5a88 	vmul.f32	s11, s11, s16
 80022a2:	ee66 6aa7 	vmul.f32	s13, s13, s15
 80022a6:	eefc 7ae5 	vcvt.u32.f32	s15, s11
 80022aa:	eea6 7aa6 	vfma.f32	s14, s13, s13
 80022ae:	ee17 3a90 	vmov	r3, s15
 80022b2:	f3c3 03cc 	ubfx	r3, r3, #3, #13
 80022b6:	8013      	strh	r3, [r2, #0]
 80022b8:	ee17 0a10 	vmov	r0, s14
 80022bc:	edc4 6a02 	vstr	s13, [r4, #8]
 80022c0:	f7fe f942 	bl	8000548 <__aeabi_f2d>
 80022c4:	ec41 0b10 	vmov	d0, r0, r1
 80022c8:	f00c f864 	bl	800e394 <sqrt>
 80022cc:	ec51 0b10 	vmov	r0, r1, d0
 80022d0:	f7fe fc8a 	bl	8000be8 <__aeabi_d2f>
 80022d4:	ee07 0a90 	vmov	s15, r0
 80022d8:	ee77 7aa8 	vadd.f32	s15, s15, s17
 80022dc:	eeb4 7a00 	vmov.f32	s14, #64	; 0x3e000000  0.125
 80022e0:	ee67 7a88 	vmul.f32	s15, s15, s16
 80022e4:	ecbd 8b02 	vpop	{d8}
 80022e8:	ee67 7a87 	vmul.f32	s15, s15, s14
 80022ec:	4b07      	ldr	r3, [pc, #28]	; (800230c <imuMsr2floatG_y_bit_res16bit+0xc4>)
 80022ee:	60e0      	str	r0, [r4, #12]
 80022f0:	eefc 7ae7 	vcvt.u32.f32	s15, s15
 80022f4:	ee17 2a90 	vmov	r2, s15
 80022f8:	801a      	strh	r2, [r3, #0]
 80022fa:	bd10      	pop	{r4, pc}
 80022fc:	3d000000 	.word	0x3d000000
 8002300:	20001104 	.word	0x20001104
 8002304:	437f0000 	.word	0x437f0000
 8002308:	20001884 	.word	0x20001884
 800230c:	20001710 	.word	0x20001710

08002310 <Measure_IMU>:
 8002310:	b5f0      	push	{r4, r5, r6, r7, lr}
 8002312:	4e26      	ldr	r6, [pc, #152]	; (80023ac <Measure_IMU+0x9c>)
 8002314:	7833      	ldrb	r3, [r6, #0]
 8002316:	b085      	sub	sp, #20
 8002318:	4604      	mov	r4, r0
 800231a:	2b00      	cmp	r3, #0
 800231c:	d140      	bne.n	80023a0 <Measure_IMU+0x90>
 800231e:	2501      	movs	r5, #1
 8002320:	270a      	movs	r7, #10
 8002322:	1943      	adds	r3, r0, r5
 8002324:	9300      	str	r3, [sp, #0]
 8002326:	2229      	movs	r2, #41	; 0x29
 8002328:	462b      	mov	r3, r5
 800232a:	2133      	movs	r1, #51	; 0x33
 800232c:	e9cd 5701 	strd	r5, r7, [sp, #4]
 8002330:	481f      	ldr	r0, [pc, #124]	; (80023b0 <Measure_IMU+0xa0>)
 8002332:	f004 fa91 	bl	8006858 <HAL_I2C_Mem_Read>
 8002336:	1ce3      	adds	r3, r4, #3
 8002338:	7030      	strb	r0, [r6, #0]
 800233a:	9300      	str	r3, [sp, #0]
 800233c:	222b      	movs	r2, #43	; 0x2b
 800233e:	462b      	mov	r3, r5
 8002340:	2133      	movs	r1, #51	; 0x33
 8002342:	e9cd 5701 	strd	r5, r7, [sp, #4]
 8002346:	481a      	ldr	r0, [pc, #104]	; (80023b0 <Measure_IMU+0xa0>)
 8002348:	f004 fa86 	bl	8006858 <HAL_I2C_Mem_Read>
 800234c:	1d63      	adds	r3, r4, #5
 800234e:	7030      	strb	r0, [r6, #0]
 8002350:	9300      	str	r3, [sp, #0]
 8002352:	e9cd 5701 	strd	r5, r7, [sp, #4]
 8002356:	4816      	ldr	r0, [pc, #88]	; (80023b0 <Measure_IMU+0xa0>)
 8002358:	462b      	mov	r3, r5
 800235a:	222d      	movs	r2, #45	; 0x2d
 800235c:	2133      	movs	r1, #51	; 0x33
 800235e:	f004 fa7b 	bl	8006858 <HAL_I2C_Mem_Read>
 8002362:	7030      	strb	r0, [r6, #0]
 8002364:	4813      	ldr	r0, [pc, #76]	; (80023b4 <Measure_IMU+0xa4>)
 8002366:	7802      	ldrb	r2, [r0, #0]
 8002368:	2ac7      	cmp	r2, #199	; 0xc7
 800236a:	d813      	bhi.n	8002394 <Measure_IMU+0x84>
 800236c:	4912      	ldr	r1, [pc, #72]	; (80023b8 <Measure_IMU+0xa8>)
 800236e:	780b      	ldrb	r3, [r1, #0]
 8002370:	2b63      	cmp	r3, #99	; 0x63
 8002372:	d80f      	bhi.n	8002394 <Measure_IMU+0x84>
 8002374:	3201      	adds	r2, #1
 8002376:	7002      	strb	r2, [r0, #0]
 8002378:	7822      	ldrb	r2, [r4, #0]
 800237a:	b95a      	cbnz	r2, 8002394 <Measure_IMU+0x84>
 800237c:	7862      	ldrb	r2, [r4, #1]
 800237e:	b94a      	cbnz	r2, 8002394 <Measure_IMU+0x84>
 8002380:	78a2      	ldrb	r2, [r4, #2]
 8002382:	b93a      	cbnz	r2, 8002394 <Measure_IMU+0x84>
 8002384:	78e2      	ldrb	r2, [r4, #3]
 8002386:	b92a      	cbnz	r2, 8002394 <Measure_IMU+0x84>
 8002388:	7922      	ldrb	r2, [r4, #4]
 800238a:	b91a      	cbnz	r2, 8002394 <Measure_IMU+0x84>
 800238c:	7962      	ldrb	r2, [r4, #5]
 800238e:	b90a      	cbnz	r2, 8002394 <Measure_IMU+0x84>
 8002390:	3301      	adds	r3, #1
 8002392:	700b      	strb	r3, [r1, #0]
 8002394:	4620      	mov	r0, r4
 8002396:	b005      	add	sp, #20
 8002398:	e8bd 40f0 	ldmia.w	sp!, {r4, r5, r6, r7, lr}
 800239c:	f7ff bf54 	b.w	8002248 <imuMsr2floatG_y_bit_res16bit>
 80023a0:	200a      	movs	r0, #10
 80023a2:	f003 fd61 	bl	8005e68 <HAL_Delay>
 80023a6:	2300      	movs	r3, #0
 80023a8:	7033      	strb	r3, [r6, #0]
 80023aa:	e7db      	b.n	8002364 <Measure_IMU+0x54>
 80023ac:	200009d6 	.word	0x200009d6
 80023b0:	20000f70 	.word	0x20000f70
 80023b4:	2000094c 	.word	0x2000094c
 80023b8:	200009d7 	.word	0x200009d7

080023bc <LedOff>:
 80023bc:	b5f0      	push	{r4, r5, r6, r7, lr}
 80023be:	f8d0 50ec 	ldr.w	r5, [r0, #236]	; 0xec
 80023c2:	b085      	sub	sp, #20
 80023c4:	4604      	mov	r4, r0
 80023c6:	bb55      	cbnz	r5, 800241e <LedOff+0x62>
 80023c8:	2601      	movs	r6, #1
 80023ca:	f8c0 60ec 	str.w	r6, [r0, #236]	; 0xec
 80023ce:	4630      	mov	r0, r6
 80023d0:	f7ff fd8c 	bl	8001eec <OutLedWu>
 80023d4:	f244 0320 	movw	r3, #16416	; 0x4020
 80023d8:	f8ad 300c 	strh.w	r3, [sp, #12]
 80023dc:	270a      	movs	r7, #10
 80023de:	2360      	movs	r3, #96	; 0x60
 80023e0:	aa03      	add	r2, sp, #12
 80023e2:	219a      	movs	r1, #154	; 0x9a
 80023e4:	f88d 300e 	strb.w	r3, [sp, #14]
 80023e8:	480e      	ldr	r0, [pc, #56]	; (8002424 <LedOff+0x68>)
 80023ea:	9700      	str	r7, [sp, #0]
 80023ec:	2303      	movs	r3, #3
 80023ee:	f004 f99d 	bl	800672c <HAL_I2C_Master_Transmit>
 80023f2:	f24a 0380 	movw	r3, #41088	; 0xa080
 80023f6:	f8ad 300c 	strh.w	r3, [sp, #12]
 80023fa:	4630      	mov	r0, r6
 80023fc:	23c0      	movs	r3, #192	; 0xc0
 80023fe:	f88d 300e 	strb.w	r3, [sp, #14]
 8002402:	f003 fd31 	bl	8005e68 <HAL_Delay>
 8002406:	2303      	movs	r3, #3
 8002408:	aa03      	add	r2, sp, #12
 800240a:	219a      	movs	r1, #154	; 0x9a
 800240c:	4805      	ldr	r0, [pc, #20]	; (8002424 <LedOff+0x68>)
 800240e:	9700      	str	r7, [sp, #0]
 8002410:	f004 f98c 	bl	800672c <HAL_I2C_Master_Transmit>
 8002414:	4628      	mov	r0, r5
 8002416:	f7ff fd69 	bl	8001eec <OutLedWu>
 800241a:	f8c4 50ec 	str.w	r5, [r4, #236]	; 0xec
 800241e:	b005      	add	sp, #20
 8002420:	bdf0      	pop	{r4, r5, r6, r7, pc}
 8002422:	bf00      	nop
 8002424:	20000f70 	.word	0x20000f70

08002428 <LedOn>:
 8002428:	b5f0      	push	{r4, r5, r6, r7, lr}
 800242a:	461e      	mov	r6, r3
 800242c:	f8d3 30ec 	ldr.w	r3, [r3, #236]	; 0xec
 8002430:	b085      	sub	sp, #20
 8002432:	4607      	mov	r7, r0
 8002434:	460d      	mov	r5, r1
 8002436:	4614      	mov	r4, r2
 8002438:	bb23      	cbnz	r3, 8002484 <LedOn+0x5c>
 800243a:	2001      	movs	r0, #1
 800243c:	f8c6 00ec 	str.w	r0, [r6, #236]	; 0xec
 8002440:	f7ff fd54 	bl	8001eec <OutLedWu>
 8002444:	1e38      	subs	r0, r7, #0
 8002446:	bfb8      	it	lt
 8002448:	3007      	addlt	r0, #7
 800244a:	1e29      	subs	r1, r5, #0
 800244c:	bfb8      	it	lt
 800244e:	3107      	addlt	r1, #7
 8002450:	1e22      	subs	r2, r4, #0
 8002452:	bfb8      	it	lt
 8002454:	3207      	addlt	r2, #7
 8002456:	10c0      	asrs	r0, r0, #3
 8002458:	10c9      	asrs	r1, r1, #3
 800245a:	10d2      	asrs	r2, r2, #3
 800245c:	3020      	adds	r0, #32
 800245e:	3140      	adds	r1, #64	; 0x40
 8002460:	3260      	adds	r2, #96	; 0x60
 8002462:	230a      	movs	r3, #10
 8002464:	f88d 000c 	strb.w	r0, [sp, #12]
 8002468:	f88d 100d 	strb.w	r1, [sp, #13]
 800246c:	f88d 200e 	strb.w	r2, [sp, #14]
 8002470:	9300      	str	r3, [sp, #0]
 8002472:	4805      	ldr	r0, [pc, #20]	; (8002488 <LedOn+0x60>)
 8002474:	2303      	movs	r3, #3
 8002476:	aa03      	add	r2, sp, #12
 8002478:	219a      	movs	r1, #154	; 0x9a
 800247a:	f004 f957 	bl	800672c <HAL_I2C_Master_Transmit>
 800247e:	2300      	movs	r3, #0
 8002480:	f8c6 30ec 	str.w	r3, [r6, #236]	; 0xec
 8002484:	b005      	add	sp, #20
 8002486:	bdf0      	pop	{r4, r5, r6, r7, pc}
 8002488:	20000f70 	.word	0x20000f70

0800248c <PowerSave>:
 800248c:	b510      	push	{r4, lr}
 800248e:	f7ff fd4f 	bl	8001f30 <InOn>
 8002492:	4604      	mov	r4, r0
 8002494:	b950      	cbnz	r0, 80024ac <PowerSave+0x20>
 8002496:	2001      	movs	r0, #1
 8002498:	f7ff fcd6 	bl	8001e48 <OutDone1>
 800249c:	4620      	mov	r0, r4
 800249e:	f7ff fcdf 	bl	8001e60 <OutDone2>
 80024a2:	2064      	movs	r0, #100	; 0x64
 80024a4:	f003 fce0 	bl	8005e68 <HAL_Delay>
 80024a8:	2001      	movs	r0, #1
 80024aa:	bd10      	pop	{r4, pc}
 80024ac:	2000      	movs	r0, #0
 80024ae:	e7fc      	b.n	80024aa <PowerSave+0x1e>

080024b0 <ssd1306_On>:
 80024b0:	b508      	push	{r3, lr}
 80024b2:	2001      	movs	r0, #1
 80024b4:	f7ff fcf6 	bl	8001ea4 <OutOledWu>
 80024b8:	2001      	movs	r0, #1
 80024ba:	f7ff fd2d 	bl	8001f18 <OutOledRst>
 80024be:	2000      	movs	r0, #0
 80024c0:	f7ff fcf0 	bl	8001ea4 <OutOledWu>
 80024c4:	2001      	movs	r0, #1
 80024c6:	f003 fccf 	bl	8005e68 <HAL_Delay>
 80024ca:	2001      	movs	r0, #1
 80024cc:	f7ff fd24 	bl	8001f18 <OutOledRst>
 80024d0:	e8bd 4008 	ldmia.w	sp!, {r3, lr}
 80024d4:	2001      	movs	r0, #1
 80024d6:	f003 bcc7 	b.w	8005e68 <HAL_Delay>

080024da <ScreenOn>:
 80024da:	f7ff bfe9 	b.w	80024b0 <ssd1306_On>

080024de <ScreenOff>:
 80024de:	b508      	push	{r3, lr}
 80024e0:	2001      	movs	r0, #1
 80024e2:	f7ff fcdf 	bl	8001ea4 <OutOledWu>
 80024e6:	e8bd 4008 	ldmia.w	sp!, {r3, lr}
 80024ea:	2000      	movs	r0, #0
 80024ec:	f7ff bd14 	b.w	8001f18 <OutOledRst>

080024f0 <InitTaskState>:
 80024f0:	2301      	movs	r3, #1
 80024f2:	e9c0 3100 	strd	r3, r1, [r0]
 80024f6:	6083      	str	r3, [r0, #8]
 80024f8:	2300      	movs	r3, #0
 80024fa:	e9c0 3303 	strd	r3, r3, [r0, #12]
 80024fe:	4770      	bx	lr

08002500 <TaskState>:
 8002500:	b538      	push	{r3, r4, r5, lr}
 8002502:	6805      	ldr	r5, [r0, #0]
 8002504:	2d01      	cmp	r5, #1
 8002506:	4604      	mov	r4, r0
 8002508:	d001      	beq.n	800250e <TaskState+0xe>
 800250a:	2000      	movs	r0, #0
 800250c:	e015      	b.n	800253a <TaskState+0x3a>
 800250e:	f003 fca5 	bl	8005e5c <HAL_GetTick>
 8002512:	e9d4 3202 	ldrd	r3, r2, [r4, #8]
 8002516:	4293      	cmp	r3, r2
 8002518:	d110      	bne.n	800253c <TaskState+0x3c>
 800251a:	6922      	ldr	r2, [r4, #16]
 800251c:	1a80      	subs	r0, r0, r2
 800251e:	1d1a      	adds	r2, r3, #4
 8002520:	f854 2022 	ldr.w	r2, [r4, r2, lsl #2]
 8002524:	4290      	cmp	r0, r2
 8002526:	d3f0      	bcc.n	800250a <TaskState+0xa>
 8002528:	6862      	ldr	r2, [r4, #4]
 800252a:	4618      	mov	r0, r3
 800252c:	3301      	adds	r3, #1
 800252e:	4293      	cmp	r3, r2
 8002530:	60a3      	str	r3, [r4, #8]
 8002532:	d902      	bls.n	800253a <TaskState+0x3a>
 8002534:	2300      	movs	r3, #0
 8002536:	60a5      	str	r5, [r4, #8]
 8002538:	60e3      	str	r3, [r4, #12]
 800253a:	bd38      	pop	{r3, r4, r5, pc}
 800253c:	e9c4 3003 	strd	r3, r0, [r4, #12]
 8002540:	e7e3      	b.n	800250a <TaskState+0xa>

08002542 <WakeUpNemeusLS>:
 8002542:	b508      	push	{r3, lr}
 8002544:	2001      	movs	r0, #1
 8002546:	f7ff fcb9 	bl	8001ebc <OutLoraWu>
 800254a:	2003      	movs	r0, #3
 800254c:	f003 fc8c 	bl	8005e68 <HAL_Delay>
 8002550:	e8bd 4008 	ldmia.w	sp!, {r3, lr}
 8002554:	2000      	movs	r0, #0
 8002556:	f7ff bcb1 	b.w	8001ebc <OutLoraWu>

0800255a <LoraWanOn>:
 800255a:	4770      	bx	lr

0800255c <SendOnLora>:
 800255c:	4770      	bx	lr

0800255e <SendMessLoraWan>:
 800255e:	4770      	bx	lr

08002560 <SendMess>:
 8002560:	b084      	sub	sp, #16
 8002562:	b538      	push	{r3, r4, r5, lr}
 8002564:	ac05      	add	r4, sp, #20
 8002566:	e884 000e 	stmia.w	r4, {r1, r2, r3}
 800256a:	4605      	mov	r5, r0
 800256c:	f7fd fe30 	bl	80001d0 <strlen>
 8002570:	f44f 737a 	mov.w	r3, #1000	; 0x3e8
 8002574:	b282      	uxth	r2, r0
 8002576:	4629      	mov	r1, r5
 8002578:	4620      	mov	r0, r4
 800257a:	f007 f80f 	bl	800959c <HAL_UART_Transmit>
 800257e:	e8bd 4038 	ldmia.w	sp!, {r3, r4, r5, lr}
 8002582:	b004      	add	sp, #16
 8002584:	4770      	bx	lr
	...

08002588 <RebootNemeusLS>:
 8002588:	b510      	push	{r4, lr}
 800258a:	4c0a      	ldr	r4, [pc, #40]	; (80025b4 <RebootNemeusLS+0x2c>)
 800258c:	b09e      	sub	sp, #120	; 0x78
 800258e:	f104 010c 	add.w	r1, r4, #12
 8002592:	2278      	movs	r2, #120	; 0x78
 8002594:	4668      	mov	r0, sp
 8002596:	f008 ffb1 	bl	800b4fc <memcpy>
 800259a:	e894 000e 	ldmia.w	r4, {r1, r2, r3}
 800259e:	4806      	ldr	r0, [pc, #24]	; (80025b8 <RebootNemeusLS+0x30>)
 80025a0:	f7ff ffde 	bl	8002560 <SendMess>
 80025a4:	f44f 60fa 	mov.w	r0, #2000	; 0x7d0
 80025a8:	b01e      	add	sp, #120	; 0x78
 80025aa:	e8bd 4010 	ldmia.w	sp!, {r4, lr}
 80025ae:	f003 bc5b 	b.w	8005e68 <HAL_Delay>
 80025b2:	bf00      	nop
 80025b4:	200026bc 	.word	0x200026bc
 80025b8:	0800e7ba 	.word	0x0800e7ba

080025bc <SigfoxOn>:
 80025bc:	b510      	push	{r4, lr}
 80025be:	4c0a      	ldr	r4, [pc, #40]	; (80025e8 <SigfoxOn+0x2c>)
 80025c0:	b09e      	sub	sp, #120	; 0x78
 80025c2:	f104 010c 	add.w	r1, r4, #12
 80025c6:	2278      	movs	r2, #120	; 0x78
 80025c8:	4668      	mov	r0, sp
 80025ca:	f008 ff97 	bl	800b4fc <memcpy>
 80025ce:	e894 000e 	ldmia.w	r4, {r1, r2, r3}
 80025d2:	4806      	ldr	r0, [pc, #24]	; (80025ec <SigfoxOn+0x30>)
 80025d4:	f7ff ffc4 	bl	8002560 <SendMess>
 80025d8:	f44f 707a 	mov.w	r0, #1000	; 0x3e8
 80025dc:	b01e      	add	sp, #120	; 0x78
 80025de:	e8bd 4010 	ldmia.w	sp!, {r4, lr}
 80025e2:	f003 bc41 	b.w	8005e68 <HAL_Delay>
 80025e6:	bf00      	nop
 80025e8:	200026bc 	.word	0x200026bc
 80025ec:	0800e7cd 	.word	0x0800e7cd

080025f0 <SendMessSigfox>:
 80025f0:	b510      	push	{r4, lr}
 80025f2:	b0ae      	sub	sp, #184	; 0xb8
 80025f4:	901f      	str	r0, [sp, #124]	; 0x7c
 80025f6:	f7fd fdeb 	bl	80001d0 <strlen>
 80025fa:	2809      	cmp	r0, #9
 80025fc:	9a1f      	ldr	r2, [sp, #124]	; 0x7c
 80025fe:	d811      	bhi.n	8002624 <SendMessSigfox+0x34>
 8002600:	490b      	ldr	r1, [pc, #44]	; (8002630 <SendMessSigfox+0x40>)
 8002602:	a821      	add	r0, sp, #132	; 0x84
 8002604:	f009 fc97 	bl	800bf36 <strcpy>
 8002608:	4c0a      	ldr	r4, [pc, #40]	; (8002634 <SendMessSigfox+0x44>)
 800260a:	2278      	movs	r2, #120	; 0x78
 800260c:	f104 010c 	add.w	r1, r4, #12
 8002610:	4668      	mov	r0, sp
 8002612:	f008 ff73 	bl	800b4fc <memcpy>
 8002616:	e894 000e 	ldmia.w	r4, {r1, r2, r3}
 800261a:	a821      	add	r0, sp, #132	; 0x84
 800261c:	f7ff ffa0 	bl	8002560 <SendMess>
 8002620:	b02e      	add	sp, #184	; 0xb8
 8002622:	bd10      	pop	{r4, pc}
 8002624:	4904      	ldr	r1, [pc, #16]	; (8002638 <SendMessSigfox+0x48>)
 8002626:	a821      	add	r0, sp, #132	; 0x84
 8002628:	f009 fc56 	bl	800bed8 <siprintf>
 800262c:	e7ec      	b.n	8002608 <SendMessSigfox+0x18>
 800262e:	bf00      	nop
 8002630:	0800e7d7 	.word	0x0800e7d7
 8002634:	200026bc 	.word	0x200026bc
 8002638:	0800e7f4 	.word	0x0800e7f4

0800263c <SendOnMessSigfox>:
 800263c:	b510      	push	{r4, lr}
 800263e:	4604      	mov	r4, r0
 8002640:	b09e      	sub	sp, #120	; 0x78
 8002642:	f44f 70fa 	mov.w	r0, #500	; 0x1f4
 8002646:	f003 fc0f 	bl	8005e68 <HAL_Delay>
 800264a:	2c01      	cmp	r4, #1
 800264c:	4c0a      	ldr	r4, [pc, #40]	; (8002678 <SendOnMessSigfox+0x3c>)
 800264e:	f04f 0278 	mov.w	r2, #120	; 0x78
 8002652:	f104 010c 	add.w	r1, r4, #12
 8002656:	4668      	mov	r0, sp
 8002658:	d108      	bne.n	800266c <SendOnMessSigfox+0x30>
 800265a:	f008 ff4f 	bl	800b4fc <memcpy>
 800265e:	e894 000e 	ldmia.w	r4, {r1, r2, r3}
 8002662:	4806      	ldr	r0, [pc, #24]	; (800267c <SendOnMessSigfox+0x40>)
 8002664:	f7ff ff7c 	bl	8002560 <SendMess>
 8002668:	b01e      	add	sp, #120	; 0x78
 800266a:	bd10      	pop	{r4, pc}
 800266c:	f008 ff46 	bl	800b4fc <memcpy>
 8002670:	e894 000e 	ldmia.w	r4, {r1, r2, r3}
 8002674:	4802      	ldr	r0, [pc, #8]	; (8002680 <SendOnMessSigfox+0x44>)
 8002676:	e7f5      	b.n	8002664 <SendOnMessSigfox+0x28>
 8002678:	200026bc 	.word	0x200026bc
 800267c:	0800e807 	.word	0x0800e807
 8002680:	0800e824 	.word	0x0800e824

08002684 <decimal2hexa>:
 8002684:	440a      	add	r2, r1
 8002686:	2330      	movs	r3, #48	; 0x30
 8002688:	4291      	cmp	r1, r2
 800268a:	d10a      	bne.n	80026a2 <decimal2hexa+0x1e>
 800268c:	4a06      	ldr	r2, [pc, #24]	; (80026a8 <decimal2hexa+0x24>)
 800268e:	f000 030f 	and.w	r3, r0, #15
 8002692:	280f      	cmp	r0, #15
 8002694:	5cd3      	ldrb	r3, [r2, r3]
 8002696:	f801 3d01 	strb.w	r3, [r1, #-1]!
 800269a:	ea4f 1010 	mov.w	r0, r0, lsr #4
 800269e:	d8f6      	bhi.n	800268e <decimal2hexa+0xa>
 80026a0:	4770      	bx	lr
 80026a2:	f801 3b01 	strb.w	r3, [r1], #1
 80026a6:	e7ef      	b.n	8002688 <decimal2hexa+0x4>
 80026a8:	0800e863 	.word	0x0800e863

080026ac <BuildMessGPS>:
 80026ac:	e92d 47f0 	stmdb	sp!, {r4, r5, r6, r7, r8, r9, sl, lr}
 80026b0:	ed2d 8b02 	vpush	{d8}
 80026b4:	ed92 8a06 	vldr	s16, [r2, #24]
 80026b8:	f8d1 70e0 	ldr.w	r7, [r1, #224]	; 0xe0
 80026bc:	eeb5 8ac0 	vcmpe.f32	s16, #0.0
 80026c0:	eef1 fa10 	vmrs	APSR_nzcv, fpscr
 80026c4:	f04f 0400 	mov.w	r4, #0
 80026c8:	bfcc      	ite	gt
 80026ca:	2601      	movgt	r6, #1
 80026cc:	f04f 36ff 	movle.w	r6, #4294967295
 80026d0:	2f01      	cmp	r7, #1
 80026d2:	b094      	sub	sp, #80	; 0x50
 80026d4:	4681      	mov	r9, r0
 80026d6:	4688      	mov	r8, r1
 80026d8:	469a      	mov	sl, r3
 80026da:	4625      	mov	r5, r4
 80026dc:	d172      	bne.n	80027c4 <BuildMessGPS+0x118>
 80026de:	2e01      	cmp	r6, #1
 80026e0:	f04f 0530 	mov.w	r5, #48	; 0x30
 80026e4:	f000 80b6 	beq.w	8002854 <BuildMessGPS+0x1a8>
 80026e8:	2431      	movs	r4, #49	; 0x31
 80026ea:	ed92 0a05 	vldr	s0, [r2, #20]
 80026ee:	eddf 7a5a 	vldr	s15, [pc, #360]	; 8002858 <BuildMessGPS+0x1ac>
 80026f2:	ee20 0a27 	vmul.f32	s0, s0, s15
 80026f6:	eeb0 0ac0 	vabs.f32	s0, s0
 80026fa:	f00b fe25 	bl	800e348 <roundf>
 80026fe:	eefd 8ac0 	vcvt.s32.f32	s17, s0
 8002702:	ed9f 0a56 	vldr	s0, [pc, #344]	; 800285c <BuildMessGPS+0x1b0>
 8002706:	ee28 0a00 	vmul.f32	s0, s16, s0
 800270a:	eeb0 0ac0 	vabs.f32	s0, s0
 800270e:	f00b fe1b 	bl	800e348 <roundf>
 8002712:	eebd 8ac0 	vcvt.s32.f32	s16, s0
 8002716:	f003 fba1 	bl	8005e5c <HAL_GetTick>
 800271a:	f8da 6008 	ldr.w	r6, [sl, #8]
 800271e:	b15e      	cbz	r6, 8002738 <BuildMessGPS+0x8c>
 8002720:	1b80      	subs	r0, r0, r6
 8002722:	f64e 2360 	movw	r3, #60000	; 0xea60
 8002726:	f640 76ff 	movw	r6, #4095	; 0xfff
 800272a:	fbb0 f3f3 	udiv	r3, r0, r3
 800272e:	3301      	adds	r3, #1
 8002730:	f5b3 7ff0 	cmp.w	r3, #480	; 0x1e0
 8002734:	bf98      	it	ls
 8002736:	461e      	movls	r6, r3
 8002738:	ee18 0a90 	vmov	r0, s17
 800273c:	a910      	add	r1, sp, #64	; 0x40
 800273e:	2205      	movs	r2, #5
 8002740:	f7ff ffa0 	bl	8002684 <decimal2hexa>
 8002744:	ee18 0a10 	vmov	r0, s16
 8002748:	a912      	add	r1, sp, #72	; 0x48
 800274a:	2205      	movs	r2, #5
 800274c:	f7ff ff9a 	bl	8002684 <decimal2hexa>
 8002750:	a90f      	add	r1, sp, #60	; 0x3c
 8002752:	4630      	mov	r0, r6
 8002754:	2203      	movs	r2, #3
 8002756:	f7ff ff95 	bl	8002684 <decimal2hexa>
 800275a:	f8d8 3114 	ldr.w	r3, [r8, #276]	; 0x114
 800275e:	930d      	str	r3, [sp, #52]	; 0x34
 8002760:	f89d 303e 	ldrb.w	r3, [sp, #62]	; 0x3e
 8002764:	930c      	str	r3, [sp, #48]	; 0x30
 8002766:	f89d 303d 	ldrb.w	r3, [sp, #61]	; 0x3d
 800276a:	930b      	str	r3, [sp, #44]	; 0x2c
 800276c:	f89d 303c 	ldrb.w	r3, [sp, #60]	; 0x3c
 8002770:	930a      	str	r3, [sp, #40]	; 0x28
 8002772:	f89d 304c 	ldrb.w	r3, [sp, #76]	; 0x4c
 8002776:	9309      	str	r3, [sp, #36]	; 0x24
 8002778:	f89d 304b 	ldrb.w	r3, [sp, #75]	; 0x4b
 800277c:	9308      	str	r3, [sp, #32]
 800277e:	f89d 304a 	ldrb.w	r3, [sp, #74]	; 0x4a
 8002782:	9307      	str	r3, [sp, #28]
 8002784:	f89d 3049 	ldrb.w	r3, [sp, #73]	; 0x49
 8002788:	9306      	str	r3, [sp, #24]
 800278a:	f89d 3048 	ldrb.w	r3, [sp, #72]	; 0x48
 800278e:	9305      	str	r3, [sp, #20]
 8002790:	f89d 3044 	ldrb.w	r3, [sp, #68]	; 0x44
 8002794:	9304      	str	r3, [sp, #16]
 8002796:	f89d 3043 	ldrb.w	r3, [sp, #67]	; 0x43
 800279a:	9303      	str	r3, [sp, #12]
 800279c:	f89d 3042 	ldrb.w	r3, [sp, #66]	; 0x42
 80027a0:	9302      	str	r3, [sp, #8]
 80027a2:	f89d 3041 	ldrb.w	r3, [sp, #65]	; 0x41
 80027a6:	9301      	str	r3, [sp, #4]
 80027a8:	f89d 3040 	ldrb.w	r3, [sp, #64]	; 0x40
 80027ac:	9300      	str	r3, [sp, #0]
 80027ae:	492c      	ldr	r1, [pc, #176]	; (8002860 <BuildMessGPS+0x1b4>)
 80027b0:	462b      	mov	r3, r5
 80027b2:	4622      	mov	r2, r4
 80027b4:	4648      	mov	r0, r9
 80027b6:	f009 fb8f 	bl	800bed8 <siprintf>
 80027ba:	b014      	add	sp, #80	; 0x50
 80027bc:	ecbd 8b02 	vpop	{d8}
 80027c0:	e8bd 87f0 	ldmia.w	sp!, {r4, r5, r6, r7, r8, r9, sl, pc}
 80027c4:	2f0d      	cmp	r7, #13
 80027c6:	d106      	bne.n	80027d6 <BuildMessGPS+0x12a>
 80027c8:	2e01      	cmp	r6, #1
 80027ca:	f04f 0530 	mov.w	r5, #48	; 0x30
 80027ce:	bf0c      	ite	eq
 80027d0:	2432      	moveq	r4, #50	; 0x32
 80027d2:	2433      	movne	r4, #51	; 0x33
 80027d4:	e789      	b.n	80026ea <BuildMessGPS+0x3e>
 80027d6:	2f06      	cmp	r7, #6
 80027d8:	d106      	bne.n	80027e8 <BuildMessGPS+0x13c>
 80027da:	2e01      	cmp	r6, #1
 80027dc:	f04f 0530 	mov.w	r5, #48	; 0x30
 80027e0:	bf0c      	ite	eq
 80027e2:	2434      	moveq	r4, #52	; 0x34
 80027e4:	2435      	movne	r4, #53	; 0x35
 80027e6:	e780      	b.n	80026ea <BuildMessGPS+0x3e>
 80027e8:	2f02      	cmp	r7, #2
 80027ea:	d106      	bne.n	80027fa <BuildMessGPS+0x14e>
 80027ec:	2e01      	cmp	r6, #1
 80027ee:	f04f 0530 	mov.w	r5, #48	; 0x30
 80027f2:	bf0c      	ite	eq
 80027f4:	2438      	moveq	r4, #56	; 0x38
 80027f6:	2439      	movne	r4, #57	; 0x39
 80027f8:	e777      	b.n	80026ea <BuildMessGPS+0x3e>
 80027fa:	2f09      	cmp	r7, #9
 80027fc:	d105      	bne.n	800280a <BuildMessGPS+0x15e>
 80027fe:	2e01      	cmp	r6, #1
 8002800:	bf0c      	ite	eq
 8002802:	2530      	moveq	r5, #48	; 0x30
 8002804:	2531      	movne	r5, #49	; 0x31
 8002806:	2441      	movs	r4, #65	; 0x41
 8002808:	e76f      	b.n	80026ea <BuildMessGPS+0x3e>
 800280a:	2f07      	cmp	r7, #7
 800280c:	d104      	bne.n	8002818 <BuildMessGPS+0x16c>
 800280e:	2e01      	cmp	r6, #1
 8002810:	bf0c      	ite	eq
 8002812:	2532      	moveq	r5, #50	; 0x32
 8002814:	2533      	movne	r5, #51	; 0x33
 8002816:	e7f6      	b.n	8002806 <BuildMessGPS+0x15a>
 8002818:	2f08      	cmp	r7, #8
 800281a:	d104      	bne.n	8002826 <BuildMessGPS+0x17a>
 800281c:	2e01      	cmp	r6, #1
 800281e:	bf0c      	ite	eq
 8002820:	2534      	moveq	r5, #52	; 0x34
 8002822:	2535      	movne	r5, #53	; 0x35
 8002824:	e7ef      	b.n	8002806 <BuildMessGPS+0x15a>
 8002826:	2f0a      	cmp	r7, #10
 8002828:	d104      	bne.n	8002834 <BuildMessGPS+0x188>
 800282a:	2e01      	cmp	r6, #1
 800282c:	bf0c      	ite	eq
 800282e:	2536      	moveq	r5, #54	; 0x36
 8002830:	2537      	movne	r5, #55	; 0x37
 8002832:	e7e8      	b.n	8002806 <BuildMessGPS+0x15a>
 8002834:	2f0b      	cmp	r7, #11
 8002836:	d104      	bne.n	8002842 <BuildMessGPS+0x196>
 8002838:	2e01      	cmp	r6, #1
 800283a:	bf0c      	ite	eq
 800283c:	2538      	moveq	r5, #56	; 0x38
 800283e:	2539      	movne	r5, #57	; 0x39
 8002840:	e7e1      	b.n	8002806 <BuildMessGPS+0x15a>
 8002842:	2f0c      	cmp	r7, #12
 8002844:	f47f af51 	bne.w	80026ea <BuildMessGPS+0x3e>
 8002848:	2e01      	cmp	r6, #1
 800284a:	bf0c      	ite	eq
 800284c:	2530      	moveq	r5, #48	; 0x30
 800284e:	2531      	movne	r5, #49	; 0x31
 8002850:	2442      	movs	r4, #66	; 0x42
 8002852:	e74a      	b.n	80026ea <BuildMessGPS+0x3e>
 8002854:	462c      	mov	r4, r5
 8002856:	e748      	b.n	80026ea <BuildMessGPS+0x3e>
 8002858:	461c4000 	.word	0x461c4000
 800285c:	47c35000 	.word	0x47c35000
 8002860:	0800e841 	.word	0x0800e841

08002864 <TaskBigScreen>:
 8002864:	b5f0      	push	{r4, r5, r6, r7, lr}
 8002866:	f8d2 70d0 	ldr.w	r7, [r2, #208]	; 0xd0
 800286a:	b095      	sub	sp, #84	; 0x54
 800286c:	2f01      	cmp	r7, #1
 800286e:	9e1b      	ldr	r6, [sp, #108]	; 0x6c
 8002870:	4614      	mov	r4, r2
 8002872:	461d      	mov	r5, r3
 8002874:	d123      	bne.n	80028be <TaskBigScreen+0x5a>
 8002876:	9107      	str	r1, [sp, #28]
 8002878:	f7ff fe42 	bl	8002500 <TaskState>
 800287c:	2802      	cmp	r0, #2
 800287e:	d020      	beq.n	80028c2 <TaskBigScreen+0x5e>
 8002880:	2803      	cmp	r0, #3
 8002882:	d028      	beq.n	80028d6 <TaskBigScreen+0x72>
 8002884:	2801      	cmp	r0, #1
 8002886:	9907      	ldr	r1, [sp, #28]
 8002888:	d119      	bne.n	80028be <TaskBigScreen+0x5a>
 800288a:	f8d4 3090 	ldr.w	r3, [r4, #144]	; 0x90
 800288e:	b9b3      	cbnz	r3, 80028be <TaskBigScreen+0x5a>
 8002890:	4b14      	ldr	r3, [pc, #80]	; (80028e4 <TaskBigScreen+0x80>)
 8002892:	f8d4 20a0 	ldr.w	r2, [r4, #160]	; 0xa0
 8002896:	701a      	strb	r2, [r3, #0]
 8002898:	4b13      	ldr	r3, [pc, #76]	; (80028e8 <TaskBigScreen+0x84>)
 800289a:	f8d4 20a8 	ldr.w	r2, [r4, #168]	; 0xa8
 800289e:	701a      	strb	r2, [r3, #0]
 80028a0:	ab11      	add	r3, sp, #68	; 0x44
 80028a2:	9304      	str	r3, [sp, #16]
 80028a4:	ab0e      	add	r3, sp, #56	; 0x38
 80028a6:	9303      	str	r3, [sp, #12]
 80028a8:	ab0b      	add	r3, sp, #44	; 0x2c
 80028aa:	9302      	str	r3, [sp, #8]
 80028ac:	ab08      	add	r3, sp, #32
 80028ae:	9301      	str	r3, [sp, #4]
 80028b0:	9b1c      	ldr	r3, [sp, #112]	; 0x70
 80028b2:	9300      	str	r3, [sp, #0]
 80028b4:	4622      	mov	r2, r4
 80028b6:	9b1a      	ldr	r3, [sp, #104]	; 0x68
 80028b8:	4628      	mov	r0, r5
 80028ba:	f7fe ffcd 	bl	8001858 <display_dco>
 80028be:	b015      	add	sp, #84	; 0x54
 80028c0:	bdf0      	pop	{r4, r5, r6, r7, pc}
 80028c2:	f8d4 3090 	ldr.w	r3, [r4, #144]	; 0x90
 80028c6:	2b00      	cmp	r3, #0
 80028c8:	d0f9      	beq.n	80028be <TaskBigScreen+0x5a>
 80028ca:	2200      	movs	r2, #0
 80028cc:	4631      	mov	r1, r6
 80028ce:	4620      	mov	r0, r4
 80028d0:	f7fe fc8a 	bl	80011e8 <display_AlerteDanger>
 80028d4:	e7f3      	b.n	80028be <TaskBigScreen+0x5a>
 80028d6:	f8d4 3090 	ldr.w	r3, [r4, #144]	; 0x90
 80028da:	2b00      	cmp	r3, #0
 80028dc:	d0ef      	beq.n	80028be <TaskBigScreen+0x5a>
 80028de:	463a      	mov	r2, r7
 80028e0:	e7f4      	b.n	80028cc <TaskBigScreen+0x68>
 80028e2:	bf00      	nop
 80028e4:	200009f5 	.word	0x200009f5
 80028e8:	200009df 	.word	0x200009df

080028ec <TaskLedBlinking>:
 80028ec:	f8d1 30ac 	ldr.w	r3, [r1, #172]	; 0xac
 80028f0:	2b01      	cmp	r3, #1
 80028f2:	b510      	push	{r4, lr}
 80028f4:	460c      	mov	r4, r1
 80028f6:	d10e      	bne.n	8002916 <TaskLedBlinking+0x2a>
 80028f8:	f8d1 30a8 	ldr.w	r3, [r1, #168]	; 0xa8
 80028fc:	f8d1 0190 	ldr.w	r0, [r1, #400]	; 0x190
 8002900:	680a      	ldr	r2, [r1, #0]
 8002902:	2b63      	cmp	r3, #99	; 0x63
 8002904:	460b      	mov	r3, r1
 8002906:	bfca      	itet	gt
 8002908:	4601      	movgt	r1, r0
 800290a:	4611      	movle	r1, r2
 800290c:	4610      	movgt	r0, r2
 800290e:	e8bd 4010 	ldmia.w	sp!, {r4, lr}
 8002912:	f7ff bd89 	b.w	8002428 <LedOn>
 8002916:	f7ff fdf3 	bl	8002500 <TaskState>
 800291a:	2801      	cmp	r0, #1
 800291c:	d002      	beq.n	8002924 <TaskLedBlinking+0x38>
 800291e:	2802      	cmp	r0, #2
 8002920:	d006      	beq.n	8002930 <TaskLedBlinking+0x44>
 8002922:	bd10      	pop	{r4, pc}
 8002924:	e9d4 1231 	ldrd	r1, r2, [r4, #196]	; 0xc4
 8002928:	f8d4 00c0 	ldr.w	r0, [r4, #192]	; 0xc0
 800292c:	4623      	mov	r3, r4
 800292e:	e7ee      	b.n	800290e <TaskLedBlinking+0x22>
 8002930:	e9d4 122e 	ldrd	r1, r2, [r4, #184]	; 0xb8
 8002934:	f8d4 00b4 	ldr.w	r0, [r4, #180]	; 0xb4
 8002938:	4623      	mov	r3, r4
 800293a:	e7e8      	b.n	800290e <TaskLedBlinking+0x22>

0800293c <TaskUpdateUpperLed>:
 800293c:	b510      	push	{r4, lr}
 800293e:	460c      	mov	r4, r1
 8002940:	f7ff fdde 	bl	8002500 <TaskState>
 8002944:	2801      	cmp	r0, #1
 8002946:	d12a      	bne.n	800299e <TaskUpdateUpperLed+0x62>
 8002948:	f8d4 30ac 	ldr.w	r3, [r4, #172]	; 0xac
 800294c:	2b01      	cmp	r3, #1
 800294e:	d003      	beq.n	8002958 <TaskUpdateUpperLed+0x1c>
 8002950:	f8d4 20b0 	ldr.w	r2, [r4, #176]	; 0xb0
 8002954:	2a01      	cmp	r2, #1
 8002956:	d111      	bne.n	800297c <TaskUpdateUpperLed+0x40>
 8002958:	f8d4 10a8 	ldr.w	r1, [r4, #168]	; 0xa8
 800295c:	2963      	cmp	r1, #99	; 0x63
 800295e:	dc1f      	bgt.n	80029a0 <TaskUpdateUpperLed+0x64>
 8002960:	2200      	movs	r2, #0
 8002962:	2032      	movs	r0, #50	; 0x32
 8002964:	2b01      	cmp	r3, #1
 8002966:	e9c4 022d 	strd	r0, r2, [r4, #180]	; 0xb4
 800296a:	e9c4 202f 	strd	r2, r0, [r4, #188]	; 0xbc
 800296e:	e9c4 2231 	strd	r2, r2, [r4, #196]	; 0xc4
 8002972:	d014      	beq.n	800299e <TaskUpdateUpperLed+0x62>
 8002974:	f8d4 20b0 	ldr.w	r2, [r4, #176]	; 0xb0
 8002978:	2a01      	cmp	r2, #1
 800297a:	d013      	beq.n	80029a4 <TaskUpdateUpperLed+0x68>
 800297c:	b97b      	cbnz	r3, 800299e <TaskUpdateUpperLed+0x62>
 800297e:	f8d4 20b0 	ldr.w	r2, [r4, #176]	; 0xb0
 8002982:	b962      	cbnz	r2, 800299e <TaskUpdateUpperLed+0x62>
 8002984:	f8d4 20a8 	ldr.w	r2, [r4, #168]	; 0xa8
 8002988:	2a31      	cmp	r2, #49	; 0x31
 800298a:	dd16      	ble.n	80029ba <TaskUpdateUpperLed+0x7e>
 800298c:	f8c4 30b4 	str.w	r3, [r4, #180]	; 0xb4
 8002990:	2232      	movs	r2, #50	; 0x32
 8002992:	f8c4 20b8 	str.w	r2, [r4, #184]	; 0xb8
 8002996:	e9c4 332f 	strd	r3, r3, [r4, #188]	; 0xbc
 800299a:	e9c4 3331 	strd	r3, r3, [r4, #196]	; 0xc4
 800299e:	bd10      	pop	{r4, pc}
 80029a0:	2b01      	cmp	r3, #1
 80029a2:	d1e7      	bne.n	8002974 <TaskUpdateUpperLed+0x38>
 80029a4:	2964      	cmp	r1, #100	; 0x64
 80029a6:	d1e9      	bne.n	800297c <TaskUpdateUpperLed+0x40>
 80029a8:	2200      	movs	r2, #0
 80029aa:	2132      	movs	r1, #50	; 0x32
 80029ac:	e9c4 212d 	strd	r2, r1, [r4, #180]	; 0xb4
 80029b0:	e9c4 222f 	strd	r2, r2, [r4, #188]	; 0xbc
 80029b4:	e9c4 1231 	strd	r1, r2, [r4, #196]	; 0xc4
 80029b8:	e7e0      	b.n	800297c <TaskUpdateUpperLed+0x40>
 80029ba:	3a14      	subs	r2, #20
 80029bc:	2a1d      	cmp	r2, #29
 80029be:	d804      	bhi.n	80029ca <TaskUpdateUpperLed+0x8e>
 80029c0:	227f      	movs	r2, #127	; 0x7f
 80029c2:	f8c4 20b4 	str.w	r2, [r4, #180]	; 0xb4
 80029c6:	220a      	movs	r2, #10
 80029c8:	e7e3      	b.n	8002992 <TaskUpdateUpperLed+0x56>
 80029ca:	2264      	movs	r2, #100	; 0x64
 80029cc:	e9c4 232d 	strd	r2, r3, [r4, #180]	; 0xb4
 80029d0:	e7e1      	b.n	8002996 <TaskUpdateUpperLed+0x5a>

080029d2 <TaskCharger>:
 80029d2:	b537      	push	{r0, r1, r2, r4, r5, lr}
 80029d4:	f8d0 50ec 	ldr.w	r5, [r0, #236]	; 0xec
 80029d8:	2300      	movs	r3, #0
 80029da:	e9cd 3300 	strd	r3, r3, [sp]
 80029de:	4604      	mov	r4, r0
 80029e0:	b94d      	cbnz	r5, 80029f6 <TaskCharger+0x24>
 80029e2:	2301      	movs	r3, #1
 80029e4:	f8c0 30ec 	str.w	r3, [r0, #236]	; 0xec
 80029e8:	4602      	mov	r2, r0
 80029ea:	a901      	add	r1, sp, #4
 80029ec:	4668      	mov	r0, sp
 80029ee:	f7ff f877 	bl	8001ae0 <chargerRead>
 80029f2:	f8c4 50ec 	str.w	r5, [r4, #236]	; 0xec
 80029f6:	9b00      	ldr	r3, [sp, #0]
 80029f8:	f8c4 30b0 	str.w	r3, [r4, #176]	; 0xb0
 80029fc:	9b01      	ldr	r3, [sp, #4]
 80029fe:	f8c4 30ac 	str.w	r3, [r4, #172]	; 0xac
 8002a02:	b003      	add	sp, #12
 8002a04:	bd30      	pop	{r4, r5, pc}

08002a06 <TaskReadBat>:
 8002a06:	b513      	push	{r0, r1, r4, lr}
 8002a08:	2201      	movs	r2, #1
 8002a0a:	4604      	mov	r4, r0
 8002a0c:	4603      	mov	r3, r0
 8002a0e:	4611      	mov	r1, r2
 8002a10:	a801      	add	r0, sp, #4
 8002a12:	f7ff f88d 	bl	8001b30 <ReadBat>
 8002a16:	9b01      	ldr	r3, [sp, #4]
 8002a18:	f8c4 30a8 	str.w	r3, [r4, #168]	; 0xa8
 8002a1c:	b002      	add	sp, #8
 8002a1e:	bd10      	pop	{r4, pc}

08002a20 <TaskExtButton>:
 8002a20:	e92d 43f8 	stmdb	sp!, {r3, r4, r5, r6, r7, r8, r9, lr}
 8002a24:	6d83      	ldr	r3, [r0, #88]	; 0x58
 8002a26:	2b1e      	cmp	r3, #30
 8002a28:	4606      	mov	r6, r0
 8002a2a:	dc05      	bgt.n	8002a38 <TaskExtButton+0x18>
 8002a2c:	4b86      	ldr	r3, [pc, #536]	; (8002c48 <TaskExtButton+0x228>)
 8002a2e:	681a      	ldr	r2, [r3, #0]
 8002a30:	4b86      	ldr	r3, [pc, #536]	; (8002c4c <TaskExtButton+0x22c>)
 8002a32:	429a      	cmp	r2, r3
 8002a34:	f240 80be 	bls.w	8002bb4 <TaskExtButton+0x194>
 8002a38:	2064      	movs	r0, #100	; 0x64
 8002a3a:	f7ff f844 	bl	8001ac6 <PowerVib>
 8002a3e:	2001      	movs	r0, #1
 8002a40:	f7fe fd6e 	bl	8001520 <display_wait>
 8002a44:	f8df 8200 	ldr.w	r8, [pc, #512]	; 8002c48 <TaskExtButton+0x228>
 8002a48:	4f80      	ldr	r7, [pc, #512]	; (8002c4c <TaskExtButton+0x22c>)
 8002a4a:	2532      	movs	r5, #50	; 0x32
 8002a4c:	200a      	movs	r0, #10
 8002a4e:	f003 fa0b 	bl	8005e68 <HAL_Delay>
 8002a52:	f7ff fa6d 	bl	8001f30 <InOn>
 8002a56:	3d01      	subs	r5, #1
 8002a58:	4604      	mov	r4, r0
 8002a5a:	d012      	beq.n	8002a82 <TaskExtButton+0x62>
 8002a5c:	2801      	cmp	r0, #1
 8002a5e:	d0f5      	beq.n	8002a4c <TaskExtButton+0x2c>
 8002a60:	f8d8 3000 	ldr.w	r3, [r8]
 8002a64:	42bb      	cmp	r3, r7
 8002a66:	d8f1      	bhi.n	8002a4c <TaskExtButton+0x2c>
 8002a68:	2400      	movs	r4, #0
 8002a6a:	f8df 91dc 	ldr.w	r9, [pc, #476]	; 8002c48 <TaskExtButton+0x228>
 8002a6e:	f8df 81dc 	ldr.w	r8, [pc, #476]	; 8002c4c <TaskExtButton+0x22c>
 8002a72:	2732      	movs	r7, #50	; 0x32
 8002a74:	b98c      	cbnz	r4, 8002a9a <TaskExtButton+0x7a>
 8002a76:	f8d9 3000 	ldr.w	r3, [r9]
 8002a7a:	4543      	cmp	r3, r8
 8002a7c:	d80d      	bhi.n	8002a9a <TaskExtButton+0x7a>
 8002a7e:	2500      	movs	r5, #0
 8002a80:	e024      	b.n	8002acc <TaskExtButton+0xac>
 8002a82:	2801      	cmp	r0, #1
 8002a84:	d005      	beq.n	8002a92 <TaskExtButton+0x72>
 8002a86:	4b70      	ldr	r3, [pc, #448]	; (8002c48 <TaskExtButton+0x228>)
 8002a88:	681a      	ldr	r2, [r3, #0]
 8002a8a:	4b70      	ldr	r3, [pc, #448]	; (8002c4c <TaskExtButton+0x22c>)
 8002a8c:	429a      	cmp	r2, r3
 8002a8e:	462c      	mov	r4, r5
 8002a90:	d9eb      	bls.n	8002a6a <TaskExtButton+0x4a>
 8002a92:	2002      	movs	r0, #2
 8002a94:	f7fe fd44 	bl	8001520 <display_wait>
 8002a98:	e7e7      	b.n	8002a6a <TaskExtButton+0x4a>
 8002a9a:	200a      	movs	r0, #10
 8002a9c:	f003 f9e4 	bl	8005e68 <HAL_Delay>
 8002aa0:	f7ff fa46 	bl	8001f30 <InOn>
 8002aa4:	f100 3cff 	add.w	ip, r0, #4294967295
 8002aa8:	f1dc 0400 	rsbs	r4, ip, #0
 8002aac:	eb44 040c 	adc.w	r4, r4, ip
 8002ab0:	3f01      	subs	r7, #1
 8002ab2:	4605      	mov	r5, r0
 8002ab4:	d1de      	bne.n	8002a74 <TaskExtButton+0x54>
 8002ab6:	2801      	cmp	r0, #1
 8002ab8:	d005      	beq.n	8002ac6 <TaskExtButton+0xa6>
 8002aba:	4b63      	ldr	r3, [pc, #396]	; (8002c48 <TaskExtButton+0x228>)
 8002abc:	681a      	ldr	r2, [r3, #0]
 8002abe:	4b63      	ldr	r3, [pc, #396]	; (8002c4c <TaskExtButton+0x22c>)
 8002ac0:	429a      	cmp	r2, r3
 8002ac2:	d9dc      	bls.n	8002a7e <TaskExtButton+0x5e>
 8002ac4:	463d      	mov	r5, r7
 8002ac6:	2003      	movs	r0, #3
 8002ac8:	f7fe fd2a 	bl	8001520 <display_wait>
 8002acc:	f8df 9178 	ldr.w	r9, [pc, #376]	; 8002c48 <TaskExtButton+0x228>
 8002ad0:	f8df 8178 	ldr.w	r8, [pc, #376]	; 8002c4c <TaskExtButton+0x22c>
 8002ad4:	2732      	movs	r7, #50	; 0x32
 8002ad6:	2d01      	cmp	r5, #1
 8002ad8:	d005      	beq.n	8002ae6 <TaskExtButton+0xc6>
 8002ada:	f8d9 3000 	ldr.w	r3, [r9]
 8002ade:	4543      	cmp	r3, r8
 8002ae0:	d801      	bhi.n	8002ae6 <TaskExtButton+0xc6>
 8002ae2:	2400      	movs	r4, #0
 8002ae4:	e015      	b.n	8002b12 <TaskExtButton+0xf2>
 8002ae6:	200a      	movs	r0, #10
 8002ae8:	f003 f9be 	bl	8005e68 <HAL_Delay>
 8002aec:	f7ff fa20 	bl	8001f30 <InOn>
 8002af0:	4604      	mov	r4, r0
 8002af2:	3801      	subs	r0, #1
 8002af4:	4245      	negs	r5, r0
 8002af6:	4145      	adcs	r5, r0
 8002af8:	3f01      	subs	r7, #1
 8002afa:	d1ec      	bne.n	8002ad6 <TaskExtButton+0xb6>
 8002afc:	2c01      	cmp	r4, #1
 8002afe:	d005      	beq.n	8002b0c <TaskExtButton+0xec>
 8002b00:	4b51      	ldr	r3, [pc, #324]	; (8002c48 <TaskExtButton+0x228>)
 8002b02:	681a      	ldr	r2, [r3, #0]
 8002b04:	4b51      	ldr	r3, [pc, #324]	; (8002c4c <TaskExtButton+0x22c>)
 8002b06:	429a      	cmp	r2, r3
 8002b08:	d9eb      	bls.n	8002ae2 <TaskExtButton+0xc2>
 8002b0a:	463c      	mov	r4, r7
 8002b0c:	2004      	movs	r0, #4
 8002b0e:	f7fe fd07 	bl	8001520 <display_wait>
 8002b12:	f8df 9134 	ldr.w	r9, [pc, #308]	; 8002c48 <TaskExtButton+0x228>
 8002b16:	f8df 8134 	ldr.w	r8, [pc, #308]	; 8002c4c <TaskExtButton+0x22c>
 8002b1a:	2732      	movs	r7, #50	; 0x32
 8002b1c:	2c01      	cmp	r4, #1
 8002b1e:	d005      	beq.n	8002b2c <TaskExtButton+0x10c>
 8002b20:	f8d9 3000 	ldr.w	r3, [r9]
 8002b24:	4543      	cmp	r3, r8
 8002b26:	d801      	bhi.n	8002b2c <TaskExtButton+0x10c>
 8002b28:	2500      	movs	r5, #0
 8002b2a:	e015      	b.n	8002b58 <TaskExtButton+0x138>
 8002b2c:	200a      	movs	r0, #10
 8002b2e:	f003 f99b 	bl	8005e68 <HAL_Delay>
 8002b32:	f7ff f9fd 	bl	8001f30 <InOn>
 8002b36:	1e41      	subs	r1, r0, #1
 8002b38:	424c      	negs	r4, r1
 8002b3a:	414c      	adcs	r4, r1
 8002b3c:	3f01      	subs	r7, #1
 8002b3e:	4605      	mov	r5, r0
 8002b40:	d1ec      	bne.n	8002b1c <TaskExtButton+0xfc>
 8002b42:	2801      	cmp	r0, #1
 8002b44:	d005      	beq.n	8002b52 <TaskExtButton+0x132>
 8002b46:	4b40      	ldr	r3, [pc, #256]	; (8002c48 <TaskExtButton+0x228>)
 8002b48:	681a      	ldr	r2, [r3, #0]
 8002b4a:	4b40      	ldr	r3, [pc, #256]	; (8002c4c <TaskExtButton+0x22c>)
 8002b4c:	429a      	cmp	r2, r3
 8002b4e:	d9eb      	bls.n	8002b28 <TaskExtButton+0x108>
 8002b50:	463d      	mov	r5, r7
 8002b52:	2005      	movs	r0, #5
 8002b54:	f7fe fce4 	bl	8001520 <display_wait>
 8002b58:	f8df 90ec 	ldr.w	r9, [pc, #236]	; 8002c48 <TaskExtButton+0x228>
 8002b5c:	f8df 80ec 	ldr.w	r8, [pc, #236]	; 8002c4c <TaskExtButton+0x22c>
 8002b60:	2732      	movs	r7, #50	; 0x32
 8002b62:	2d01      	cmp	r5, #1
 8002b64:	d005      	beq.n	8002b72 <TaskExtButton+0x152>
 8002b66:	f8d9 3000 	ldr.w	r3, [r9]
 8002b6a:	4543      	cmp	r3, r8
 8002b6c:	d801      	bhi.n	8002b72 <TaskExtButton+0x152>
 8002b6e:	2400      	movs	r4, #0
 8002b70:	e015      	b.n	8002b9e <TaskExtButton+0x17e>
 8002b72:	200a      	movs	r0, #10
 8002b74:	f003 f978 	bl	8005e68 <HAL_Delay>
 8002b78:	f7ff f9da 	bl	8001f30 <InOn>
 8002b7c:	1e42      	subs	r2, r0, #1
 8002b7e:	4255      	negs	r5, r2
 8002b80:	4155      	adcs	r5, r2
 8002b82:	3f01      	subs	r7, #1
 8002b84:	4604      	mov	r4, r0
 8002b86:	d1ec      	bne.n	8002b62 <TaskExtButton+0x142>
 8002b88:	2801      	cmp	r0, #1
 8002b8a:	d005      	beq.n	8002b98 <TaskExtButton+0x178>
 8002b8c:	4b2e      	ldr	r3, [pc, #184]	; (8002c48 <TaskExtButton+0x228>)
 8002b8e:	681a      	ldr	r2, [r3, #0]
 8002b90:	4b2e      	ldr	r3, [pc, #184]	; (8002c4c <TaskExtButton+0x22c>)
 8002b92:	429a      	cmp	r2, r3
 8002b94:	d9eb      	bls.n	8002b6e <TaskExtButton+0x14e>
 8002b96:	463c      	mov	r4, r7
 8002b98:	2006      	movs	r0, #6
 8002b9a:	f7fe fcc1 	bl	8001520 <display_wait>
 8002b9e:	f8df 90a8 	ldr.w	r9, [pc, #168]	; 8002c48 <TaskExtButton+0x228>
 8002ba2:	f8df 80a8 	ldr.w	r8, [pc, #168]	; 8002c4c <TaskExtButton+0x22c>
 8002ba6:	2732      	movs	r7, #50	; 0x32
 8002ba8:	2c01      	cmp	r4, #1
 8002baa:	d005      	beq.n	8002bb8 <TaskExtButton+0x198>
 8002bac:	f8d9 3000 	ldr.w	r3, [r9]
 8002bb0:	4543      	cmp	r3, r8
 8002bb2:	d801      	bhi.n	8002bb8 <TaskExtButton+0x198>
 8002bb4:	e8bd 83f8 	ldmia.w	sp!, {r3, r4, r5, r6, r7, r8, r9, pc}
 8002bb8:	200a      	movs	r0, #10
 8002bba:	f003 f955 	bl	8005e68 <HAL_Delay>
 8002bbe:	f7ff f9b7 	bl	8001f30 <InOn>
 8002bc2:	1e43      	subs	r3, r0, #1
 8002bc4:	425c      	negs	r4, r3
 8002bc6:	415c      	adcs	r4, r3
 8002bc8:	3f01      	subs	r7, #1
 8002bca:	4605      	mov	r5, r0
 8002bcc:	d1ec      	bne.n	8002ba8 <TaskExtButton+0x188>
 8002bce:	2801      	cmp	r0, #1
 8002bd0:	d005      	beq.n	8002bde <TaskExtButton+0x1be>
 8002bd2:	4b1d      	ldr	r3, [pc, #116]	; (8002c48 <TaskExtButton+0x228>)
 8002bd4:	681a      	ldr	r2, [r3, #0]
 8002bd6:	4b1d      	ldr	r3, [pc, #116]	; (8002c4c <TaskExtButton+0x22c>)
 8002bd8:	429a      	cmp	r2, r3
 8002bda:	d9eb      	bls.n	8002bb4 <TaskExtButton+0x194>
 8002bdc:	463d      	mov	r5, r7
 8002bde:	2007      	movs	r0, #7
 8002be0:	f7fe fc9e 	bl	8001520 <display_wait>
 8002be4:	2d01      	cmp	r5, #1
 8002be6:	d128      	bne.n	8002c3a <TaskExtButton+0x21a>
 8002be8:	2432      	movs	r4, #50	; 0x32
 8002bea:	200a      	movs	r0, #10
 8002bec:	f003 f93c 	bl	8005e68 <HAL_Delay>
 8002bf0:	3c01      	subs	r4, #1
 8002bf2:	d1fa      	bne.n	8002bea <TaskExtButton+0x1ca>
 8002bf4:	2008      	movs	r0, #8
 8002bf6:	f7fe fc93 	bl	8001520 <display_wait>
 8002bfa:	2064      	movs	r0, #100	; 0x64
 8002bfc:	f7fe ff63 	bl	8001ac6 <PowerVib>
 8002c00:	f44f 70fa 	mov.w	r0, #500	; 0x1f4
 8002c04:	f003 f930 	bl	8005e68 <HAL_Delay>
 8002c08:	4630      	mov	r0, r6
 8002c0a:	f7ff fbd7 	bl	80023bc <LedOff>
 8002c0e:	2501      	movs	r5, #1
 8002c10:	480f      	ldr	r0, [pc, #60]	; (8002c50 <TaskExtButton+0x230>)
 8002c12:	f7fe fdc5 	bl	80017a0 <display_Print>
 8002c16:	f8c6 50cc 	str.w	r5, [r6, #204]	; 0xcc
 8002c1a:	f44f 60fa 	mov.w	r0, #2000	; 0x7d0
 8002c1e:	f003 f923 	bl	8005e68 <HAL_Delay>
 8002c22:	4628      	mov	r0, r5
 8002c24:	f7ff f910 	bl	8001e48 <OutDone1>
 8002c28:	4620      	mov	r0, r4
 8002c2a:	f7ff f919 	bl	8001e60 <OutDone2>
 8002c2e:	e8bd 43f8 	ldmia.w	sp!, {r3, r4, r5, r6, r7, r8, r9, lr}
 8002c32:	f44f 707a 	mov.w	r0, #1000	; 0x3e8
 8002c36:	f003 b917 	b.w	8005e68 <HAL_Delay>
 8002c3a:	4b03      	ldr	r3, [pc, #12]	; (8002c48 <TaskExtButton+0x228>)
 8002c3c:	681a      	ldr	r2, [r3, #0]
 8002c3e:	4b03      	ldr	r3, [pc, #12]	; (8002c4c <TaskExtButton+0x22c>)
 8002c40:	429a      	cmp	r2, r3
 8002c42:	d8d1      	bhi.n	8002be8 <TaskExtButton+0x1c8>
 8002c44:	e7b6      	b.n	8002bb4 <TaskExtButton+0x194>
 8002c46:	bf00      	nop
 8002c48:	200009ec 	.word	0x200009ec
 8002c4c:	000f4240 	.word	0x000f4240
 8002c50:	0800e7f3 	.word	0x0800e7f3

08002c54 <TaskFallTest>:
 8002c54:	b538      	push	{r3, r4, r5, lr}
 8002c56:	6a8b      	ldr	r3, [r1, #40]	; 0x28
 8002c58:	4605      	mov	r5, r0
 8002c5a:	460c      	mov	r4, r1
 8002c5c:	b9d3      	cbnz	r3, 8002c94 <TaskFallTest+0x40>
 8002c5e:	6b43      	ldr	r3, [r0, #52]	; 0x34
 8002c60:	bb1b      	cbnz	r3, 8002caa <TaskFallTest+0x56>
 8002c62:	6883      	ldr	r3, [r0, #8]
 8002c64:	bb0b      	cbnz	r3, 8002caa <TaskFallTest+0x56>
 8002c66:	6f8a      	ldr	r2, [r1, #120]	; 0x78
 8002c68:	2a01      	cmp	r2, #1
 8002c6a:	d107      	bne.n	8002c7c <TaskFallTest+0x28>
 8002c6c:	678b      	str	r3, [r1, #120]	; 0x78
 8002c6e:	480f      	ldr	r0, [pc, #60]	; (8002cac <TaskFallTest+0x58>)
 8002c70:	490f      	ldr	r1, [pc, #60]	; (8002cb0 <TaskFallTest+0x5c>)
 8002c72:	f7ff f813 	bl	8001c9c <test_chute>
 8002c76:	2801      	cmp	r0, #1
 8002c78:	bf08      	it	eq
 8002c7a:	62a0      	streq	r0, [r4, #40]	; 0x28
 8002c7c:	6fe3      	ldr	r3, [r4, #124]	; 0x7c
 8002c7e:	2b01      	cmp	r3, #1
 8002c80:	d108      	bne.n	8002c94 <TaskFallTest+0x40>
 8002c82:	490c      	ldr	r1, [pc, #48]	; (8002cb4 <TaskFallTest+0x60>)
 8002c84:	480c      	ldr	r0, [pc, #48]	; (8002cb8 <TaskFallTest+0x64>)
 8002c86:	f7ff f809 	bl	8001c9c <test_chute>
 8002c8a:	2300      	movs	r3, #0
 8002c8c:	2801      	cmp	r0, #1
 8002c8e:	bf08      	it	eq
 8002c90:	62a0      	streq	r0, [r4, #40]	; 0x28
 8002c92:	67e3      	str	r3, [r4, #124]	; 0x7c
 8002c94:	6aa3      	ldr	r3, [r4, #40]	; 0x28
 8002c96:	2b01      	cmp	r3, #1
 8002c98:	d107      	bne.n	8002caa <TaskFallTest+0x56>
 8002c9a:	6b6b      	ldr	r3, [r5, #52]	; 0x34
 8002c9c:	b92b      	cbnz	r3, 8002caa <TaskFallTest+0x56>
 8002c9e:	6ae2      	ldr	r2, [r4, #44]	; 0x2c
 8002ca0:	2a01      	cmp	r2, #1
 8002ca2:	bf04      	itt	eq
 8002ca4:	636a      	streq	r2, [r5, #52]	; 0x34
 8002ca6:	e9c4 330a 	strdeq	r3, r3, [r4, #40]	; 0x28
 8002caa:	bd38      	pop	{r3, r4, r5, pc}
 8002cac:	20001a68 	.word	0x20001a68
 8002cb0:	200022f6 	.word	0x200022f6
 8002cb4:	20002128 	.word	0x20002128
 8002cb8:	200013f0 	.word	0x200013f0

08002cbc <TaskAlertAll>:
 8002cbc:	e92d 41f0 	stmdb	sp!, {r4, r5, r6, r7, r8, lr}
 8002cc0:	460c      	mov	r4, r1
 8002cc2:	4698      	mov	r8, r3
 8002cc4:	4605      	mov	r5, r0
 8002cc6:	4616      	mov	r6, r2
 8002cc8:	f003 f8c8 	bl	8005e5c <HAL_GetTick>
 8002ccc:	6823      	ldr	r3, [r4, #0]
 8002cce:	4607      	mov	r7, r0
 8002cd0:	2b00      	cmp	r3, #0
 8002cd2:	f040 80ba 	bne.w	8002e4a <TaskAlertAll+0x18e>
 8002cd6:	686b      	ldr	r3, [r5, #4]
 8002cd8:	2b01      	cmp	r3, #1
 8002cda:	d12f      	bne.n	8002d3c <TaskAlertAll+0x80>
 8002cdc:	f8c4 3090 	str.w	r3, [r4, #144]	; 0x90
 8002ce0:	f003 f8bc 	bl	8005e5c <HAL_GetTick>
 8002ce4:	2301      	movs	r3, #1
 8002ce6:	6030      	str	r0, [r6, #0]
 8002ce8:	e9c4 3300 	strd	r3, r3, [r4]
 8002cec:	6b6b      	ldr	r3, [r5, #52]	; 0x34
 8002cee:	2b01      	cmp	r3, #1
 8002cf0:	d018      	beq.n	8002d24 <TaskAlertAll+0x68>
 8002cf2:	68ab      	ldr	r3, [r5, #8]
 8002cf4:	2b01      	cmp	r3, #1
 8002cf6:	d015      	beq.n	8002d24 <TaskAlertAll+0x68>
 8002cf8:	686b      	ldr	r3, [r5, #4]
 8002cfa:	2b01      	cmp	r3, #1
 8002cfc:	d012      	beq.n	8002d24 <TaskAlertAll+0x68>
 8002cfe:	6b2b      	ldr	r3, [r5, #48]	; 0x30
 8002d00:	2b01      	cmp	r3, #1
 8002d02:	d00f      	beq.n	8002d24 <TaskAlertAll+0x68>
 8002d04:	6a6b      	ldr	r3, [r5, #36]	; 0x24
 8002d06:	2b01      	cmp	r3, #1
 8002d08:	d00c      	beq.n	8002d24 <TaskAlertAll+0x68>
 8002d0a:	6aeb      	ldr	r3, [r5, #44]	; 0x2c
 8002d0c:	2b01      	cmp	r3, #1
 8002d0e:	d009      	beq.n	8002d24 <TaskAlertAll+0x68>
 8002d10:	6a2b      	ldr	r3, [r5, #32]
 8002d12:	2b01      	cmp	r3, #1
 8002d14:	d006      	beq.n	8002d24 <TaskAlertAll+0x68>
 8002d16:	692b      	ldr	r3, [r5, #16]
 8002d18:	2b01      	cmp	r3, #1
 8002d1a:	d003      	beq.n	8002d24 <TaskAlertAll+0x68>
 8002d1c:	696b      	ldr	r3, [r5, #20]
 8002d1e:	2b00      	cmp	r3, #0
 8002d20:	f000 80df 	beq.w	8002ee2 <TaskAlertAll+0x226>
 8002d24:	2301      	movs	r3, #1
 8002d26:	e9c4 3302 	strd	r3, r3, [r4, #8]
 8002d2a:	6123      	str	r3, [r4, #16]
 8002d2c:	4975      	ldr	r1, [pc, #468]	; (8002f04 <TaskAlertAll+0x248>)
 8002d2e:	4876      	ldr	r0, [pc, #472]	; (8002f08 <TaskAlertAll+0x24c>)
 8002d30:	f44f 73fa 	mov.w	r3, #500	; 0x1f4
 8002d34:	2203      	movs	r2, #3
 8002d36:	f006 fc31 	bl	800959c <HAL_UART_Transmit>
 8002d3a:	e086      	b.n	8002e4a <TaskAlertAll+0x18e>
 8002d3c:	6b6b      	ldr	r3, [r5, #52]	; 0x34
 8002d3e:	2b01      	cmp	r3, #1
 8002d40:	d10f      	bne.n	8002d62 <TaskAlertAll+0xa6>
 8002d42:	f003 f88b 	bl	8005e5c <HAL_GetTick>
 8002d46:	68b3      	ldr	r3, [r6, #8]
 8002d48:	1ac0      	subs	r0, r0, r3
 8002d4a:	f64e 2360 	movw	r3, #60000	; 0xea60
 8002d4e:	4298      	cmp	r0, r3
 8002d50:	d907      	bls.n	8002d62 <TaskAlertAll+0xa6>
 8002d52:	230d      	movs	r3, #13
 8002d54:	f8c4 3090 	str.w	r3, [r4, #144]	; 0x90
 8002d58:	60b7      	str	r7, [r6, #8]
 8002d5a:	6823      	ldr	r3, [r4, #0]
 8002d5c:	2b00      	cmp	r3, #0
 8002d5e:	d174      	bne.n	8002e4a <TaskAlertAll+0x18e>
 8002d60:	e7be      	b.n	8002ce0 <TaskAlertAll+0x24>
 8002d62:	68ab      	ldr	r3, [r5, #8]
 8002d64:	2b01      	cmp	r3, #1
 8002d66:	d109      	bne.n	8002d7c <TaskAlertAll+0xc0>
 8002d68:	f003 f878 	bl	8005e5c <HAL_GetTick>
 8002d6c:	68b3      	ldr	r3, [r6, #8]
 8002d6e:	1ac0      	subs	r0, r0, r3
 8002d70:	f64e 2360 	movw	r3, #60000	; 0xea60
 8002d74:	4298      	cmp	r0, r3
 8002d76:	d901      	bls.n	8002d7c <TaskAlertAll+0xc0>
 8002d78:	2302      	movs	r3, #2
 8002d7a:	e7eb      	b.n	8002d54 <TaskAlertAll+0x98>
 8002d7c:	6b2b      	ldr	r3, [r5, #48]	; 0x30
 8002d7e:	2b01      	cmp	r3, #1
 8002d80:	d109      	bne.n	8002d96 <TaskAlertAll+0xda>
 8002d82:	f003 f86b 	bl	8005e5c <HAL_GetTick>
 8002d86:	68b3      	ldr	r3, [r6, #8]
 8002d88:	1ac0      	subs	r0, r0, r3
 8002d8a:	f64e 2360 	movw	r3, #60000	; 0xea60
 8002d8e:	4298      	cmp	r0, r3
 8002d90:	d901      	bls.n	8002d96 <TaskAlertAll+0xda>
 8002d92:	230c      	movs	r3, #12
 8002d94:	e7de      	b.n	8002d54 <TaskAlertAll+0x98>
 8002d96:	6a6b      	ldr	r3, [r5, #36]	; 0x24
 8002d98:	2b01      	cmp	r3, #1
 8002d9a:	d109      	bne.n	8002db0 <TaskAlertAll+0xf4>
 8002d9c:	f003 f85e 	bl	8005e5c <HAL_GetTick>
 8002da0:	68b3      	ldr	r3, [r6, #8]
 8002da2:	1ac0      	subs	r0, r0, r3
 8002da4:	f64e 2360 	movw	r3, #60000	; 0xea60
 8002da8:	4298      	cmp	r0, r3
 8002daa:	d901      	bls.n	8002db0 <TaskAlertAll+0xf4>
 8002dac:	2309      	movs	r3, #9
 8002dae:	e7d1      	b.n	8002d54 <TaskAlertAll+0x98>
 8002db0:	6aab      	ldr	r3, [r5, #40]	; 0x28
 8002db2:	2b01      	cmp	r3, #1
 8002db4:	d109      	bne.n	8002dca <TaskAlertAll+0x10e>
 8002db6:	f003 f851 	bl	8005e5c <HAL_GetTick>
 8002dba:	68b3      	ldr	r3, [r6, #8]
 8002dbc:	1ac0      	subs	r0, r0, r3
 8002dbe:	f64e 2360 	movw	r3, #60000	; 0xea60
 8002dc2:	4298      	cmp	r0, r3
 8002dc4:	d901      	bls.n	8002dca <TaskAlertAll+0x10e>
 8002dc6:	230a      	movs	r3, #10
 8002dc8:	e7c4      	b.n	8002d54 <TaskAlertAll+0x98>
 8002dca:	69eb      	ldr	r3, [r5, #28]
 8002dcc:	2b01      	cmp	r3, #1
 8002dce:	d109      	bne.n	8002de4 <TaskAlertAll+0x128>
 8002dd0:	f003 f844 	bl	8005e5c <HAL_GetTick>
 8002dd4:	68b3      	ldr	r3, [r6, #8]
 8002dd6:	1ac0      	subs	r0, r0, r3
 8002dd8:	f64e 2360 	movw	r3, #60000	; 0xea60
 8002ddc:	4298      	cmp	r0, r3
 8002dde:	d901      	bls.n	8002de4 <TaskAlertAll+0x128>
 8002de0:	2307      	movs	r3, #7
 8002de2:	e7b7      	b.n	8002d54 <TaskAlertAll+0x98>
 8002de4:	6aeb      	ldr	r3, [r5, #44]	; 0x2c
 8002de6:	2b01      	cmp	r3, #1
 8002de8:	d109      	bne.n	8002dfe <TaskAlertAll+0x142>
 8002dea:	f003 f837 	bl	8005e5c <HAL_GetTick>
 8002dee:	68b3      	ldr	r3, [r6, #8]
 8002df0:	1ac0      	subs	r0, r0, r3
 8002df2:	f64e 2360 	movw	r3, #60000	; 0xea60
 8002df6:	4298      	cmp	r0, r3
 8002df8:	d901      	bls.n	8002dfe <TaskAlertAll+0x142>
 8002dfa:	230b      	movs	r3, #11
 8002dfc:	e7aa      	b.n	8002d54 <TaskAlertAll+0x98>
 8002dfe:	6a2b      	ldr	r3, [r5, #32]
 8002e00:	2b01      	cmp	r3, #1
 8002e02:	d109      	bne.n	8002e18 <TaskAlertAll+0x15c>
 8002e04:	f003 f82a 	bl	8005e5c <HAL_GetTick>
 8002e08:	68b3      	ldr	r3, [r6, #8]
 8002e0a:	1ac0      	subs	r0, r0, r3
 8002e0c:	f64e 2360 	movw	r3, #60000	; 0xea60
 8002e10:	4298      	cmp	r0, r3
 8002e12:	d901      	bls.n	8002e18 <TaskAlertAll+0x15c>
 8002e14:	2308      	movs	r3, #8
 8002e16:	e79d      	b.n	8002d54 <TaskAlertAll+0x98>
 8002e18:	68eb      	ldr	r3, [r5, #12]
 8002e1a:	2b01      	cmp	r3, #1
 8002e1c:	d103      	bne.n	8002e26 <TaskAlertAll+0x16a>
 8002e1e:	2303      	movs	r3, #3
 8002e20:	f8c4 3090 	str.w	r3, [r4, #144]	; 0x90
 8002e24:	e799      	b.n	8002d5a <TaskAlertAll+0x9e>
 8002e26:	692b      	ldr	r3, [r5, #16]
 8002e28:	2b01      	cmp	r3, #1
 8002e2a:	d101      	bne.n	8002e30 <TaskAlertAll+0x174>
 8002e2c:	2304      	movs	r3, #4
 8002e2e:	e7f7      	b.n	8002e20 <TaskAlertAll+0x164>
 8002e30:	696b      	ldr	r3, [r5, #20]
 8002e32:	2b01      	cmp	r3, #1
 8002e34:	d101      	bne.n	8002e3a <TaskAlertAll+0x17e>
 8002e36:	2305      	movs	r3, #5
 8002e38:	e7f2      	b.n	8002e20 <TaskAlertAll+0x164>
 8002e3a:	69ab      	ldr	r3, [r5, #24]
 8002e3c:	2b01      	cmp	r3, #1
 8002e3e:	d101      	bne.n	8002e44 <TaskAlertAll+0x188>
 8002e40:	2306      	movs	r3, #6
 8002e42:	e7ed      	b.n	8002e20 <TaskAlertAll+0x164>
 8002e44:	2300      	movs	r3, #0
 8002e46:	f8c4 3090 	str.w	r3, [r4, #144]	; 0x90
 8002e4a:	1f2a      	subs	r2, r5, #4
 8002e4c:	2300      	movs	r3, #0
 8002e4e:	3534      	adds	r5, #52	; 0x34
 8002e50:	f842 3f04 	str.w	r3, [r2, #4]!
 8002e54:	42aa      	cmp	r2, r5
 8002e56:	d1fb      	bne.n	8002e50 <TaskAlertAll+0x194>
 8002e58:	6822      	ldr	r2, [r4, #0]
 8002e5a:	2a01      	cmp	r2, #1
 8002e5c:	d13f      	bne.n	8002ede <TaskAlertAll+0x222>
 8002e5e:	6a22      	ldr	r2, [r4, #32]
 8002e60:	2a01      	cmp	r2, #1
 8002e62:	d11b      	bne.n	8002e9c <TaskAlertAll+0x1e0>
 8002e64:	e9c4 330f 	strd	r3, r3, [r4, #60]	; 0x3c
 8002e68:	4928      	ldr	r1, [pc, #160]	; (8002f0c <TaskAlertAll+0x250>)
 8002e6a:	6023      	str	r3, [r4, #0]
 8002e6c:	6223      	str	r3, [r4, #32]
 8002e6e:	f8c4 3090 	str.w	r3, [r4, #144]	; 0x90
 8002e72:	2203      	movs	r2, #3
 8002e74:	f44f 73fa 	mov.w	r3, #500	; 0x1f4
 8002e78:	4823      	ldr	r0, [pc, #140]	; (8002f08 <TaskAlertAll+0x24c>)
 8002e7a:	f006 fb8f 	bl	800959c <HAL_UART_Transmit>
 8002e7e:	f002 ffed 	bl	8005e5c <HAL_GetTick>
 8002e82:	4b23      	ldr	r3, [pc, #140]	; (8002f10 <TaskAlertAll+0x254>)
 8002e84:	60b0      	str	r0, [r6, #8]
 8002e86:	f8c8 3004 	str.w	r3, [r8, #4]
 8002e8a:	2300      	movs	r3, #0
 8002e8c:	f8c8 3008 	str.w	r3, [r8, #8]
 8002e90:	f8c8 300c 	str.w	r3, [r8, #12]
 8002e94:	f8c8 3000 	str.w	r3, [r8]
 8002e98:	f8c8 3010 	str.w	r3, [r8, #16]
 8002e9c:	f002 ffde 	bl	8005e5c <HAL_GetTick>
 8002ea0:	6833      	ldr	r3, [r6, #0]
 8002ea2:	1ac0      	subs	r0, r0, r3
 8002ea4:	f247 5330 	movw	r3, #30000	; 0x7530
 8002ea8:	4298      	cmp	r0, r3
 8002eaa:	d918      	bls.n	8002ede <TaskAlertAll+0x222>
 8002eac:	2201      	movs	r2, #1
 8002eae:	2300      	movs	r3, #0
 8002eb0:	f8c4 210c 	str.w	r2, [r4, #268]	; 0x10c
 8002eb4:	6262      	str	r2, [r4, #36]	; 0x24
 8002eb6:	f8d4 2090 	ldr.w	r2, [r4, #144]	; 0x90
 8002eba:	4914      	ldr	r1, [pc, #80]	; (8002f0c <TaskAlertAll+0x250>)
 8002ebc:	63e3      	str	r3, [r4, #60]	; 0x3c
 8002ebe:	f8c4 20e0 	str.w	r2, [r4, #224]	; 0xe0
 8002ec2:	6423      	str	r3, [r4, #64]	; 0x40
 8002ec4:	6023      	str	r3, [r4, #0]
 8002ec6:	6223      	str	r3, [r4, #32]
 8002ec8:	f8c4 3090 	str.w	r3, [r4, #144]	; 0x90
 8002ecc:	2203      	movs	r2, #3
 8002ece:	f44f 73fa 	mov.w	r3, #500	; 0x1f4
 8002ed2:	480d      	ldr	r0, [pc, #52]	; (8002f08 <TaskAlertAll+0x24c>)
 8002ed4:	f006 fb62 	bl	800959c <HAL_UART_Transmit>
 8002ed8:	f002 ffc0 	bl	8005e5c <HAL_GetTick>
 8002edc:	60b0      	str	r0, [r6, #8]
 8002ede:	e8bd 81f0 	ldmia.w	sp!, {r4, r5, r6, r7, r8, pc}
 8002ee2:	6aab      	ldr	r3, [r5, #40]	; 0x28
 8002ee4:	2b01      	cmp	r3, #1
 8002ee6:	d008      	beq.n	8002efa <TaskAlertAll+0x23e>
 8002ee8:	69eb      	ldr	r3, [r5, #28]
 8002eea:	2b01      	cmp	r3, #1
 8002eec:	d005      	beq.n	8002efa <TaskAlertAll+0x23e>
 8002eee:	68eb      	ldr	r3, [r5, #12]
 8002ef0:	2b01      	cmp	r3, #1
 8002ef2:	d002      	beq.n	8002efa <TaskAlertAll+0x23e>
 8002ef4:	69ab      	ldr	r3, [r5, #24]
 8002ef6:	2b00      	cmp	r3, #0
 8002ef8:	d0a7      	beq.n	8002e4a <TaskAlertAll+0x18e>
 8002efa:	2301      	movs	r3, #1
 8002efc:	e9c4 3305 	strd	r3, r3, [r4, #20]
 8002f00:	61e3      	str	r3, [r4, #28]
 8002f02:	e713      	b.n	8002d2c <TaskAlertAll+0x70>
 8002f04:	0800e874 	.word	0x0800e874
 8002f08:	200025b4 	.word	0x200025b4
 8002f0c:	0800e880 	.word	0x0800e880
 8002f10:	41a80000 	.word	0x41a80000

08002f14 <TaskOnScreen>:
 8002f14:	b538      	push	{r3, r4, r5, lr}
 8002f16:	6d03      	ldr	r3, [r0, #80]	; 0x50
 8002f18:	2b01      	cmp	r3, #1
 8002f1a:	4604      	mov	r4, r0
 8002f1c:	460d      	mov	r5, r1
 8002f1e:	d002      	beq.n	8002f26 <TaskOnScreen+0x12>
 8002f20:	f8d0 3090 	ldr.w	r3, [r0, #144]	; 0x90
 8002f24:	b17b      	cbz	r3, 8002f46 <TaskOnScreen+0x32>
 8002f26:	2300      	movs	r3, #0
 8002f28:	6523      	str	r3, [r4, #80]	; 0x50
 8002f2a:	f002 ff97 	bl	8005e5c <HAL_GetTick>
 8002f2e:	f8d4 30d0 	ldr.w	r3, [r4, #208]	; 0xd0
 8002f32:	3801      	subs	r0, #1
 8002f34:	6028      	str	r0, [r5, #0]
 8002f36:	b933      	cbnz	r3, 8002f46 <TaskOnScreen+0x32>
 8002f38:	f7ff facf 	bl	80024da <ScreenOn>
 8002f3c:	f7fe f87a 	bl	8001034 <display_InitBis>
 8002f40:	2301      	movs	r3, #1
 8002f42:	f8c4 30d0 	str.w	r3, [r4, #208]	; 0xd0
 8002f46:	f002 ff89 	bl	8005e5c <HAL_GetTick>
 8002f4a:	682b      	ldr	r3, [r5, #0]
 8002f4c:	1ac0      	subs	r0, r0, r3
 8002f4e:	4b04      	ldr	r3, [pc, #16]	; (8002f60 <TaskOnScreen+0x4c>)
 8002f50:	4298      	cmp	r0, r3
 8002f52:	d904      	bls.n	8002f5e <TaskOnScreen+0x4a>
 8002f54:	f7ff fac3 	bl	80024de <ScreenOff>
 8002f58:	2300      	movs	r3, #0
 8002f5a:	f8c4 30d0 	str.w	r3, [r4, #208]	; 0xd0
 8002f5e:	bd38      	pop	{r3, r4, r5, pc}
 8002f60:	01312d00 	.word	0x01312d00
 8002f64:	00000000 	.word	0x00000000

08002f68 <TaskGPS>:
 8002f68:	e92d 4ff0 	stmdb	sp!, {r4, r5, r6, r7, r8, r9, sl, fp, lr}
 8002f6c:	ed2d 8b02 	vpush	{d8}
 8002f70:	469b      	mov	fp, r3
 8002f72:	684b      	ldr	r3, [r1, #4]
 8002f74:	b083      	sub	sp, #12
 8002f76:	2b01      	cmp	r3, #1
 8002f78:	4604      	mov	r4, r0
 8002f7a:	460d      	mov	r5, r1
 8002f7c:	9201      	str	r2, [sp, #4]
 8002f7e:	f040 8197 	bne.w	80032b0 <TaskGPS+0x348>
 8002f82:	7983      	ldrb	r3, [r0, #6]
 8002f84:	2b2c      	cmp	r3, #44	; 0x2c
 8002f86:	f040 8193 	bne.w	80032b0 <TaskGPS+0x348>
 8002f8a:	7c03      	ldrb	r3, [r0, #16]
 8002f8c:	2b2c      	cmp	r3, #44	; 0x2c
 8002f8e:	f040 818f 	bne.w	80032b0 <TaskGPS+0x348>
 8002f92:	7ec3      	ldrb	r3, [r0, #27]
 8002f94:	2b2c      	cmp	r3, #44	; 0x2c
 8002f96:	f040 818b 	bne.w	80032b0 <TaskGPS+0x348>
 8002f9a:	7f43      	ldrb	r3, [r0, #29]
 8002f9c:	2b2c      	cmp	r3, #44	; 0x2c
 8002f9e:	f040 8187 	bne.w	80032b0 <TaskGPS+0x348>
 8002fa2:	f890 3029 	ldrb.w	r3, [r0, #41]	; 0x29
 8002fa6:	2b2c      	cmp	r3, #44	; 0x2c
 8002fa8:	f040 8182 	bne.w	80032b0 <TaskGPS+0x348>
 8002fac:	f890 302b 	ldrb.w	r3, [r0, #43]	; 0x2b
 8002fb0:	2b2c      	cmp	r3, #44	; 0x2c
 8002fb2:	f040 817d 	bne.w	80032b0 <TaskGPS+0x348>
 8002fb6:	7cc0      	ldrb	r0, [r0, #19]
 8002fb8:	3830      	subs	r0, #48	; 0x30
 8002fba:	f7fd fab3 	bl	8000524 <__aeabi_i2d>
 8002fbe:	a3c2      	add	r3, pc, #776	; (adr r3, 80032c8 <TaskGPS+0x360>)
 8002fc0:	e9d3 2300 	ldrd	r2, r3, [r3]
 8002fc4:	f7fd fb18 	bl	80005f8 <__aeabi_dmul>
 8002fc8:	4606      	mov	r6, r0
 8002fca:	7d20      	ldrb	r0, [r4, #20]
 8002fcc:	3830      	subs	r0, #48	; 0x30
 8002fce:	460f      	mov	r7, r1
 8002fd0:	f7fd faa8 	bl	8000524 <__aeabi_i2d>
 8002fd4:	a3be      	add	r3, pc, #760	; (adr r3, 80032d0 <TaskGPS+0x368>)
 8002fd6:	e9d3 2300 	ldrd	r2, r3, [r3]
 8002fda:	f7fd fb0d 	bl	80005f8 <__aeabi_dmul>
 8002fde:	4602      	mov	r2, r0
 8002fe0:	460b      	mov	r3, r1
 8002fe2:	4630      	mov	r0, r6
 8002fe4:	4639      	mov	r1, r7
 8002fe6:	f7fd f951 	bl	800028c <__adddf3>
 8002fea:	4606      	mov	r6, r0
 8002fec:	7da0      	ldrb	r0, [r4, #22]
 8002fee:	3830      	subs	r0, #48	; 0x30
 8002ff0:	460f      	mov	r7, r1
 8002ff2:	f7fd fa97 	bl	8000524 <__aeabi_i2d>
 8002ff6:	a3b8      	add	r3, pc, #736	; (adr r3, 80032d8 <TaskGPS+0x370>)
 8002ff8:	e9d3 2300 	ldrd	r2, r3, [r3]
 8002ffc:	f7fd fafc 	bl	80005f8 <__aeabi_dmul>
 8003000:	4602      	mov	r2, r0
 8003002:	460b      	mov	r3, r1
 8003004:	4630      	mov	r0, r6
 8003006:	4639      	mov	r1, r7
 8003008:	f7fd f940 	bl	800028c <__adddf3>
 800300c:	4606      	mov	r6, r0
 800300e:	7de0      	ldrb	r0, [r4, #23]
 8003010:	3830      	subs	r0, #48	; 0x30
 8003012:	460f      	mov	r7, r1
 8003014:	f7fd fa86 	bl	8000524 <__aeabi_i2d>
 8003018:	4bb1      	ldr	r3, [pc, #708]	; (80032e0 <TaskGPS+0x378>)
 800301a:	2200      	movs	r2, #0
 800301c:	f7fd faec 	bl	80005f8 <__aeabi_dmul>
 8003020:	4602      	mov	r2, r0
 8003022:	460b      	mov	r3, r1
 8003024:	4630      	mov	r0, r6
 8003026:	4639      	mov	r1, r7
 8003028:	f7fd f930 	bl	800028c <__adddf3>
 800302c:	4606      	mov	r6, r0
 800302e:	7e20      	ldrb	r0, [r4, #24]
 8003030:	3830      	subs	r0, #48	; 0x30
 8003032:	460f      	mov	r7, r1
 8003034:	f7fd fa76 	bl	8000524 <__aeabi_i2d>
 8003038:	4baa      	ldr	r3, [pc, #680]	; (80032e4 <TaskGPS+0x37c>)
 800303a:	2200      	movs	r2, #0
 800303c:	f7fd fadc 	bl	80005f8 <__aeabi_dmul>
 8003040:	4602      	mov	r2, r0
 8003042:	460b      	mov	r3, r1
 8003044:	4630      	mov	r0, r6
 8003046:	4639      	mov	r1, r7
 8003048:	f7fd f920 	bl	800028c <__adddf3>
 800304c:	4606      	mov	r6, r0
 800304e:	7e60      	ldrb	r0, [r4, #25]
 8003050:	f04f 0a0a 	mov.w	sl, #10
 8003054:	3830      	subs	r0, #48	; 0x30
 8003056:	fb0a f000 	mul.w	r0, sl, r0
 800305a:	460f      	mov	r7, r1
 800305c:	f7fd fa62 	bl	8000524 <__aeabi_i2d>
 8003060:	4602      	mov	r2, r0
 8003062:	460b      	mov	r3, r1
 8003064:	4630      	mov	r0, r6
 8003066:	4639      	mov	r1, r7
 8003068:	f7fd f910 	bl	800028c <__adddf3>
 800306c:	4606      	mov	r6, r0
 800306e:	7ea0      	ldrb	r0, [r4, #26]
 8003070:	460f      	mov	r7, r1
 8003072:	f7fd fa57 	bl	8000524 <__aeabi_i2d>
 8003076:	4602      	mov	r2, r0
 8003078:	460b      	mov	r3, r1
 800307a:	4630      	mov	r0, r6
 800307c:	4639      	mov	r1, r7
 800307e:	f7fd f905 	bl	800028c <__adddf3>
 8003082:	4b99      	ldr	r3, [pc, #612]	; (80032e8 <TaskGPS+0x380>)
 8003084:	2200      	movs	r2, #0
 8003086:	f7fd f8ff 	bl	8000288 <__aeabi_dsub>
 800308a:	a38d      	add	r3, pc, #564	; (adr r3, 80032c0 <TaskGPS+0x358>)
 800308c:	e9d3 2300 	ldrd	r2, r3, [r3]
 8003090:	f7fd fab2 	bl	80005f8 <__aeabi_dmul>
 8003094:	2200      	movs	r2, #0
 8003096:	4b95      	ldr	r3, [pc, #596]	; (80032ec <TaskGPS+0x384>)
 8003098:	f7fd fbd8 	bl	800084c <__aeabi_ddiv>
 800309c:	7ca3      	ldrb	r3, [r4, #18]
 800309e:	4606      	mov	r6, r0
 80030a0:	7c60      	ldrb	r0, [r4, #17]
 80030a2:	3b30      	subs	r3, #48	; 0x30
 80030a4:	3830      	subs	r0, #48	; 0x30
 80030a6:	fb0a 3000 	mla	r0, sl, r0, r3
 80030aa:	460f      	mov	r7, r1
 80030ac:	f7fd fa3a 	bl	8000524 <__aeabi_i2d>
 80030b0:	4602      	mov	r2, r0
 80030b2:	460b      	mov	r3, r1
 80030b4:	4630      	mov	r0, r6
 80030b6:	4639      	mov	r1, r7
 80030b8:	f7fd f8e8 	bl	800028c <__adddf3>
 80030bc:	f7fd fd94 	bl	8000be8 <__aeabi_d2f>
 80030c0:	ee08 0a90 	vmov	s17, r0
 80030c4:	f894 0021 	ldrb.w	r0, [r4, #33]	; 0x21
 80030c8:	3830      	subs	r0, #48	; 0x30
 80030ca:	f7fd fa2b 	bl	8000524 <__aeabi_i2d>
 80030ce:	a37e      	add	r3, pc, #504	; (adr r3, 80032c8 <TaskGPS+0x360>)
 80030d0:	e9d3 2300 	ldrd	r2, r3, [r3]
 80030d4:	f7fd fa90 	bl	80005f8 <__aeabi_dmul>
 80030d8:	4606      	mov	r6, r0
 80030da:	f894 0022 	ldrb.w	r0, [r4, #34]	; 0x22
 80030de:	3830      	subs	r0, #48	; 0x30
 80030e0:	460f      	mov	r7, r1
 80030e2:	f7fd fa1f 	bl	8000524 <__aeabi_i2d>
 80030e6:	a37a      	add	r3, pc, #488	; (adr r3, 80032d0 <TaskGPS+0x368>)
 80030e8:	e9d3 2300 	ldrd	r2, r3, [r3]
 80030ec:	f7fd fa84 	bl	80005f8 <__aeabi_dmul>
 80030f0:	4602      	mov	r2, r0
 80030f2:	460b      	mov	r3, r1
 80030f4:	4630      	mov	r0, r6
 80030f6:	4639      	mov	r1, r7
 80030f8:	f7fd f8c8 	bl	800028c <__adddf3>
 80030fc:	4606      	mov	r6, r0
 80030fe:	f894 0024 	ldrb.w	r0, [r4, #36]	; 0x24
 8003102:	3830      	subs	r0, #48	; 0x30
 8003104:	460f      	mov	r7, r1
 8003106:	f7fd fa0d 	bl	8000524 <__aeabi_i2d>
 800310a:	a373      	add	r3, pc, #460	; (adr r3, 80032d8 <TaskGPS+0x370>)
 800310c:	e9d3 2300 	ldrd	r2, r3, [r3]
 8003110:	f7fd fa72 	bl	80005f8 <__aeabi_dmul>
 8003114:	4602      	mov	r2, r0
 8003116:	460b      	mov	r3, r1
 8003118:	4630      	mov	r0, r6
 800311a:	4639      	mov	r1, r7
 800311c:	f7fd f8b6 	bl	800028c <__adddf3>
 8003120:	4606      	mov	r6, r0
 8003122:	f894 0025 	ldrb.w	r0, [r4, #37]	; 0x25
 8003126:	3830      	subs	r0, #48	; 0x30
 8003128:	460f      	mov	r7, r1
 800312a:	f7fd f9fb 	bl	8000524 <__aeabi_i2d>
 800312e:	4b6c      	ldr	r3, [pc, #432]	; (80032e0 <TaskGPS+0x378>)
 8003130:	2200      	movs	r2, #0
 8003132:	f7fd fa61 	bl	80005f8 <__aeabi_dmul>
 8003136:	4602      	mov	r2, r0
 8003138:	460b      	mov	r3, r1
 800313a:	4630      	mov	r0, r6
 800313c:	4639      	mov	r1, r7
 800313e:	f7fd f8a5 	bl	800028c <__adddf3>
 8003142:	4606      	mov	r6, r0
 8003144:	f894 0026 	ldrb.w	r0, [r4, #38]	; 0x26
 8003148:	3830      	subs	r0, #48	; 0x30
 800314a:	460f      	mov	r7, r1
 800314c:	f7fd f9ea 	bl	8000524 <__aeabi_i2d>
 8003150:	4b64      	ldr	r3, [pc, #400]	; (80032e4 <TaskGPS+0x37c>)
 8003152:	2200      	movs	r2, #0
 8003154:	f7fd fa50 	bl	80005f8 <__aeabi_dmul>
 8003158:	4602      	mov	r2, r0
 800315a:	460b      	mov	r3, r1
 800315c:	4630      	mov	r0, r6
 800315e:	4639      	mov	r1, r7
 8003160:	f7fd f894 	bl	800028c <__adddf3>
 8003164:	4606      	mov	r6, r0
 8003166:	f894 0027 	ldrb.w	r0, [r4, #39]	; 0x27
 800316a:	3830      	subs	r0, #48	; 0x30
 800316c:	fb0a f000 	mul.w	r0, sl, r0
 8003170:	460f      	mov	r7, r1
 8003172:	f7fd f9d7 	bl	8000524 <__aeabi_i2d>
 8003176:	4602      	mov	r2, r0
 8003178:	460b      	mov	r3, r1
 800317a:	4630      	mov	r0, r6
 800317c:	4639      	mov	r1, r7
 800317e:	f7fd f885 	bl	800028c <__adddf3>
 8003182:	4606      	mov	r6, r0
 8003184:	f894 0028 	ldrb.w	r0, [r4, #40]	; 0x28
 8003188:	460f      	mov	r7, r1
 800318a:	f7fd f9cb 	bl	8000524 <__aeabi_i2d>
 800318e:	4602      	mov	r2, r0
 8003190:	460b      	mov	r3, r1
 8003192:	4630      	mov	r0, r6
 8003194:	4639      	mov	r1, r7
 8003196:	f7fd f879 	bl	800028c <__adddf3>
 800319a:	4b53      	ldr	r3, [pc, #332]	; (80032e8 <TaskGPS+0x380>)
 800319c:	2200      	movs	r2, #0
 800319e:	f7fd f873 	bl	8000288 <__aeabi_dsub>
 80031a2:	a347      	add	r3, pc, #284	; (adr r3, 80032c0 <TaskGPS+0x358>)
 80031a4:	e9d3 2300 	ldrd	r2, r3, [r3]
 80031a8:	f7fd fa26 	bl	80005f8 <__aeabi_dmul>
 80031ac:	4b4f      	ldr	r3, [pc, #316]	; (80032ec <TaskGPS+0x384>)
 80031ae:	2200      	movs	r2, #0
 80031b0:	f7fd fb4c 	bl	800084c <__aeabi_ddiv>
 80031b4:	4606      	mov	r6, r0
 80031b6:	7fa0      	ldrb	r0, [r4, #30]
 80031b8:	3830      	subs	r0, #48	; 0x30
 80031ba:	460f      	mov	r7, r1
 80031bc:	f7fd f9b2 	bl	8000524 <__aeabi_i2d>
 80031c0:	4b48      	ldr	r3, [pc, #288]	; (80032e4 <TaskGPS+0x37c>)
 80031c2:	2200      	movs	r2, #0
 80031c4:	f7fd fa18 	bl	80005f8 <__aeabi_dmul>
 80031c8:	4680      	mov	r8, r0
 80031ca:	7fe0      	ldrb	r0, [r4, #31]
 80031cc:	3830      	subs	r0, #48	; 0x30
 80031ce:	fb0a f000 	mul.w	r0, sl, r0
 80031d2:	4689      	mov	r9, r1
 80031d4:	f7fd f9a6 	bl	8000524 <__aeabi_i2d>
 80031d8:	4602      	mov	r2, r0
 80031da:	460b      	mov	r3, r1
 80031dc:	4640      	mov	r0, r8
 80031de:	4649      	mov	r1, r9
 80031e0:	f7fd f854 	bl	800028c <__adddf3>
 80031e4:	4680      	mov	r8, r0
 80031e6:	f894 0020 	ldrb.w	r0, [r4, #32]
 80031ea:	3830      	subs	r0, #48	; 0x30
 80031ec:	4689      	mov	r9, r1
 80031ee:	f7fd f999 	bl	8000524 <__aeabi_i2d>
 80031f2:	4602      	mov	r2, r0
 80031f4:	460b      	mov	r3, r1
 80031f6:	4640      	mov	r0, r8
 80031f8:	4649      	mov	r1, r9
 80031fa:	f7fd f847 	bl	800028c <__adddf3>
 80031fe:	460b      	mov	r3, r1
 8003200:	4602      	mov	r2, r0
 8003202:	4639      	mov	r1, r7
 8003204:	4630      	mov	r0, r6
 8003206:	f7fd f841 	bl	800028c <__adddf3>
 800320a:	f7fd fced 	bl	8000be8 <__aeabi_d2f>
 800320e:	7f23      	ldrb	r3, [r4, #28]
 8003210:	eddf 7a37 	vldr	s15, [pc, #220]	; 80032f0 <TaskGPS+0x388>
 8003214:	2b53      	cmp	r3, #83	; 0x53
 8003216:	f894 302a 	ldrb.w	r3, [r4, #42]	; 0x2a
 800321a:	bf08      	it	eq
 800321c:	eef1 8a68 	vnegeq.f32	s17, s17
 8003220:	ee08 0a10 	vmov	s16, r0
 8003224:	2b57      	cmp	r3, #87	; 0x57
 8003226:	eef4 8ae7 	vcmpe.f32	s17, s15
 800322a:	bf08      	it	eq
 800322c:	eeb1 8a48 	vnegeq.f32	s16, s16
 8003230:	eef1 fa10 	vmrs	APSR_nzcv, fpscr
 8003234:	dd3c      	ble.n	80032b0 <TaskGPS+0x348>
 8003236:	eddf 7a2f 	vldr	s15, [pc, #188]	; 80032f4 <TaskGPS+0x38c>
 800323a:	eef4 8ae7 	vcmpe.f32	s17, s15
 800323e:	eef1 fa10 	vmrs	APSR_nzcv, fpscr
 8003242:	d535      	bpl.n	80032b0 <TaskGPS+0x348>
 8003244:	eefa 7a04 	vmov.f32	s15, #164	; 0xc1200000 -10.0
 8003248:	eeb4 8ae7 	vcmpe.f32	s16, s15
 800324c:	eef1 fa10 	vmrs	APSR_nzcv, fpscr
 8003250:	dd2e      	ble.n	80032b0 <TaskGPS+0x348>
 8003252:	eef2 7a04 	vmov.f32	s15, #36	; 0x41200000  10.0
 8003256:	eeb4 8ae7 	vcmpe.f32	s16, s15
 800325a:	eef1 fa10 	vmrs	APSR_nzcv, fpscr
 800325e:	d527      	bpl.n	80032b0 <TaskGPS+0x348>
 8003260:	f894 302e 	ldrb.w	r3, [r4, #46]	; 0x2e
 8003264:	3b30      	subs	r3, #48	; 0x30
 8003266:	b2da      	uxtb	r2, r3
 8003268:	2a09      	cmp	r2, #9
 800326a:	d80b      	bhi.n	8003284 <TaskGPS+0x31c>
 800326c:	f894 202f 	ldrb.w	r2, [r4, #47]	; 0x2f
 8003270:	f1a2 0130 	sub.w	r1, r2, #48	; 0x30
 8003274:	2909      	cmp	r1, #9
 8003276:	bf9f      	itttt	ls
 8003278:	210a      	movls	r1, #10
 800327a:	fb01 2303 	mlals	r3, r1, r3, r2
 800327e:	3b30      	subls	r3, #48	; 0x30
 8003280:	f8c5 3100 	strls.w	r3, [r5, #256]	; 0x100
 8003284:	f002 fdea 	bl	8005e5c <HAL_GetTick>
 8003288:	9b01      	ldr	r3, [sp, #4]
 800328a:	6098      	str	r0, [r3, #8]
 800328c:	f8d5 30e4 	ldr.w	r3, [r5, #228]	; 0xe4
 8003290:	edcb 8a05 	vstr	s17, [fp, #20]
 8003294:	2401      	movs	r4, #1
 8003296:	ed8b 8a06 	vstr	s16, [fp, #24]
 800329a:	f8c5 40a0 	str.w	r4, [r5, #160]	; 0xa0
 800329e:	b93b      	cbnz	r3, 80032b0 <TaskGPS+0x348>
 80032a0:	f002 fddc 	bl	8005e5c <HAL_GetTick>
 80032a4:	9b01      	ldr	r3, [sp, #4]
 80032a6:	6058      	str	r0, [r3, #4]
 80032a8:	f8c5 40e4 	str.w	r4, [r5, #228]	; 0xe4
 80032ac:	f8c5 4104 	str.w	r4, [r5, #260]	; 0x104
 80032b0:	b003      	add	sp, #12
 80032b2:	ecbd 8b02 	vpop	{d8}
 80032b6:	e8bd 8ff0 	ldmia.w	sp!, {r4, r5, r6, r7, r8, r9, sl, fp, pc}
 80032ba:	bf00      	nop
 80032bc:	f3af 8000 	nop.w
 80032c0:	88e368f1 	.word	0x88e368f1
 80032c4:	3ee4f8b5 	.word	0x3ee4f8b5
 80032c8:	00000000 	.word	0x00000000
 80032cc:	412e8480 	.word	0x412e8480
 80032d0:	00000000 	.word	0x00000000
 80032d4:	40f86a00 	.word	0x40f86a00
 80032d8:	00000000 	.word	0x00000000
 80032dc:	40c38800 	.word	0x40c38800
 80032e0:	408f4000 	.word	0x408f4000
 80032e4:	40590000 	.word	0x40590000
 80032e8:	40480000 	.word	0x40480000
 80032ec:	404e0000 	.word	0x404e0000
 80032f0:	420c0000 	.word	0x420c0000
 80032f4:	42700000 	.word	0x42700000

080032f8 <TaskSendSigfox>:
 80032f8:	b5f0      	push	{r4, r5, r6, r7, lr}
 80032fa:	6a47      	ldr	r7, [r0, #36]	; 0x24
 80032fc:	2f01      	cmp	r7, #1
 80032fe:	b08b      	sub	sp, #44	; 0x2c
 8003300:	4604      	mov	r4, r0
 8003302:	460d      	mov	r5, r1
 8003304:	4616      	mov	r6, r2
 8003306:	d13d      	bne.n	8003384 <TaskSendSigfox+0x8c>
 8003308:	481f      	ldr	r0, [pc, #124]	; (8003388 <TaskSendSigfox+0x90>)
 800330a:	f003 fbd3 	bl	8006ab4 <HAL_IWDG_Refresh>
 800330e:	4620      	mov	r0, r4
 8003310:	f7ff f93a 	bl	8002588 <RebootNemeusLS>
 8003314:	6527      	str	r7, [r4, #80]	; 0x50
 8003316:	f7fe f857 	bl	80013c8 <display_SendMess>
 800331a:	f7ff f94f 	bl	80025bc <SigfoxOn>
 800331e:	f7fe fe25 	bl	8001f6c <OutBuzOff>
 8003322:	2000      	movs	r0, #0
 8003324:	f7fe fdee 	bl	8001f04 <OutMotorWu>
 8003328:	2200      	movs	r2, #0
 800332a:	4611      	mov	r1, r2
 800332c:	4610      	mov	r0, r2
 800332e:	4623      	mov	r3, r4
 8003330:	f7ff f87a 	bl	8002428 <LedOn>
 8003334:	4633      	mov	r3, r6
 8003336:	462a      	mov	r2, r5
 8003338:	4621      	mov	r1, r4
 800333a:	4668      	mov	r0, sp
 800333c:	f7ff f9b6 	bl	80026ac <BuildMessGPS>
 8003340:	4811      	ldr	r0, [pc, #68]	; (8003388 <TaskSendSigfox+0x90>)
 8003342:	f003 fbb7 	bl	8006ab4 <HAL_IWDG_Refresh>
 8003346:	4621      	mov	r1, r4
 8003348:	4668      	mov	r0, sp
 800334a:	f7ff f951 	bl	80025f0 <SendMessSigfox>
 800334e:	f241 3088 	movw	r0, #5000	; 0x1388
 8003352:	f002 fd89 	bl	8005e68 <HAL_Delay>
 8003356:	480c      	ldr	r0, [pc, #48]	; (8003388 <TaskSendSigfox+0x90>)
 8003358:	f003 fbac 	bl	8006ab4 <HAL_IWDG_Refresh>
 800335c:	f241 3088 	movw	r0, #5000	; 0x1388
 8003360:	f002 fd82 	bl	8005e68 <HAL_Delay>
 8003364:	4808      	ldr	r0, [pc, #32]	; (8003388 <TaskSendSigfox+0x90>)
 8003366:	f003 fba5 	bl	8006ab4 <HAL_IWDG_Refresh>
 800336a:	2300      	movs	r3, #0
 800336c:	6263      	str	r3, [r4, #36]	; 0x24
 800336e:	f8c4 3108 	str.w	r3, [r4, #264]	; 0x108
 8003372:	f8c4 3114 	str.w	r3, [r4, #276]	; 0x114
 8003376:	f8c4 310c 	str.w	r3, [r4, #268]	; 0x10c
 800337a:	4620      	mov	r0, r4
 800337c:	f7ff f904 	bl	8002588 <RebootNemeusLS>
 8003380:	f7ff f91c 	bl	80025bc <SigfoxOn>
 8003384:	b00b      	add	sp, #44	; 0x2c
 8003386:	bdf0      	pop	{r4, r5, r6, r7, pc}
 8003388:	20000fbc 	.word	0x20000fbc

0800338c <TaskSendDUAL>:
 800338c:	b5f0      	push	{r4, r5, r6, r7, lr}
 800338e:	f8d0 7164 	ldr.w	r7, [r0, #356]	; 0x164
 8003392:	2f01      	cmp	r7, #1
 8003394:	b08b      	sub	sp, #44	; 0x2c
 8003396:	4604      	mov	r4, r0
 8003398:	460d      	mov	r5, r1
 800339a:	4616      	mov	r6, r2
 800339c:	d15c      	bne.n	8003458 <TaskSendDUAL+0xcc>
 800339e:	f002 fd5d 	bl	8005e5c <HAL_GetTick>
 80033a2:	f008 fd2b 	bl	800bdfc <srand>
 80033a6:	f008 fd57 	bl	800be58 <rand>
 80033aa:	2363      	movs	r3, #99	; 0x63
 80033ac:	fb90 f2f3 	sdiv	r2, r0, r3
 80033b0:	fb02 0313 	mls	r3, r2, r3, r0
 80033b4:	f8c4 3114 	str.w	r3, [r4, #276]	; 0x114
 80033b8:	f7fe f806 	bl	80013c8 <display_SendMess>
 80033bc:	6527      	str	r7, [r4, #80]	; 0x50
 80033be:	f7fe fdd5 	bl	8001f6c <OutBuzOff>
 80033c2:	2000      	movs	r0, #0
 80033c4:	f7fe fd9e 	bl	8001f04 <OutMotorWu>
 80033c8:	2200      	movs	r2, #0
 80033ca:	4611      	mov	r1, r2
 80033cc:	4610      	mov	r0, r2
 80033ce:	4623      	mov	r3, r4
 80033d0:	f7ff f82a 	bl	8002428 <LedOn>
 80033d4:	462a      	mov	r2, r5
 80033d6:	4633      	mov	r3, r6
 80033d8:	4621      	mov	r1, r4
 80033da:	4668      	mov	r0, sp
 80033dc:	f7ff f966 	bl	80026ac <BuildMessGPS>
 80033e0:	4668      	mov	r0, sp
 80033e2:	f7ff f8bc 	bl	800255e <SendMessLoraWan>
 80033e6:	4620      	mov	r0, r4
 80033e8:	f7ff f8ce 	bl	8002588 <RebootNemeusLS>
 80033ec:	f241 3088 	movw	r0, #5000	; 0x1388
 80033f0:	f002 fd3a 	bl	8005e68 <HAL_Delay>
 80033f4:	4819      	ldr	r0, [pc, #100]	; (800345c <TaskSendDUAL+0xd0>)
 80033f6:	f003 fb5d 	bl	8006ab4 <HAL_IWDG_Refresh>
 80033fa:	f241 3088 	movw	r0, #5000	; 0x1388
 80033fe:	f002 fd33 	bl	8005e68 <HAL_Delay>
 8003402:	4816      	ldr	r0, [pc, #88]	; (800345c <TaskSendDUAL+0xd0>)
 8003404:	f003 fb56 	bl	8006ab4 <HAL_IWDG_Refresh>
 8003408:	4620      	mov	r0, r4
 800340a:	f7ff f8bd 	bl	8002588 <RebootNemeusLS>
 800340e:	f7ff f8d5 	bl	80025bc <SigfoxOn>
 8003412:	4812      	ldr	r0, [pc, #72]	; (800345c <TaskSendDUAL+0xd0>)
 8003414:	f003 fb4e 	bl	8006ab4 <HAL_IWDG_Refresh>
 8003418:	4621      	mov	r1, r4
 800341a:	4668      	mov	r0, sp
 800341c:	f7ff f8e8 	bl	80025f0 <SendMessSigfox>
 8003420:	f241 3088 	movw	r0, #5000	; 0x1388
 8003424:	f002 fd20 	bl	8005e68 <HAL_Delay>
 8003428:	480c      	ldr	r0, [pc, #48]	; (800345c <TaskSendDUAL+0xd0>)
 800342a:	f003 fb43 	bl	8006ab4 <HAL_IWDG_Refresh>
 800342e:	f241 3088 	movw	r0, #5000	; 0x1388
 8003432:	f002 fd19 	bl	8005e68 <HAL_Delay>
 8003436:	4809      	ldr	r0, [pc, #36]	; (800345c <TaskSendDUAL+0xd0>)
 8003438:	f003 fb3c 	bl	8006ab4 <HAL_IWDG_Refresh>
 800343c:	2300      	movs	r3, #0
 800343e:	f8c4 3164 	str.w	r3, [r4, #356]	; 0x164
 8003442:	f8c4 3114 	str.w	r3, [r4, #276]	; 0x114
 8003446:	f8c4 310c 	str.w	r3, [r4, #268]	; 0x10c
 800344a:	4620      	mov	r0, r4
 800344c:	f7ff f89c 	bl	8002588 <RebootNemeusLS>
 8003450:	f7ff f8b4 	bl	80025bc <SigfoxOn>
 8003454:	f7ff f881 	bl	800255a <LoraWanOn>
 8003458:	b00b      	add	sp, #44	; 0x2c
 800345a:	bdf0      	pop	{r4, r5, r6, r7, pc}
 800345c:	20000fbc 	.word	0x20000fbc

08003460 <TaskButtonManager>:
 8003460:	b570      	push	{r4, r5, r6, lr}
 8003462:	4604      	mov	r4, r0
 8003464:	460d      	mov	r5, r1
 8003466:	f7fe fd63 	bl	8001f30 <InOn>
 800346a:	2801      	cmp	r0, #1
 800346c:	d12a      	bne.n	80034c4 <TaskButtonManager+0x64>
 800346e:	6822      	ldr	r2, [r4, #0]
 8003470:	b90a      	cbnz	r2, 8003476 <TaskButtonManager+0x16>
 8003472:	f8c4 00f0 	str.w	r0, [r4, #240]	; 0xf0
 8003476:	2301      	movs	r3, #1
 8003478:	e9c4 3314 	strd	r3, r3, [r4, #80]	; 0x50
 800347c:	6da3      	ldr	r3, [r4, #88]	; 0x58
 800347e:	3301      	adds	r3, #1
 8003480:	2bc8      	cmp	r3, #200	; 0xc8
 8003482:	65a3      	str	r3, [r4, #88]	; 0x58
 8003484:	dd06      	ble.n	8003494 <TaskButtonManager+0x34>
 8003486:	2a01      	cmp	r2, #1
 8003488:	f04f 0300 	mov.w	r3, #0
 800348c:	bf04      	itt	eq
 800348e:	6222      	streq	r2, [r4, #32]
 8003490:	63e3      	streq	r3, [r4, #60]	; 0x3c
 8003492:	6623      	str	r3, [r4, #96]	; 0x60
 8003494:	f7fe fd58 	bl	8001f48 <InSOS>
 8003498:	2801      	cmp	r0, #1
 800349a:	d13c      	bne.n	8003516 <TaskButtonManager+0xb6>
 800349c:	6e23      	ldr	r3, [r4, #96]	; 0x60
 800349e:	f8c4 00f0 	str.w	r0, [r4, #240]	; 0xf0
 80034a2:	3301      	adds	r3, #1
 80034a4:	2b01      	cmp	r3, #1
 80034a6:	6520      	str	r0, [r4, #80]	; 0x50
 80034a8:	65e0      	str	r0, [r4, #92]	; 0x5c
 80034aa:	6623      	str	r3, [r4, #96]	; 0x60
 80034ac:	dd14      	ble.n	80034d8 <TaskButtonManager+0x78>
 80034ae:	6822      	ldr	r2, [r4, #0]
 80034b0:	2a01      	cmp	r2, #1
 80034b2:	d10b      	bne.n	80034cc <TaskButtonManager+0x6c>
 80034b4:	6e63      	ldr	r3, [r4, #100]	; 0x64
 80034b6:	2b01      	cmp	r3, #1
 80034b8:	d10e      	bne.n	80034d8 <TaskButtonManager+0x78>
 80034ba:	6223      	str	r3, [r4, #32]
 80034bc:	2300      	movs	r3, #0
 80034be:	63e3      	str	r3, [r4, #60]	; 0x3c
 80034c0:	6623      	str	r3, [r4, #96]	; 0x60
 80034c2:	e009      	b.n	80034d8 <TaskButtonManager+0x78>
 80034c4:	2300      	movs	r3, #0
 80034c6:	e9c4 3315 	strd	r3, r3, [r4, #84]	; 0x54
 80034ca:	e7e3      	b.n	8003494 <TaskButtonManager+0x34>
 80034cc:	2b64      	cmp	r3, #100	; 0x64
 80034ce:	dd03      	ble.n	80034d8 <TaskButtonManager+0x78>
 80034d0:	b912      	cbnz	r2, 80034d8 <TaskButtonManager+0x78>
 80034d2:	6068      	str	r0, [r5, #4]
 80034d4:	e9c4 2218 	strd	r2, r2, [r4, #96]	; 0x60
 80034d8:	2300      	movs	r3, #0
 80034da:	64e3      	str	r3, [r4, #76]	; 0x4c
 80034dc:	6d63      	ldr	r3, [r4, #84]	; 0x54
 80034de:	f8d4 20ac 	ldr.w	r2, [r4, #172]	; 0xac
 80034e2:	2b01      	cmp	r3, #1
 80034e4:	d002      	beq.n	80034ec <TaskButtonManager+0x8c>
 80034e6:	6de3      	ldr	r3, [r4, #92]	; 0x5c
 80034e8:	2b01      	cmp	r3, #1
 80034ea:	d119      	bne.n	8003520 <TaskButtonManager+0xc0>
 80034ec:	b922      	cbnz	r2, 80034f8 <TaskButtonManager+0x98>
 80034ee:	4623      	mov	r3, r4
 80034f0:	4611      	mov	r1, r2
 80034f2:	2032      	movs	r0, #50	; 0x32
 80034f4:	f7fe ff98 	bl	8002428 <LedOn>
 80034f8:	f8d4 30ac 	ldr.w	r3, [r4, #172]	; 0xac
 80034fc:	2b01      	cmp	r3, #1
 80034fe:	d114      	bne.n	800352a <TaskButtonManager+0xca>
 8003500:	6d63      	ldr	r3, [r4, #84]	; 0x54
 8003502:	2b01      	cmp	r3, #1
 8003504:	d111      	bne.n	800352a <TaskButtonManager+0xca>
 8003506:	2200      	movs	r2, #0
 8003508:	4623      	mov	r3, r4
 800350a:	4611      	mov	r1, r2
 800350c:	2032      	movs	r0, #50	; 0x32
 800350e:	e8bd 4070 	ldmia.w	sp!, {r4, r5, r6, lr}
 8003512:	f7fe bf89 	b.w	8002428 <LedOn>
 8003516:	2301      	movs	r3, #1
 8003518:	6663      	str	r3, [r4, #100]	; 0x64
 800351a:	2300      	movs	r3, #0
 800351c:	65e3      	str	r3, [r4, #92]	; 0x5c
 800351e:	e7cf      	b.n	80034c0 <TaskButtonManager+0x60>
 8003520:	b91a      	cbnz	r2, 800352a <TaskButtonManager+0xca>
 8003522:	4623      	mov	r3, r4
 8003524:	4611      	mov	r1, r2
 8003526:	4610      	mov	r0, r2
 8003528:	e7f1      	b.n	800350e <TaskButtonManager+0xae>
 800352a:	bd70      	pop	{r4, r5, r6, pc}

0800352c <TaskAlertManager>:
 800352c:	6803      	ldr	r3, [r0, #0]
 800352e:	2b01      	cmp	r3, #1
 8003530:	b570      	push	{r4, r5, r6, lr}
 8003532:	4604      	mov	r4, r0
 8003534:	460d      	mov	r5, r1
 8003536:	d127      	bne.n	8003588 <TaskAlertManager+0x5c>
 8003538:	6883      	ldr	r3, [r0, #8]
 800353a:	2b01      	cmp	r3, #1
 800353c:	d148      	bne.n	80035d0 <TaskAlertManager+0xa4>
 800353e:	68c3      	ldr	r3, [r0, #12]
 8003540:	2b01      	cmp	r3, #1
 8003542:	d145      	bne.n	80035d0 <TaskAlertManager+0xa4>
 8003544:	6903      	ldr	r3, [r0, #16]
 8003546:	2b01      	cmp	r3, #1
 8003548:	d142      	bne.n	80035d0 <TaskAlertManager+0xa4>
 800354a:	680b      	ldr	r3, [r1, #0]
 800354c:	2b01      	cmp	r3, #1
 800354e:	d105      	bne.n	800355c <TaskAlertManager+0x30>
 8003550:	22c8      	movs	r2, #200	; 0xc8
 8003552:	4603      	mov	r3, r0
 8003554:	4611      	mov	r1, r2
 8003556:	20fa      	movs	r0, #250	; 0xfa
 8003558:	f7fe ff66 	bl	8002428 <LedOn>
 800355c:	682b      	ldr	r3, [r5, #0]
 800355e:	2b0a      	cmp	r3, #10
 8003560:	d10a      	bne.n	8003578 <TaskAlertManager+0x4c>
 8003562:	2200      	movs	r2, #0
 8003564:	4610      	mov	r0, r2
 8003566:	4623      	mov	r3, r4
 8003568:	4611      	mov	r1, r2
 800356a:	f7fe ff5d 	bl	8002428 <LedOn>
 800356e:	f7fe fcfd 	bl	8001f6c <OutBuzOff>
 8003572:	2000      	movs	r0, #0
 8003574:	f7fe fcc6 	bl	8001f04 <OutMotorWu>
 8003578:	682b      	ldr	r3, [r5, #0]
 800357a:	2b64      	cmp	r3, #100	; 0x64
 800357c:	bf04      	itt	eq
 800357e:	2300      	moveq	r3, #0
 8003580:	602b      	streq	r3, [r5, #0]
 8003582:	682b      	ldr	r3, [r5, #0]
 8003584:	3301      	adds	r3, #1
 8003586:	602b      	str	r3, [r5, #0]
 8003588:	6ca6      	ldr	r6, [r4, #72]	; 0x48
 800358a:	2e01      	cmp	r6, #1
 800358c:	d149      	bne.n	8003622 <TaskAlertManager+0xf6>
 800358e:	6825      	ldr	r5, [r4, #0]
 8003590:	2d00      	cmp	r5, #0
 8003592:	d148      	bne.n	8003626 <TaskAlertManager+0xfa>
 8003594:	4623      	mov	r3, r4
 8003596:	462a      	mov	r2, r5
 8003598:	4629      	mov	r1, r5
 800359a:	4628      	mov	r0, r5
 800359c:	f7fe ff44 	bl	8002428 <LedOn>
 80035a0:	f7fe fce4 	bl	8001f6c <OutBuzOff>
 80035a4:	4628      	mov	r0, r5
 80035a6:	f7fe fcad 	bl	8001f04 <OutMotorWu>
 80035aa:	e9c4 551a 	strd	r5, r5, [r4, #104]	; 0x68
 80035ae:	e9c4 561c 	strd	r5, r6, [r4, #112]	; 0x70
 80035b2:	e9c4 551e 	strd	r5, r5, [r4, #120]	; 0x78
 80035b6:	64a5      	str	r5, [r4, #72]	; 0x48
 80035b8:	6822      	ldr	r2, [r4, #0]
 80035ba:	2a01      	cmp	r2, #1
 80035bc:	d133      	bne.n	8003626 <TaskAlertManager+0xfa>
 80035be:	2300      	movs	r3, #0
 80035c0:	e9c4 331a 	strd	r3, r3, [r4, #104]	; 0x68
 80035c4:	e9c4 321c 	strd	r3, r2, [r4, #112]	; 0x70
 80035c8:	e9c4 331e 	strd	r3, r3, [r4, #120]	; 0x78
 80035cc:	64a2      	str	r2, [r4, #72]	; 0x48
 80035ce:	e02a      	b.n	8003626 <TaskAlertManager+0xfa>
 80035d0:	6963      	ldr	r3, [r4, #20]
 80035d2:	2b01      	cmp	r3, #1
 80035d4:	d1d8      	bne.n	8003588 <TaskAlertManager+0x5c>
 80035d6:	69a3      	ldr	r3, [r4, #24]
 80035d8:	2b01      	cmp	r3, #1
 80035da:	d1d5      	bne.n	8003588 <TaskAlertManager+0x5c>
 80035dc:	69e3      	ldr	r3, [r4, #28]
 80035de:	2b01      	cmp	r3, #1
 80035e0:	d1d2      	bne.n	8003588 <TaskAlertManager+0x5c>
 80035e2:	682e      	ldr	r6, [r5, #0]
 80035e4:	2e01      	cmp	r6, #1
 80035e6:	d10a      	bne.n	80035fe <TaskAlertManager+0xd2>
 80035e8:	22c8      	movs	r2, #200	; 0xc8
 80035ea:	20fa      	movs	r0, #250	; 0xfa
 80035ec:	4623      	mov	r3, r4
 80035ee:	4611      	mov	r1, r2
 80035f0:	f7fe ff1a 	bl	8002428 <LedOn>
 80035f4:	f7fe fcb4 	bl	8001f60 <OutBuzOn>
 80035f8:	4630      	mov	r0, r6
 80035fa:	f7fe fc83 	bl	8001f04 <OutMotorWu>
 80035fe:	682b      	ldr	r3, [r5, #0]
 8003600:	2b0a      	cmp	r3, #10
 8003602:	d10a      	bne.n	800361a <TaskAlertManager+0xee>
 8003604:	2200      	movs	r2, #0
 8003606:	4610      	mov	r0, r2
 8003608:	4623      	mov	r3, r4
 800360a:	4611      	mov	r1, r2
 800360c:	f7fe ff0c 	bl	8002428 <LedOn>
 8003610:	f7fe fcac 	bl	8001f6c <OutBuzOff>
 8003614:	2000      	movs	r0, #0
 8003616:	f7fe fc75 	bl	8001f04 <OutMotorWu>
 800361a:	682b      	ldr	r3, [r5, #0]
 800361c:	f5b3 7f7a 	cmp.w	r3, #1000	; 0x3e8
 8003620:	e7ac      	b.n	800357c <TaskAlertManager+0x50>
 8003622:	2e00      	cmp	r6, #0
 8003624:	d0c8      	beq.n	80035b8 <TaskAlertManager+0x8c>
 8003626:	bd70      	pop	{r4, r5, r6, pc}

08003628 <TaskFallManager>:
 8003628:	e92d 41f0 	stmdb	sp!, {r4, r5, r6, r7, r8, lr}
 800362c:	9c06      	ldr	r4, [sp, #24]
 800362e:	6ea5      	ldr	r5, [r4, #104]	; 0x68
 8003630:	2dc7      	cmp	r5, #199	; 0xc7
 8003632:	dc07      	bgt.n	8003644 <TaskFallManager+0x1c>
 8003634:	6f66      	ldr	r6, [r4, #116]	; 0x74
 8003636:	b12e      	cbz	r6, 8003644 <TaskFallManager+0x1c>
 8003638:	f820 2015 	strh.w	r2, [r0, r5, lsl #1]
 800363c:	554b      	strb	r3, [r1, r5]
 800363e:	6ea5      	ldr	r5, [r4, #104]	; 0x68
 8003640:	3501      	adds	r5, #1
 8003642:	66a5      	str	r5, [r4, #104]	; 0x68
 8003644:	6ea5      	ldr	r5, [r4, #104]	; 0x68
 8003646:	2dc8      	cmp	r5, #200	; 0xc8
 8003648:	d138      	bne.n	80036bc <TaskFallManager+0x94>
 800364a:	6f66      	ldr	r6, [r4, #116]	; 0x74
 800364c:	2e00      	cmp	r6, #0
 800364e:	d035      	beq.n	80036bc <TaskFallManager+0x94>
 8003650:	2701      	movs	r7, #1
 8003652:	2600      	movs	r6, #0
 8003654:	e9c4 761c 	strd	r7, r6, [r4, #112]	; 0x70
 8003658:	6ee6      	ldr	r6, [r4, #108]	; 0x6c
 800365a:	2ec7      	cmp	r6, #199	; 0xc7
 800365c:	d835      	bhi.n	80036ca <TaskFallManager+0xa2>
 800365e:	f820 2015 	strh.w	r2, [r0, r5, lsl #1]
 8003662:	554b      	strb	r3, [r1, r5]
 8003664:	e9d4 651a 	ldrd	r6, r5, [r4, #104]	; 0x68
 8003668:	4f30      	ldr	r7, [pc, #192]	; (800372c <TaskFallManager+0x104>)
 800366a:	f830 c016 	ldrh.w	ip, [r0, r6, lsl #1]
 800366e:	f827 c015 	strh.w	ip, [r7, r5, lsl #1]
 8003672:	5d8f      	ldrb	r7, [r1, r6]
 8003674:	4e2e      	ldr	r6, [pc, #184]	; (8003730 <TaskFallManager+0x108>)
 8003676:	5577      	strb	r7, [r6, r5]
 8003678:	6ee5      	ldr	r5, [r4, #108]	; 0x6c
 800367a:	3501      	adds	r5, #1
 800367c:	66e5      	str	r5, [r4, #108]	; 0x6c
 800367e:	6ea5      	ldr	r5, [r4, #104]	; 0x68
 8003680:	3501      	adds	r5, #1
 8003682:	f5b5 7fc8 	cmp.w	r5, #400	; 0x190
 8003686:	66a5      	str	r5, [r4, #104]	; 0x68
 8003688:	d114      	bne.n	80036b4 <TaskFallManager+0x8c>
 800368a:	f8df c0ac 	ldr.w	ip, [pc, #172]	; 8003738 <TaskFallManager+0x110>
 800368e:	4e29      	ldr	r6, [pc, #164]	; (8003734 <TaskFallManager+0x10c>)
 8003690:	1e85      	subs	r5, r0, #2
 8003692:	1e4f      	subs	r7, r1, #1
 8003694:	f200 3e1e 	addw	lr, r0, #798	; 0x31e
 8003698:	f835 8f02 	ldrh.w	r8, [r5, #2]!
 800369c:	f82c 8b02 	strh.w	r8, [ip], #2
 80036a0:	4575      	cmp	r5, lr
 80036a2:	f817 8f01 	ldrb.w	r8, [r7, #1]!
 80036a6:	f806 8b01 	strb.w	r8, [r6], #1
 80036aa:	d1f5      	bne.n	8003698 <TaskFallManager+0x70>
 80036ac:	2500      	movs	r5, #0
 80036ae:	66a5      	str	r5, [r4, #104]	; 0x68
 80036b0:	2501      	movs	r5, #1
 80036b2:	67a5      	str	r5, [r4, #120]	; 0x78
 80036b4:	6f25      	ldr	r5, [r4, #112]	; 0x70
 80036b6:	b945      	cbnz	r5, 80036ca <TaskFallManager+0xa2>
 80036b8:	e8bd 81f0 	ldmia.w	sp!, {r4, r5, r6, r7, r8, pc}
 80036bc:	6f26      	ldr	r6, [r4, #112]	; 0x70
 80036be:	2e00      	cmp	r6, #0
 80036c0:	d0fa      	beq.n	80036b8 <TaskFallManager+0x90>
 80036c2:	f1a5 06c8 	sub.w	r6, r5, #200	; 0xc8
 80036c6:	2ec7      	cmp	r6, #199	; 0xc7
 80036c8:	d9c6      	bls.n	8003658 <TaskFallManager+0x30>
 80036ca:	6ea5      	ldr	r5, [r4, #104]	; 0x68
 80036cc:	2dc7      	cmp	r5, #199	; 0xc7
 80036ce:	d8f3      	bhi.n	80036b8 <TaskFallManager+0x90>
 80036d0:	6ee6      	ldr	r6, [r4, #108]	; 0x6c
 80036d2:	f1a6 05c8 	sub.w	r5, r6, #200	; 0xc8
 80036d6:	2dc7      	cmp	r5, #199	; 0xc7
 80036d8:	d8ee      	bhi.n	80036b8 <TaskFallManager+0x90>
 80036da:	4d14      	ldr	r5, [pc, #80]	; (800372c <TaskFallManager+0x104>)
 80036dc:	f825 2016 	strh.w	r2, [r5, r6, lsl #1]
 80036e0:	4a13      	ldr	r2, [pc, #76]	; (8003730 <TaskFallManager+0x108>)
 80036e2:	5593      	strb	r3, [r2, r6]
 80036e4:	e9d4 361a 	ldrd	r3, r6, [r4, #104]	; 0x68
 80036e8:	f835 7016 	ldrh.w	r7, [r5, r6, lsl #1]
 80036ec:	f820 7013 	strh.w	r7, [r0, r3, lsl #1]
 80036f0:	5d90      	ldrb	r0, [r2, r6]
 80036f2:	54c8      	strb	r0, [r1, r3]
 80036f4:	6ee3      	ldr	r3, [r4, #108]	; 0x6c
 80036f6:	6ea1      	ldr	r1, [r4, #104]	; 0x68
 80036f8:	3301      	adds	r3, #1
 80036fa:	3101      	adds	r1, #1
 80036fc:	f5b3 7fc8 	cmp.w	r3, #400	; 0x190
 8003700:	66e3      	str	r3, [r4, #108]	; 0x6c
 8003702:	66a1      	str	r1, [r4, #104]	; 0x68
 8003704:	d1d8      	bne.n	80036b8 <TaskFallManager+0x90>
 8003706:	480c      	ldr	r0, [pc, #48]	; (8003738 <TaskFallManager+0x110>)
 8003708:	490a      	ldr	r1, [pc, #40]	; (8003734 <TaskFallManager+0x10c>)
 800370a:	f835 6b02 	ldrh.w	r6, [r5], #2
 800370e:	f820 6b02 	strh.w	r6, [r0], #2
 8003712:	3b01      	subs	r3, #1
 8003714:	f812 6b01 	ldrb.w	r6, [r2], #1
 8003718:	f801 6b01 	strb.w	r6, [r1], #1
 800371c:	b29b      	uxth	r3, r3
 800371e:	2b00      	cmp	r3, #0
 8003720:	d1f3      	bne.n	800370a <TaskFallManager+0xe2>
 8003722:	66e3      	str	r3, [r4, #108]	; 0x6c
 8003724:	2301      	movs	r3, #1
 8003726:	67e3      	str	r3, [r4, #124]	; 0x7c
 8003728:	e7c6      	b.n	80036b8 <TaskFallManager+0x90>
 800372a:	bf00      	nop
 800372c:	200013f0 	.word	0x200013f0
 8003730:	20002128 	.word	0x20002128
 8003734:	200022f6 	.word	0x200022f6
 8003738:	20001a68 	.word	0x20001a68

0800373c <Task_Read_Nemeus>:
 800373c:	b5f8      	push	{r3, r4, r5, r6, r7, lr}
 800373e:	4c44      	ldr	r4, [pc, #272]	; (8003850 <Task_Read_Nemeus+0x114>)
 8003740:	7823      	ldrb	r3, [r4, #0]
 8003742:	2b2b      	cmp	r3, #43	; 0x2b
 8003744:	d106      	bne.n	8003754 <Task_Read_Nemeus+0x18>
 8003746:	7863      	ldrb	r3, [r4, #1]
 8003748:	2b53      	cmp	r3, #83	; 0x53
 800374a:	d00e      	beq.n	800376a <Task_Read_Nemeus+0x2e>
 800374c:	7863      	ldrb	r3, [r4, #1]
 800374e:	2b4d      	cmp	r3, #77	; 0x4d
 8003750:	f000 8088 	beq.w	8003864 <Task_Read_Nemeus+0x128>
 8003754:	483f      	ldr	r0, [pc, #252]	; (8003854 <Task_Read_Nemeus+0x118>)
 8003756:	4a3e      	ldr	r2, [pc, #248]	; (8003850 <Task_Read_Nemeus+0x114>)
 8003758:	23c8      	movs	r3, #200	; 0xc8
 800375a:	2100      	movs	r1, #0
 800375c:	3b01      	subs	r3, #1
 800375e:	f800 1b01 	strb.w	r1, [r0], #1
 8003762:	f802 1b01 	strb.w	r1, [r2], #1
 8003766:	d1f9      	bne.n	800375c <Task_Read_Nemeus+0x20>
 8003768:	bdf8      	pop	{r3, r4, r5, r6, r7, pc}
 800376a:	78a3      	ldrb	r3, [r4, #2]
 800376c:	2b46      	cmp	r3, #70	; 0x46
 800376e:	d1f1      	bne.n	8003754 <Task_Read_Nemeus+0x18>
 8003770:	78e3      	ldrb	r3, [r4, #3]
 8003772:	2b3a      	cmp	r3, #58	; 0x3a
 8003774:	d1ee      	bne.n	8003754 <Task_Read_Nemeus+0x18>
 8003776:	7923      	ldrb	r3, [r4, #4]
 8003778:	2b20      	cmp	r3, #32
 800377a:	d1eb      	bne.n	8003754 <Task_Read_Nemeus+0x18>
 800377c:	7963      	ldrb	r3, [r4, #5]
 800377e:	2b52      	cmp	r3, #82	; 0x52
 8003780:	d1e8      	bne.n	8003754 <Task_Read_Nemeus+0x18>
 8003782:	79a3      	ldrb	r3, [r4, #6]
 8003784:	2b43      	cmp	r3, #67	; 0x43
 8003786:	d1e5      	bne.n	8003754 <Task_Read_Nemeus+0x18>
 8003788:	79e3      	ldrb	r3, [r4, #7]
 800378a:	2b56      	cmp	r3, #86	; 0x56
 800378c:	d1e2      	bne.n	8003754 <Task_Read_Nemeus+0x18>
 800378e:	7a23      	ldrb	r3, [r4, #8]
 8003790:	2b42      	cmp	r3, #66	; 0x42
 8003792:	d1df      	bne.n	8003754 <Task_Read_Nemeus+0x18>
 8003794:	7a63      	ldrb	r3, [r4, #9]
 8003796:	2b49      	cmp	r3, #73	; 0x49
 8003798:	d1dc      	bne.n	8003754 <Task_Read_Nemeus+0x18>
 800379a:	7aa3      	ldrb	r3, [r4, #10]
 800379c:	2b4e      	cmp	r3, #78	; 0x4e
 800379e:	d1d9      	bne.n	8003754 <Task_Read_Nemeus+0x18>
 80037a0:	7b23      	ldrb	r3, [r4, #12]
 80037a2:	2b31      	cmp	r3, #49	; 0x31
 80037a4:	d1d6      	bne.n	8003754 <Task_Read_Nemeus+0x18>
 80037a6:	7b63      	ldrb	r3, [r4, #13]
 80037a8:	2b32      	cmp	r3, #50	; 0x32
 80037aa:	d1d3      	bne.n	8003754 <Task_Read_Nemeus+0x18>
 80037ac:	7ba3      	ldrb	r3, [r4, #14]
 80037ae:	2b33      	cmp	r3, #51	; 0x33
 80037b0:	d1d0      	bne.n	8003754 <Task_Read_Nemeus+0x18>
 80037b2:	7be3      	ldrb	r3, [r4, #15]
 80037b4:	2b34      	cmp	r3, #52	; 0x34
 80037b6:	d1cd      	bne.n	8003754 <Task_Read_Nemeus+0x18>
 80037b8:	2600      	movs	r6, #0
 80037ba:	4a25      	ldr	r2, [pc, #148]	; (8003850 <Task_Read_Nemeus+0x114>)
 80037bc:	4633      	mov	r3, r6
 80037be:	f812 1b01 	ldrb.w	r1, [r2], #1
 80037c2:	292c      	cmp	r1, #44	; 0x2c
 80037c4:	bf04      	itt	eq
 80037c6:	3301      	addeq	r3, #1
 80037c8:	b2db      	uxtbeq	r3, r3
 80037ca:	3601      	adds	r6, #1
 80037cc:	2b02      	cmp	r3, #2
 80037ce:	b2f6      	uxtb	r6, r6
 80037d0:	d001      	beq.n	80037d6 <Task_Read_Nemeus+0x9a>
 80037d2:	2ec9      	cmp	r6, #201	; 0xc9
 80037d4:	d1f3      	bne.n	80037be <Task_Read_Nemeus+0x82>
 80037d6:	5da3      	ldrb	r3, [r4, r6]
 80037d8:	2b2d      	cmp	r3, #45	; 0x2d
 80037da:	d1bb      	bne.n	8003754 <Task_Read_Nemeus+0x18>
 80037dc:	4f1e      	ldr	r7, [pc, #120]	; (8003858 <Task_Read_Nemeus+0x11c>)
 80037de:	4d1f      	ldr	r5, [pc, #124]	; (800385c <Task_Read_Nemeus+0x120>)
 80037e0:	2064      	movs	r0, #100	; 0x64
 80037e2:	f7fe f970 	bl	8001ac6 <PowerVib>
 80037e6:	783b      	ldrb	r3, [r7, #0]
 80037e8:	2b04      	cmp	r3, #4
 80037ea:	d11a      	bne.n	8003822 <Task_Read_Nemeus+0xe6>
 80037ec:	f002 fb36 	bl	8005e5c <HAL_GetTick>
 80037f0:	4b1b      	ldr	r3, [pc, #108]	; (8003860 <Task_Read_Nemeus+0x124>)
 80037f2:	60d8      	str	r0, [r3, #12]
 80037f4:	2301      	movs	r3, #1
 80037f6:	652b      	str	r3, [r5, #80]	; 0x50
 80037f8:	2300      	movs	r3, #0
 80037fa:	703b      	strb	r3, [r7, #0]
 80037fc:	4426      	add	r6, r4
 80037fe:	78f0      	ldrb	r0, [r6, #3]
 8003800:	78b2      	ldrb	r2, [r6, #2]
 8003802:	7873      	ldrb	r3, [r6, #1]
 8003804:	282e      	cmp	r0, #46	; 0x2e
 8003806:	f1a2 0230 	sub.w	r2, r2, #48	; 0x30
 800380a:	d117      	bne.n	800383c <Task_Read_Nemeus+0x100>
 800380c:	f1c3 0330 	rsb	r3, r3, #48	; 0x30
 8003810:	210a      	movs	r1, #10
 8003812:	fb01 2303 	mla	r3, r1, r3, r2
 8003816:	f8c5 3138 	str.w	r3, [r5, #312]	; 0x138
 800381a:	7823      	ldrb	r3, [r4, #0]
 800381c:	2b2b      	cmp	r3, #43	; 0x2b
 800381e:	d095      	beq.n	800374c <Task_Read_Nemeus+0x10>
 8003820:	e798      	b.n	8003754 <Task_Read_Nemeus+0x18>
 8003822:	2b06      	cmp	r3, #6
 8003824:	d1ea      	bne.n	80037fc <Task_Read_Nemeus+0xc0>
 8003826:	f002 fb19 	bl	8005e5c <HAL_GetTick>
 800382a:	4b0d      	ldr	r3, [pc, #52]	; (8003860 <Task_Read_Nemeus+0x124>)
 800382c:	60d8      	str	r0, [r3, #12]
 800382e:	2301      	movs	r3, #1
 8003830:	652b      	str	r3, [r5, #80]	; 0x50
 8003832:	2300      	movs	r3, #0
 8003834:	703b      	strb	r3, [r7, #0]
 8003836:	f7fe fe90 	bl	800255a <LoraWanOn>
 800383a:	e7df      	b.n	80037fc <Task_Read_Nemeus+0xc0>
 800383c:	210a      	movs	r1, #10
 800383e:	434a      	muls	r2, r1
 8003840:	3b30      	subs	r3, #48	; 0x30
 8003842:	2164      	movs	r1, #100	; 0x64
 8003844:	fb01 2303 	mla	r3, r1, r3, r2
 8003848:	f1c3 0330 	rsb	r3, r3, #48	; 0x30
 800384c:	1a1b      	subs	r3, r3, r0
 800384e:	e7e2      	b.n	8003816 <Task_Read_Nemeus+0xda>
 8003850:	20001972 	.word	0x20001972
 8003854:	20000fd8 	.word	0x20000fd8
 8003858:	200009d4 	.word	0x200009d4
 800385c:	20001714 	.word	0x20001714
 8003860:	20001a3c 	.word	0x20001a3c
 8003864:	78a3      	ldrb	r3, [r4, #2]
 8003866:	2b41      	cmp	r3, #65	; 0x41
 8003868:	f47f af74 	bne.w	8003754 <Task_Read_Nemeus+0x18>
 800386c:	78e3      	ldrb	r3, [r4, #3]
 800386e:	2b43      	cmp	r3, #67	; 0x43
 8003870:	f47f af70 	bne.w	8003754 <Task_Read_Nemeus+0x18>
 8003874:	7923      	ldrb	r3, [r4, #4]
 8003876:	2b3a      	cmp	r3, #58	; 0x3a
 8003878:	f47f af6c 	bne.w	8003754 <Task_Read_Nemeus+0x18>
 800387c:	79a3      	ldrb	r3, [r4, #6]
 800387e:	2b52      	cmp	r3, #82	; 0x52
 8003880:	d142      	bne.n	8003908 <Task_Read_Nemeus+0x1cc>
 8003882:	79e3      	ldrb	r3, [r4, #7]
 8003884:	2b44      	cmp	r3, #68	; 0x44
 8003886:	d13f      	bne.n	8003908 <Task_Read_Nemeus+0x1cc>
 8003888:	7a23      	ldrb	r3, [r4, #8]
 800388a:	2b45      	cmp	r3, #69	; 0x45
 800388c:	d13c      	bne.n	8003908 <Task_Read_Nemeus+0x1cc>
 800388e:	7a63      	ldrb	r3, [r4, #9]
 8003890:	2b56      	cmp	r3, #86	; 0x56
 8003892:	d139      	bne.n	8003908 <Task_Read_Nemeus+0x1cc>
 8003894:	7aa3      	ldrb	r3, [r4, #10]
 8003896:	2b41      	cmp	r3, #65	; 0x41
 8003898:	d136      	bne.n	8003908 <Task_Read_Nemeus+0x1cc>
 800389a:	7ae3      	ldrb	r3, [r4, #11]
 800389c:	2b44      	cmp	r3, #68	; 0x44
 800389e:	d133      	bne.n	8003908 <Task_Read_Nemeus+0x1cc>
 80038a0:	7be3      	ldrb	r3, [r4, #15]
 80038a2:	2b30      	cmp	r3, #48	; 0x30
 80038a4:	d114      	bne.n	80038d0 <Task_Read_Nemeus+0x194>
 80038a6:	7c23      	ldrb	r3, [r4, #16]
 80038a8:	2b30      	cmp	r3, #48	; 0x30
 80038aa:	d111      	bne.n	80038d0 <Task_Read_Nemeus+0x194>
 80038ac:	7c63      	ldrb	r3, [r4, #17]
 80038ae:	2b30      	cmp	r3, #48	; 0x30
 80038b0:	d10e      	bne.n	80038d0 <Task_Read_Nemeus+0x194>
 80038b2:	7ca3      	ldrb	r3, [r4, #18]
 80038b4:	2b30      	cmp	r3, #48	; 0x30
 80038b6:	d10b      	bne.n	80038d0 <Task_Read_Nemeus+0x194>
 80038b8:	7ce3      	ldrb	r3, [r4, #19]
 80038ba:	2b30      	cmp	r3, #48	; 0x30
 80038bc:	d108      	bne.n	80038d0 <Task_Read_Nemeus+0x194>
 80038be:	7d23      	ldrb	r3, [r4, #20]
 80038c0:	2b30      	cmp	r3, #48	; 0x30
 80038c2:	d105      	bne.n	80038d0 <Task_Read_Nemeus+0x194>
 80038c4:	7d63      	ldrb	r3, [r4, #21]
 80038c6:	2b30      	cmp	r3, #48	; 0x30
 80038c8:	d102      	bne.n	80038d0 <Task_Read_Nemeus+0x194>
 80038ca:	7da3      	ldrb	r3, [r4, #22]
 80038cc:	2b30      	cmp	r3, #48	; 0x30
 80038ce:	d01b      	beq.n	8003908 <Task_Read_Nemeus+0x1cc>
 80038d0:	4d5e      	ldr	r5, [pc, #376]	; (8003a4c <Task_Read_Nemeus+0x310>)
 80038d2:	f8d5 6134 	ldr.w	r6, [r5, #308]	; 0x134
 80038d6:	2e01      	cmp	r6, #1
 80038d8:	d116      	bne.n	8003908 <Task_Read_Nemeus+0x1cc>
 80038da:	f44f 70fa 	mov.w	r0, #500	; 0x1f4
 80038de:	f002 fac3 	bl	8005e68 <HAL_Delay>
 80038e2:	f7fe fe3b 	bl	800255c <SendOnLora>
 80038e6:	2064      	movs	r0, #100	; 0x64
 80038e8:	f7fe f8ed 	bl	8001ac6 <PowerVib>
 80038ec:	f002 fab6 	bl	8005e5c <HAL_GetTick>
 80038f0:	4b57      	ldr	r3, [pc, #348]	; (8003a50 <Task_Read_Nemeus+0x314>)
 80038f2:	6018      	str	r0, [r3, #0]
 80038f4:	f002 fab2 	bl	8005e5c <HAL_GetTick>
 80038f8:	4b56      	ldr	r3, [pc, #344]	; (8003a54 <Task_Read_Nemeus+0x318>)
 80038fa:	4a57      	ldr	r2, [pc, #348]	; (8003a58 <Task_Read_Nemeus+0x31c>)
 80038fc:	60d8      	str	r0, [r3, #12]
 80038fe:	2302      	movs	r3, #2
 8003900:	652e      	str	r6, [r5, #80]	; 0x50
 8003902:	f8c5 3134 	str.w	r3, [r5, #308]	; 0x134
 8003906:	7013      	strb	r3, [r2, #0]
 8003908:	7ba2      	ldrb	r2, [r4, #14]
 800390a:	79a3      	ldrb	r3, [r4, #6]
 800390c:	2a2c      	cmp	r2, #44	; 0x2c
 800390e:	d101      	bne.n	8003914 <Task_Read_Nemeus+0x1d8>
 8003910:	2b52      	cmp	r3, #82	; 0x52
 8003912:	d103      	bne.n	800391c <Task_Read_Nemeus+0x1e0>
 8003914:	4a51      	ldr	r2, [pc, #324]	; (8003a5c <Task_Read_Nemeus+0x320>)
 8003916:	7812      	ldrb	r2, [r2, #0]
 8003918:	2a01      	cmp	r2, #1
 800391a:	d133      	bne.n	8003984 <Task_Read_Nemeus+0x248>
 800391c:	2b30      	cmp	r3, #48	; 0x30
 800391e:	d115      	bne.n	800394c <Task_Read_Nemeus+0x210>
 8003920:	79e3      	ldrb	r3, [r4, #7]
 8003922:	2b30      	cmp	r3, #48	; 0x30
 8003924:	d112      	bne.n	800394c <Task_Read_Nemeus+0x210>
 8003926:	7a23      	ldrb	r3, [r4, #8]
 8003928:	2b30      	cmp	r3, #48	; 0x30
 800392a:	d10f      	bne.n	800394c <Task_Read_Nemeus+0x210>
 800392c:	7a63      	ldrb	r3, [r4, #9]
 800392e:	2b30      	cmp	r3, #48	; 0x30
 8003930:	d10c      	bne.n	800394c <Task_Read_Nemeus+0x210>
 8003932:	7aa3      	ldrb	r3, [r4, #10]
 8003934:	2b30      	cmp	r3, #48	; 0x30
 8003936:	d109      	bne.n	800394c <Task_Read_Nemeus+0x210>
 8003938:	7ae3      	ldrb	r3, [r4, #11]
 800393a:	2b30      	cmp	r3, #48	; 0x30
 800393c:	d106      	bne.n	800394c <Task_Read_Nemeus+0x210>
 800393e:	7b23      	ldrb	r3, [r4, #12]
 8003940:	2b30      	cmp	r3, #48	; 0x30
 8003942:	d103      	bne.n	800394c <Task_Read_Nemeus+0x210>
 8003944:	7b63      	ldrb	r3, [r4, #13]
 8003946:	2b30      	cmp	r3, #48	; 0x30
 8003948:	f43f af04 	beq.w	8003754 <Task_Read_Nemeus+0x18>
 800394c:	4d3f      	ldr	r5, [pc, #252]	; (8003a4c <Task_Read_Nemeus+0x310>)
 800394e:	f8d5 6134 	ldr.w	r6, [r5, #308]	; 0x134
 8003952:	2e01      	cmp	r6, #1
 8003954:	d116      	bne.n	8003984 <Task_Read_Nemeus+0x248>
 8003956:	f44f 70fa 	mov.w	r0, #500	; 0x1f4
 800395a:	f002 fa85 	bl	8005e68 <HAL_Delay>
 800395e:	f7fe fdfd 	bl	800255c <SendOnLora>
 8003962:	f002 fa7b 	bl	8005e5c <HAL_GetTick>
 8003966:	4b3a      	ldr	r3, [pc, #232]	; (8003a50 <Task_Read_Nemeus+0x314>)
 8003968:	6018      	str	r0, [r3, #0]
 800396a:	2064      	movs	r0, #100	; 0x64
 800396c:	f7fe f8ab 	bl	8001ac6 <PowerVib>
 8003970:	f002 fa74 	bl	8005e5c <HAL_GetTick>
 8003974:	4b37      	ldr	r3, [pc, #220]	; (8003a54 <Task_Read_Nemeus+0x318>)
 8003976:	4a38      	ldr	r2, [pc, #224]	; (8003a58 <Task_Read_Nemeus+0x31c>)
 8003978:	60d8      	str	r0, [r3, #12]
 800397a:	2302      	movs	r3, #2
 800397c:	652e      	str	r6, [r5, #80]	; 0x50
 800397e:	f8c5 3134 	str.w	r3, [r5, #308]	; 0x134
 8003982:	7013      	strb	r3, [r2, #0]
 8003984:	79a3      	ldrb	r3, [r4, #6]
 8003986:	2b52      	cmp	r3, #82	; 0x52
 8003988:	f47f aee4 	bne.w	8003754 <Task_Read_Nemeus+0x18>
 800398c:	79e3      	ldrb	r3, [r4, #7]
 800398e:	2b43      	cmp	r3, #67	; 0x43
 8003990:	f47f aee0 	bne.w	8003754 <Task_Read_Nemeus+0x18>
 8003994:	7a23      	ldrb	r3, [r4, #8]
 8003996:	2b56      	cmp	r3, #86	; 0x56
 8003998:	f47f aedc 	bne.w	8003754 <Task_Read_Nemeus+0x18>
 800399c:	7a63      	ldrb	r3, [r4, #9]
 800399e:	2b42      	cmp	r3, #66	; 0x42
 80039a0:	f47f aed8 	bne.w	8003754 <Task_Read_Nemeus+0x18>
 80039a4:	7aa3      	ldrb	r3, [r4, #10]
 80039a6:	2b49      	cmp	r3, #73	; 0x49
 80039a8:	f47f aed4 	bne.w	8003754 <Task_Read_Nemeus+0x18>
 80039ac:	7ae3      	ldrb	r3, [r4, #11]
 80039ae:	2b4e      	cmp	r3, #78	; 0x4e
 80039b0:	f47f aed0 	bne.w	8003754 <Task_Read_Nemeus+0x18>
 80039b4:	2500      	movs	r5, #0
 80039b6:	4a2a      	ldr	r2, [pc, #168]	; (8003a60 <Task_Read_Nemeus+0x324>)
 80039b8:	462b      	mov	r3, r5
 80039ba:	f812 1b01 	ldrb.w	r1, [r2], #1
 80039be:	292c      	cmp	r1, #44	; 0x2c
 80039c0:	bf04      	itt	eq
 80039c2:	3301      	addeq	r3, #1
 80039c4:	b2db      	uxtbeq	r3, r3
 80039c6:	3501      	adds	r5, #1
 80039c8:	2b04      	cmp	r3, #4
 80039ca:	b2ed      	uxtb	r5, r5
 80039cc:	d001      	beq.n	80039d2 <Task_Read_Nemeus+0x296>
 80039ce:	2dc9      	cmp	r5, #201	; 0xc9
 80039d0:	d1f3      	bne.n	80039ba <Task_Read_Nemeus+0x27e>
 80039d2:	4b21      	ldr	r3, [pc, #132]	; (8003a58 <Task_Read_Nemeus+0x31c>)
 80039d4:	781a      	ldrb	r2, [r3, #0]
 80039d6:	2a02      	cmp	r2, #2
 80039d8:	d10d      	bne.n	80039f6 <Task_Read_Nemeus+0x2ba>
 80039da:	2200      	movs	r2, #0
 80039dc:	4921      	ldr	r1, [pc, #132]	; (8003a64 <Task_Read_Nemeus+0x328>)
 80039de:	4610      	mov	r0, r2
 80039e0:	3201      	adds	r2, #1
 80039e2:	2ac8      	cmp	r2, #200	; 0xc8
 80039e4:	f801 0b01 	strb.w	r0, [r1], #1
 80039e8:	d1fa      	bne.n	80039e0 <Task_Read_Nemeus+0x2a4>
 80039ea:	2203      	movs	r2, #3
 80039ec:	701a      	strb	r2, [r3, #0]
 80039ee:	f002 fa35 	bl	8005e5c <HAL_GetTick>
 80039f2:	4b17      	ldr	r3, [pc, #92]	; (8003a50 <Task_Read_Nemeus+0x314>)
 80039f4:	6018      	str	r0, [r3, #0]
 80039f6:	5d63      	ldrb	r3, [r4, r5]
 80039f8:	2b2d      	cmp	r3, #45	; 0x2d
 80039fa:	f47f aeab 	bne.w	8003754 <Task_Read_Nemeus+0x18>
 80039fe:	4e13      	ldr	r6, [pc, #76]	; (8003a4c <Task_Read_Nemeus+0x310>)
 8003a00:	f8d6 313c 	ldr.w	r3, [r6, #316]	; 0x13c
 8003a04:	b943      	cbnz	r3, 8003a18 <Task_Read_Nemeus+0x2dc>
 8003a06:	2064      	movs	r0, #100	; 0x64
 8003a08:	f7fe f85d 	bl	8001ac6 <PowerVib>
 8003a0c:	f002 fa26 	bl	8005e5c <HAL_GetTick>
 8003a10:	4b10      	ldr	r3, [pc, #64]	; (8003a54 <Task_Read_Nemeus+0x318>)
 8003a12:	60d8      	str	r0, [r3, #12]
 8003a14:	2301      	movs	r3, #1
 8003a16:	6533      	str	r3, [r6, #80]	; 0x50
 8003a18:	442c      	add	r4, r5
 8003a1a:	78e0      	ldrb	r0, [r4, #3]
 8003a1c:	78a2      	ldrb	r2, [r4, #2]
 8003a1e:	7863      	ldrb	r3, [r4, #1]
 8003a20:	282e      	cmp	r0, #46	; 0x2e
 8003a22:	f1a2 0230 	sub.w	r2, r2, #48	; 0x30
 8003a26:	d107      	bne.n	8003a38 <Task_Read_Nemeus+0x2fc>
 8003a28:	f1c3 0330 	rsb	r3, r3, #48	; 0x30
 8003a2c:	210a      	movs	r1, #10
 8003a2e:	fb01 2303 	mla	r3, r1, r3, r2
 8003a32:	f8c6 313c 	str.w	r3, [r6, #316]	; 0x13c
 8003a36:	e68d      	b.n	8003754 <Task_Read_Nemeus+0x18>
 8003a38:	210a      	movs	r1, #10
 8003a3a:	434a      	muls	r2, r1
 8003a3c:	3b30      	subs	r3, #48	; 0x30
 8003a3e:	2164      	movs	r1, #100	; 0x64
 8003a40:	fb01 2303 	mla	r3, r1, r3, r2
 8003a44:	f1c3 0330 	rsb	r3, r3, #48	; 0x30
 8003a48:	1a1b      	subs	r3, r3, r0
 8003a4a:	e7f2      	b.n	8003a32 <Task_Read_Nemeus+0x2f6>
 8003a4c:	20001714 	.word	0x20001714
 8003a50:	200009d0 	.word	0x200009d0
 8003a54:	20001a3c 	.word	0x20001a3c
 8003a58:	200009d4 	.word	0x200009d4
 8003a5c:	200009d5 	.word	0x200009d5
 8003a60:	20001972 	.word	0x20001972
 8003a64:	20000fd8 	.word	0x20000fd8

08003a68 <Battery_Charger_Management>:
 8003a68:	b5f8      	push	{r3, r4, r5, r6, r7, lr}
 8003a6a:	4e73      	ldr	r6, [pc, #460]	; (8003c38 <Battery_Charger_Management+0x1d0>)
 8003a6c:	4c73      	ldr	r4, [pc, #460]	; (8003c3c <Battery_Charger_Management+0x1d4>)
 8003a6e:	7873      	ldrb	r3, [r6, #1]
 8003a70:	2b01      	cmp	r3, #1
 8003a72:	d13d      	bne.n	8003af0 <Battery_Charger_Management+0x88>
 8003a74:	2300      	movs	r3, #0
 8003a76:	4620      	mov	r0, r4
 8003a78:	7073      	strb	r3, [r6, #1]
 8003a7a:	f7fe ffaa 	bl	80029d2 <TaskCharger>
 8003a7e:	f8d4 50ac 	ldr.w	r5, [r4, #172]	; 0xac
 8003a82:	b9ad      	cbnz	r5, 8003ab0 <Battery_Charger_Management+0x48>
 8003a84:	4a6e      	ldr	r2, [pc, #440]	; (8003c40 <Battery_Charger_Management+0x1d8>)
 8003a86:	7813      	ldrb	r3, [r2, #0]
 8003a88:	2b01      	cmp	r3, #1
 8003a8a:	d131      	bne.n	8003af0 <Battery_Charger_Management+0x88>
 8003a8c:	2032      	movs	r0, #50	; 0x32
 8003a8e:	7015      	strb	r5, [r2, #0]
 8003a90:	6523      	str	r3, [r4, #80]	; 0x50
 8003a92:	f7fe f818 	bl	8001ac6 <PowerVib>
 8003a96:	e9c4 550f 	strd	r5, r5, [r4, #60]	; 0x3c
 8003a9a:	4a6a      	ldr	r2, [pc, #424]	; (8003c44 <Battery_Charger_Management+0x1dc>)
 8003a9c:	6025      	str	r5, [r4, #0]
 8003a9e:	230e      	movs	r3, #14
 8003aa0:	3b01      	subs	r3, #1
 8003aa2:	f013 03ff 	ands.w	r3, r3, #255	; 0xff
 8003aa6:	f842 5b04 	str.w	r5, [r2], #4
 8003aaa:	d1f9      	bne.n	8003aa0 <Battery_Charger_Management+0x38>
 8003aac:	f8c4 3090 	str.w	r3, [r4, #144]	; 0x90
 8003ab0:	f8d4 30ac 	ldr.w	r3, [r4, #172]	; 0xac
 8003ab4:	2b01      	cmp	r3, #1
 8003ab6:	d11b      	bne.n	8003af0 <Battery_Charger_Management+0x88>
 8003ab8:	4a61      	ldr	r2, [pc, #388]	; (8003c40 <Battery_Charger_Management+0x1d8>)
 8003aba:	7811      	ldrb	r1, [r2, #0]
 8003abc:	b921      	cbnz	r1, 8003ac8 <Battery_Charger_Management+0x60>
 8003abe:	2032      	movs	r0, #50	; 0x32
 8003ac0:	7013      	strb	r3, [r2, #0]
 8003ac2:	6523      	str	r3, [r4, #80]	; 0x50
 8003ac4:	f7fd ffff 	bl	8001ac6 <PowerVib>
 8003ac8:	2200      	movs	r2, #0
 8003aca:	e9c4 220f 	strd	r2, r2, [r4, #60]	; 0x3c
 8003ace:	495d      	ldr	r1, [pc, #372]	; (8003c44 <Battery_Charger_Management+0x1dc>)
 8003ad0:	6022      	str	r2, [r4, #0]
 8003ad2:	230e      	movs	r3, #14
 8003ad4:	3b01      	subs	r3, #1
 8003ad6:	f013 03ff 	ands.w	r3, r3, #255	; 0xff
 8003ada:	f841 2b04 	str.w	r2, [r1], #4
 8003ade:	d1f9      	bne.n	8003ad4 <Battery_Charger_Management+0x6c>
 8003ae0:	f8c4 3090 	str.w	r3, [r4, #144]	; 0x90
 8003ae4:	4a58      	ldr	r2, [pc, #352]	; (8003c48 <Battery_Charger_Management+0x1e0>)
 8003ae6:	4b59      	ldr	r3, [pc, #356]	; (8003c4c <Battery_Charger_Management+0x1e4>)
 8003ae8:	4954      	ldr	r1, [pc, #336]	; (8003c3c <Battery_Charger_Management+0x1d4>)
 8003aea:	4856      	ldr	r0, [pc, #344]	; (8003c44 <Battery_Charger_Management+0x1dc>)
 8003aec:	f7ff f8e6 	bl	8002cbc <TaskAlertAll>
 8003af0:	78b3      	ldrb	r3, [r6, #2]
 8003af2:	2b01      	cmp	r3, #1
 8003af4:	b2df      	uxtb	r7, r3
 8003af6:	d165      	bne.n	8003bc4 <Battery_Charger_Management+0x15c>
 8003af8:	4850      	ldr	r0, [pc, #320]	; (8003c3c <Battery_Charger_Management+0x1d4>)
 8003afa:	2500      	movs	r5, #0
 8003afc:	70b5      	strb	r5, [r6, #2]
 8003afe:	f7fe ff82 	bl	8002a06 <TaskReadBat>
 8003b02:	f8d4 30a8 	ldr.w	r3, [r4, #168]	; 0xa8
 8003b06:	f1a3 0210 	sub.w	r2, r3, #16
 8003b0a:	2a03      	cmp	r2, #3
 8003b0c:	d865      	bhi.n	8003bda <Battery_Charger_Management+0x172>
 8003b0e:	4b50      	ldr	r3, [pc, #320]	; (8003c50 <Battery_Charger_Management+0x1e8>)
 8003b10:	701f      	strb	r7, [r3, #0]
 8003b12:	4b50      	ldr	r3, [pc, #320]	; (8003c54 <Battery_Charger_Management+0x1ec>)
 8003b14:	701d      	strb	r5, [r3, #0]
 8003b16:	4b50      	ldr	r3, [pc, #320]	; (8003c58 <Battery_Charger_Management+0x1f0>)
 8003b18:	701d      	strb	r5, [r3, #0]
 8003b1a:	4b50      	ldr	r3, [pc, #320]	; (8003c5c <Battery_Charger_Management+0x1f4>)
 8003b1c:	701d      	strb	r5, [r3, #0]
 8003b1e:	f8d4 30a8 	ldr.w	r3, [r4, #168]	; 0xa8
 8003b22:	3b06      	subs	r3, #6
 8003b24:	2b03      	cmp	r3, #3
 8003b26:	d820      	bhi.n	8003b6a <Battery_Charger_Management+0x102>
 8003b28:	4d4a      	ldr	r5, [pc, #296]	; (8003c54 <Battery_Charger_Management+0x1ec>)
 8003b2a:	782e      	ldrb	r6, [r5, #0]
 8003b2c:	2e01      	cmp	r6, #1
 8003b2e:	d113      	bne.n	8003b58 <Battery_Charger_Management+0xf0>
 8003b30:	2064      	movs	r0, #100	; 0x64
 8003b32:	f7fd ffb7 	bl	8001aa4 <PowerBuzVib>
 8003b36:	2200      	movs	r2, #0
 8003b38:	4b40      	ldr	r3, [pc, #256]	; (8003c3c <Battery_Charger_Management+0x1d4>)
 8003b3a:	4611      	mov	r1, r2
 8003b3c:	20fa      	movs	r0, #250	; 0xfa
 8003b3e:	f7fe fc73 	bl	8002428 <LedOn>
 8003b42:	2032      	movs	r0, #50	; 0x32
 8003b44:	f002 f990 	bl	8005e68 <HAL_Delay>
 8003b48:	2064      	movs	r0, #100	; 0x64
 8003b4a:	f7fd ffab 	bl	8001aa4 <PowerBuzVib>
 8003b4e:	6526      	str	r6, [r4, #80]	; 0x50
 8003b50:	f002 f984 	bl	8005e5c <HAL_GetTick>
 8003b54:	4b42      	ldr	r3, [pc, #264]	; (8003c60 <Battery_Charger_Management+0x1f8>)
 8003b56:	6158      	str	r0, [r3, #20]
 8003b58:	4a3d      	ldr	r2, [pc, #244]	; (8003c50 <Battery_Charger_Management+0x1e8>)
 8003b5a:	2300      	movs	r3, #0
 8003b5c:	7013      	strb	r3, [r2, #0]
 8003b5e:	4a3e      	ldr	r2, [pc, #248]	; (8003c58 <Battery_Charger_Management+0x1f0>)
 8003b60:	702b      	strb	r3, [r5, #0]
 8003b62:	2101      	movs	r1, #1
 8003b64:	7011      	strb	r1, [r2, #0]
 8003b66:	4a3d      	ldr	r2, [pc, #244]	; (8003c5c <Battery_Charger_Management+0x1f4>)
 8003b68:	7013      	strb	r3, [r2, #0]
 8003b6a:	f8d4 30a8 	ldr.w	r3, [r4, #168]	; 0xa8
 8003b6e:	3b01      	subs	r3, #1
 8003b70:	2b03      	cmp	r3, #3
 8003b72:	d827      	bhi.n	8003bc4 <Battery_Charger_Management+0x15c>
 8003b74:	4d38      	ldr	r5, [pc, #224]	; (8003c58 <Battery_Charger_Management+0x1f0>)
 8003b76:	782e      	ldrb	r6, [r5, #0]
 8003b78:	2e01      	cmp	r6, #1
 8003b7a:	d113      	bne.n	8003ba4 <Battery_Charger_Management+0x13c>
 8003b7c:	2064      	movs	r0, #100	; 0x64
 8003b7e:	f7fd ff91 	bl	8001aa4 <PowerBuzVib>
 8003b82:	2200      	movs	r2, #0
 8003b84:	4b2d      	ldr	r3, [pc, #180]	; (8003c3c <Battery_Charger_Management+0x1d4>)
 8003b86:	4611      	mov	r1, r2
 8003b88:	20fa      	movs	r0, #250	; 0xfa
 8003b8a:	f7fe fc4d 	bl	8002428 <LedOn>
 8003b8e:	2032      	movs	r0, #50	; 0x32
 8003b90:	f002 f96a 	bl	8005e68 <HAL_Delay>
 8003b94:	2064      	movs	r0, #100	; 0x64
 8003b96:	f7fd ff85 	bl	8001aa4 <PowerBuzVib>
 8003b9a:	6526      	str	r6, [r4, #80]	; 0x50
 8003b9c:	f002 f95e 	bl	8005e5c <HAL_GetTick>
 8003ba0:	4b2f      	ldr	r3, [pc, #188]	; (8003c60 <Battery_Charger_Management+0x1f8>)
 8003ba2:	6158      	str	r0, [r3, #20]
 8003ba4:	4a2a      	ldr	r2, [pc, #168]	; (8003c50 <Battery_Charger_Management+0x1e8>)
 8003ba6:	2300      	movs	r3, #0
 8003ba8:	7013      	strb	r3, [r2, #0]
 8003baa:	4a2a      	ldr	r2, [pc, #168]	; (8003c54 <Battery_Charger_Management+0x1ec>)
 8003bac:	702b      	strb	r3, [r5, #0]
 8003bae:	7013      	strb	r3, [r2, #0]
 8003bb0:	4a2a      	ldr	r2, [pc, #168]	; (8003c5c <Battery_Charger_Management+0x1f4>)
 8003bb2:	2101      	movs	r1, #1
 8003bb4:	7011      	strb	r1, [r2, #0]
 8003bb6:	f8d4 10ac 	ldr.w	r1, [r4, #172]	; 0xac
 8003bba:	4a2a      	ldr	r2, [pc, #168]	; (8003c64 <Battery_Charger_Management+0x1fc>)
 8003bbc:	b909      	cbnz	r1, 8003bc2 <Battery_Charger_Management+0x15a>
 8003bbe:	6813      	ldr	r3, [r2, #0]
 8003bc0:	3301      	adds	r3, #1
 8003bc2:	6013      	str	r3, [r2, #0]
 8003bc4:	f8d4 30a8 	ldr.w	r3, [r4, #168]	; 0xa8
 8003bc8:	2bff      	cmp	r3, #255	; 0xff
 8003bca:	d105      	bne.n	8003bd8 <Battery_Charger_Management+0x170>
 8003bcc:	f8d4 30ac 	ldr.w	r3, [r4, #172]	; 0xac
 8003bd0:	4a24      	ldr	r2, [pc, #144]	; (8003c64 <Battery_Charger_Management+0x1fc>)
 8003bd2:	b33b      	cbz	r3, 8003c24 <Battery_Charger_Management+0x1bc>
 8003bd4:	2300      	movs	r3, #0
 8003bd6:	6013      	str	r3, [r2, #0]
 8003bd8:	bdf8      	pop	{r3, r4, r5, r6, r7, pc}
 8003bda:	3b0b      	subs	r3, #11
 8003bdc:	2b03      	cmp	r3, #3
 8003bde:	d89e      	bhi.n	8003b1e <Battery_Charger_Management+0xb6>
 8003be0:	4e1b      	ldr	r6, [pc, #108]	; (8003c50 <Battery_Charger_Management+0x1e8>)
 8003be2:	7837      	ldrb	r7, [r6, #0]
 8003be4:	2f01      	cmp	r7, #1
 8003be6:	d113      	bne.n	8003c10 <Battery_Charger_Management+0x1a8>
 8003be8:	2064      	movs	r0, #100	; 0x64
 8003bea:	f7fd ff5b 	bl	8001aa4 <PowerBuzVib>
 8003bee:	4b13      	ldr	r3, [pc, #76]	; (8003c3c <Battery_Charger_Management+0x1d4>)
 8003bf0:	462a      	mov	r2, r5
 8003bf2:	4629      	mov	r1, r5
 8003bf4:	20fa      	movs	r0, #250	; 0xfa
 8003bf6:	f7fe fc17 	bl	8002428 <LedOn>
 8003bfa:	2032      	movs	r0, #50	; 0x32
 8003bfc:	f002 f934 	bl	8005e68 <HAL_Delay>
 8003c00:	2064      	movs	r0, #100	; 0x64
 8003c02:	f7fd ff4f 	bl	8001aa4 <PowerBuzVib>
 8003c06:	6527      	str	r7, [r4, #80]	; 0x50
 8003c08:	f002 f928 	bl	8005e5c <HAL_GetTick>
 8003c0c:	4b14      	ldr	r3, [pc, #80]	; (8003c60 <Battery_Charger_Management+0x1f8>)
 8003c0e:	6158      	str	r0, [r3, #20]
 8003c10:	4a10      	ldr	r2, [pc, #64]	; (8003c54 <Battery_Charger_Management+0x1ec>)
 8003c12:	2101      	movs	r1, #1
 8003c14:	7011      	strb	r1, [r2, #0]
 8003c16:	4a10      	ldr	r2, [pc, #64]	; (8003c58 <Battery_Charger_Management+0x1f0>)
 8003c18:	2300      	movs	r3, #0
 8003c1a:	7013      	strb	r3, [r2, #0]
 8003c1c:	4a0f      	ldr	r2, [pc, #60]	; (8003c5c <Battery_Charger_Management+0x1f4>)
 8003c1e:	7033      	strb	r3, [r6, #0]
 8003c20:	7013      	strb	r3, [r2, #0]
 8003c22:	e77c      	b.n	8003b1e <Battery_Charger_Management+0xb6>
 8003c24:	6813      	ldr	r3, [r2, #0]
 8003c26:	3301      	adds	r3, #1
 8003c28:	6013      	str	r3, [r2, #0]
 8003c2a:	4a0f      	ldr	r2, [pc, #60]	; (8003c68 <Battery_Charger_Management+0x200>)
 8003c2c:	4293      	cmp	r3, r2
 8003c2e:	bf84      	itt	hi
 8003c30:	2301      	movhi	r3, #1
 8003c32:	6523      	strhi	r3, [r4, #80]	; 0x50
 8003c34:	e7d0      	b.n	8003bd8 <Battery_Charger_Management+0x170>
 8003c36:	bf00      	nop
 8003c38:	20001e04 	.word	0x20001e04
 8003c3c:	20001714 	.word	0x20001714
 8003c40:	200009d9 	.word	0x200009d9
 8003c44:	200022b8 	.word	0x200022b8
 8003c48:	20001114 	.word	0x20001114
 8003c4c:	20001da8 	.word	0x20001da8
 8003c50:	200009dd 	.word	0x200009dd
 8003c54:	200009dc 	.word	0x200009dc
 8003c58:	200009db 	.word	0x200009db
 8003c5c:	200009de 	.word	0x200009de
 8003c60:	20001a3c 	.word	0x20001a3c
 8003c64:	200009ec 	.word	0x200009ec
 8003c68:	000f4236 	.word	0x000f4236

08003c6c <GPS_Management>:
 8003c6c:	b5f8      	push	{r3, r4, r5, r6, r7, lr}
 8003c6e:	4c28      	ldr	r4, [pc, #160]	; (8003d10 <GPS_Management+0xa4>)
 8003c70:	f8d4 30f0 	ldr.w	r3, [r4, #240]	; 0xf0
 8003c74:	2b01      	cmp	r3, #1
 8003c76:	d11e      	bne.n	8003cb6 <GPS_Management+0x4a>
 8003c78:	6063      	str	r3, [r4, #4]
 8003c7a:	2300      	movs	r3, #0
 8003c7c:	f8c4 30f0 	str.w	r3, [r4, #240]	; 0xf0
 8003c80:	f8d4 708c 	ldr.w	r7, [r4, #140]	; 0x8c
 8003c84:	b35f      	cbz	r7, 8003cde <GPS_Management+0x72>
 8003c86:	f8d4 308c 	ldr.w	r3, [r4, #140]	; 0x8c
 8003c8a:	2b01      	cmp	r3, #1
 8003c8c:	d126      	bne.n	8003cdc <GPS_Management+0x70>
 8003c8e:	4b21      	ldr	r3, [pc, #132]	; (8003d14 <GPS_Management+0xa8>)
 8003c90:	4921      	ldr	r1, [pc, #132]	; (8003d18 <GPS_Management+0xac>)
 8003c92:	6818      	ldr	r0, [r3, #0]
 8003c94:	684b      	ldr	r3, [r1, #4]
 8003c96:	f8d4 5104 	ldr.w	r5, [r4, #260]	; 0x104
 8003c9a:	1ac2      	subs	r2, r0, r3
 8003c9c:	f64e 2360 	movw	r3, #60000	; 0xea60
 8003ca0:	436b      	muls	r3, r5
 8003ca2:	429a      	cmp	r2, r3
 8003ca4:	d91a      	bls.n	8003cdc <GPS_Management+0x70>
 8003ca6:	2300      	movs	r3, #0
 8003ca8:	6063      	str	r3, [r4, #4]
 8003caa:	f8c4 308c 	str.w	r3, [r4, #140]	; 0x8c
 8003cae:	6008      	str	r0, [r1, #0]
 8003cb0:	f7fe f962 	bl	8001f78 <GpsStop>
 8003cb4:	e002      	b.n	8003cbc <GPS_Management+0x50>
 8003cb6:	6863      	ldr	r3, [r4, #4]
 8003cb8:	2b01      	cmp	r3, #1
 8003cba:	d0e1      	beq.n	8003c80 <GPS_Management+0x14>
 8003cbc:	6863      	ldr	r3, [r4, #4]
 8003cbe:	b96b      	cbnz	r3, 8003cdc <GPS_Management+0x70>
 8003cc0:	f8d4 308c 	ldr.w	r3, [r4, #140]	; 0x8c
 8003cc4:	b953      	cbnz	r3, 8003cdc <GPS_Management+0x70>
 8003cc6:	4b13      	ldr	r3, [pc, #76]	; (8003d14 <GPS_Management+0xa8>)
 8003cc8:	4a13      	ldr	r2, [pc, #76]	; (8003d18 <GPS_Management+0xac>)
 8003cca:	681b      	ldr	r3, [r3, #0]
 8003ccc:	6812      	ldr	r2, [r2, #0]
 8003cce:	1a9b      	subs	r3, r3, r2
 8003cd0:	f64e 2260 	movw	r2, #60000	; 0xea60
 8003cd4:	4293      	cmp	r3, r2
 8003cd6:	bf84      	itt	hi
 8003cd8:	2301      	movhi	r3, #1
 8003cda:	6063      	strhi	r3, [r4, #4]
 8003cdc:	bdf8      	pop	{r3, r4, r5, r6, r7, pc}
 8003cde:	4e0d      	ldr	r6, [pc, #52]	; (8003d14 <GPS_Management+0xa8>)
 8003ce0:	4d0d      	ldr	r5, [pc, #52]	; (8003d18 <GPS_Management+0xac>)
 8003ce2:	2301      	movs	r3, #1
 8003ce4:	f8c4 308c 	str.w	r3, [r4, #140]	; 0x8c
 8003ce8:	6833      	ldr	r3, [r6, #0]
 8003cea:	606b      	str	r3, [r5, #4]
 8003cec:	f7fe f98a 	bl	8002004 <GpsStart>
 8003cf0:	68aa      	ldr	r2, [r5, #8]
 8003cf2:	6833      	ldr	r3, [r6, #0]
 8003cf4:	f8c4 70e4 	str.w	r7, [r4, #228]	; 0xe4
 8003cf8:	1a9b      	subs	r3, r3, r2
 8003cfa:	4a08      	ldr	r2, [pc, #32]	; (8003d1c <GPS_Management+0xb0>)
 8003cfc:	4293      	cmp	r3, r2
 8003cfe:	bf84      	itt	hi
 8003d00:	230a      	movhi	r3, #10
 8003d02:	f8c4 3104 	strhi.w	r3, [r4, #260]	; 0x104
 8003d06:	6863      	ldr	r3, [r4, #4]
 8003d08:	2b01      	cmp	r3, #1
 8003d0a:	d0bc      	beq.n	8003c86 <GPS_Management+0x1a>
 8003d0c:	e7d6      	b.n	8003cbc <GPS_Management+0x50>
 8003d0e:	bf00      	nop
 8003d10:	20001714 	.word	0x20001714
 8003d14:	200009f0 	.word	0x200009f0
 8003d18:	20001a3c 	.word	0x20001a3c
 8003d1c:	000927c0 	.word	0x000927c0

08003d20 <u8g2_DrawHXBM>:
 8003d20:	e92d 4ff7 	stmdb	sp!, {r0, r1, r2, r4, r5, r6, r7, r8, r9, sl, fp, lr}
 8003d24:	440b      	add	r3, r1
 8003d26:	b2df      	uxtb	r7, r3
 8003d28:	1c53      	adds	r3, r2, #1
 8003d2a:	b2db      	uxtb	r3, r3
 8003d2c:	f890 9086 	ldrb.w	r9, [r0, #134]	; 0x86
 8003d30:	9300      	str	r3, [sp, #0]
 8003d32:	463b      	mov	r3, r7
 8003d34:	4605      	mov	r5, r0
 8003d36:	460c      	mov	r4, r1
 8003d38:	4690      	mov	r8, r2
 8003d3a:	f000 fbef 	bl	800451c <u8g2_IsIntersection>
 8003d3e:	b150      	cbz	r0, 8003d56 <u8g2_DrawHXBM+0x36>
 8003d40:	fab9 fa89 	clz	sl, r9
 8003d44:	ea4f 1a5a 	mov.w	sl, sl, lsr #5
 8003d48:	2601      	movs	r6, #1
 8003d4a:	f04f 0b00 	mov.w	fp, #0
 8003d4e:	42a7      	cmp	r7, r4
 8003d50:	d104      	bne.n	8003d5c <u8g2_DrawHXBM+0x3c>
 8003d52:	f885 9086 	strb.w	r9, [r5, #134]	; 0x86
 8003d56:	b003      	add	sp, #12
 8003d58:	e8bd 8ff0 	ldmia.w	sp!, {r4, r5, r6, r7, r8, r9, sl, fp, pc}
 8003d5c:	9b0c      	ldr	r3, [sp, #48]	; 0x30
 8003d5e:	781b      	ldrb	r3, [r3, #0]
 8003d60:	421e      	tst	r6, r3
 8003d62:	d017      	beq.n	8003d94 <u8g2_DrawHXBM+0x74>
 8003d64:	f885 9086 	strb.w	r9, [r5, #134]	; 0x86
 8003d68:	f8cd b000 	str.w	fp, [sp]
 8003d6c:	2301      	movs	r3, #1
 8003d6e:	4642      	mov	r2, r8
 8003d70:	4621      	mov	r1, r4
 8003d72:	4628      	mov	r0, r5
 8003d74:	f000 fb5b 	bl	800442e <u8g2_DrawHVLine>
 8003d78:	0076      	lsls	r6, r6, #1
 8003d7a:	f016 06ff 	ands.w	r6, r6, #255	; 0xff
 8003d7e:	bf08      	it	eq
 8003d80:	9b0c      	ldreq	r3, [sp, #48]	; 0x30
 8003d82:	f104 0401 	add.w	r4, r4, #1
 8003d86:	bf08      	it	eq
 8003d88:	3301      	addeq	r3, #1
 8003d8a:	b2e4      	uxtb	r4, r4
 8003d8c:	bf04      	itt	eq
 8003d8e:	930c      	streq	r3, [sp, #48]	; 0x30
 8003d90:	2601      	moveq	r6, #1
 8003d92:	e7dc      	b.n	8003d4e <u8g2_DrawHXBM+0x2e>
 8003d94:	f895 3085 	ldrb.w	r3, [r5, #133]	; 0x85
 8003d98:	2b00      	cmp	r3, #0
 8003d9a:	d1ed      	bne.n	8003d78 <u8g2_DrawHXBM+0x58>
 8003d9c:	f885 a086 	strb.w	sl, [r5, #134]	; 0x86
 8003da0:	9300      	str	r3, [sp, #0]
 8003da2:	e7e3      	b.n	8003d6c <u8g2_DrawHXBM+0x4c>

08003da4 <u8g2_DrawXBM>:
 8003da4:	e92d 47f3 	stmdb	sp!, {r0, r1, r4, r5, r6, r7, r8, r9, sl, lr}
 8003da8:	f89d 5028 	ldrb.w	r5, [sp, #40]	; 0x28
 8003dac:	f8dd a02c 	ldr.w	sl, [sp, #44]	; 0x2c
 8003db0:	4415      	add	r5, r2
 8003db2:	461e      	mov	r6, r3
 8003db4:	b2ed      	uxtb	r5, r5
 8003db6:	440b      	add	r3, r1
 8003db8:	9500      	str	r5, [sp, #0]
 8003dba:	b2db      	uxtb	r3, r3
 8003dbc:	4681      	mov	r9, r0
 8003dbe:	460f      	mov	r7, r1
 8003dc0:	4614      	mov	r4, r2
 8003dc2:	f000 fbab 	bl	800451c <u8g2_IsIntersection>
 8003dc6:	b128      	cbz	r0, 8003dd4 <u8g2_DrawXBM+0x30>
 8003dc8:	f106 0807 	add.w	r8, r6, #7
 8003dcc:	f3c8 08c4 	ubfx	r8, r8, #3, #5
 8003dd0:	42a5      	cmp	r5, r4
 8003dd2:	d102      	bne.n	8003dda <u8g2_DrawXBM+0x36>
 8003dd4:	b002      	add	sp, #8
 8003dd6:	e8bd 87f0 	ldmia.w	sp!, {r4, r5, r6, r7, r8, r9, sl, pc}
 8003dda:	f8cd a000 	str.w	sl, [sp]
 8003dde:	4622      	mov	r2, r4
 8003de0:	4633      	mov	r3, r6
 8003de2:	4639      	mov	r1, r7
 8003de4:	4648      	mov	r0, r9
 8003de6:	3401      	adds	r4, #1
 8003de8:	f7ff ff9a 	bl	8003d20 <u8g2_DrawHXBM>
 8003dec:	44c2      	add	sl, r8
 8003dee:	b2e4      	uxtb	r4, r4
 8003df0:	e7ee      	b.n	8003dd0 <u8g2_DrawXBM+0x2c>

08003df2 <u8g2_send_buffer>:
 8003df2:	e92d 43f7 	stmdb	sp!, {r0, r1, r2, r4, r5, r6, r7, r8, r9, lr}
 8003df6:	6803      	ldr	r3, [r0, #0]
 8003df8:	f890 903c 	ldrb.w	r9, [r0, #60]	; 0x3c
 8003dfc:	f890 703d 	ldrb.w	r7, [r0, #61]	; 0x3d
 8003e00:	f893 8011 	ldrb.w	r8, [r3, #17]
 8003e04:	4604      	mov	r4, r0
 8003e06:	2600      	movs	r6, #0
 8003e08:	6823      	ldr	r3, [r4, #0]
 8003e0a:	6ba0      	ldr	r0, [r4, #56]	; 0x38
 8003e0c:	7c1b      	ldrb	r3, [r3, #16]
 8003e0e:	fb16 f103 	smulbb	r1, r6, r3
 8003e12:	b289      	uxth	r1, r1
 8003e14:	00c9      	lsls	r1, r1, #3
 8003e16:	b2f5      	uxtb	r5, r6
 8003e18:	b289      	uxth	r1, r1
 8003e1a:	4401      	add	r1, r0
 8003e1c:	fa57 f286 	uxtab	r2, r7, r6
 8003e20:	3501      	adds	r5, #1
 8003e22:	9100      	str	r1, [sp, #0]
 8003e24:	b2d2      	uxtb	r2, r2
 8003e26:	2100      	movs	r1, #0
 8003e28:	4620      	mov	r0, r4
 8003e2a:	b2ed      	uxtb	r5, r5
 8003e2c:	f000 fe2f 	bl	8004a8e <u8x8_DrawTile>
 8003e30:	45a9      	cmp	r9, r5
 8003e32:	d904      	bls.n	8003e3e <u8g2_send_buffer+0x4c>
 8003e34:	3601      	adds	r6, #1
 8003e36:	19bb      	adds	r3, r7, r6
 8003e38:	b2db      	uxtb	r3, r3
 8003e3a:	4598      	cmp	r8, r3
 8003e3c:	d8e4      	bhi.n	8003e08 <u8g2_send_buffer+0x16>
 8003e3e:	b003      	add	sp, #12
 8003e40:	e8bd 83f0 	ldmia.w	sp!, {r4, r5, r6, r7, r8, r9, pc}

08003e44 <u8g2_ClearBuffer>:
 8003e44:	6803      	ldr	r3, [r0, #0]
 8003e46:	7c1a      	ldrb	r2, [r3, #16]
 8003e48:	f890 303c 	ldrb.w	r3, [r0, #60]	; 0x3c
 8003e4c:	6b80      	ldr	r0, [r0, #56]	; 0x38
 8003e4e:	fb12 f203 	smulbb	r2, r2, r3
 8003e52:	00d2      	lsls	r2, r2, #3
 8003e54:	2100      	movs	r1, #0
 8003e56:	f007 bb5f 	b.w	800b518 <memset>

08003e5a <u8g2_SetBufferCurrTileRow>:
 8003e5a:	b510      	push	{r4, lr}
 8003e5c:	6b43      	ldr	r3, [r0, #52]	; 0x34
 8003e5e:	f880 103d 	strb.w	r1, [r0, #61]	; 0x3d
 8003e62:	4604      	mov	r4, r0
 8003e64:	681b      	ldr	r3, [r3, #0]
 8003e66:	4798      	blx	r3
 8003e68:	6b63      	ldr	r3, [r4, #52]	; 0x34
 8003e6a:	4620      	mov	r0, r4
 8003e6c:	685b      	ldr	r3, [r3, #4]
 8003e6e:	e8bd 4010 	ldmia.w	sp!, {r4, lr}
 8003e72:	4718      	bx	r3

08003e74 <u8g2_FirstPage>:
 8003e74:	b510      	push	{r4, lr}
 8003e76:	f890 3087 	ldrb.w	r3, [r0, #135]	; 0x87
 8003e7a:	4604      	mov	r4, r0
 8003e7c:	b10b      	cbz	r3, 8003e82 <u8g2_FirstPage+0xe>
 8003e7e:	f7ff ffe1 	bl	8003e44 <u8g2_ClearBuffer>
 8003e82:	4620      	mov	r0, r4
 8003e84:	2100      	movs	r1, #0
 8003e86:	e8bd 4010 	ldmia.w	sp!, {r4, lr}
 8003e8a:	f7ff bfe6 	b.w	8003e5a <u8g2_SetBufferCurrTileRow>

08003e8e <u8g2_NextPage>:
 8003e8e:	b538      	push	{r3, r4, r5, lr}
 8003e90:	4604      	mov	r4, r0
 8003e92:	f7ff ffae 	bl	8003df2 <u8g2_send_buffer>
 8003e96:	f894 503d 	ldrb.w	r5, [r4, #61]	; 0x3d
 8003e9a:	f894 103c 	ldrb.w	r1, [r4, #60]	; 0x3c
 8003e9e:	6823      	ldr	r3, [r4, #0]
 8003ea0:	440d      	add	r5, r1
 8003ea2:	7c5b      	ldrb	r3, [r3, #17]
 8003ea4:	b2ed      	uxtb	r5, r5
 8003ea6:	42ab      	cmp	r3, r5
 8003ea8:	d804      	bhi.n	8003eb4 <u8g2_NextPage+0x26>
 8003eaa:	4620      	mov	r0, r4
 8003eac:	f000 fe1a 	bl	8004ae4 <u8x8_RefreshDisplay>
 8003eb0:	2000      	movs	r0, #0
 8003eb2:	bd38      	pop	{r3, r4, r5, pc}
 8003eb4:	f894 3087 	ldrb.w	r3, [r4, #135]	; 0x87
 8003eb8:	b113      	cbz	r3, 8003ec0 <u8g2_NextPage+0x32>
 8003eba:	4620      	mov	r0, r4
 8003ebc:	f7ff ffc2 	bl	8003e44 <u8g2_ClearBuffer>
 8003ec0:	4620      	mov	r0, r4
 8003ec2:	4629      	mov	r1, r5
 8003ec4:	f7ff ffc9 	bl	8003e5a <u8g2_SetBufferCurrTileRow>
 8003ec8:	2001      	movs	r0, #1
 8003eca:	e7f2      	b.n	8003eb2 <u8g2_NextPage+0x24>

08003ecc <u8g2_ClearDisplay>:
 8003ecc:	b510      	push	{r4, lr}
 8003ece:	4604      	mov	r4, r0
 8003ed0:	f7ff ffd0 	bl	8003e74 <u8g2_FirstPage>
 8003ed4:	4620      	mov	r0, r4
 8003ed6:	f7ff ffda 	bl	8003e8e <u8g2_NextPage>
 8003eda:	4601      	mov	r1, r0
 8003edc:	2800      	cmp	r0, #0
 8003ede:	d1f9      	bne.n	8003ed4 <u8g2_ClearDisplay+0x8>
 8003ee0:	4620      	mov	r0, r4
 8003ee2:	e8bd 4010 	ldmia.w	sp!, {r4, lr}
 8003ee6:	f7ff bfb8 	b.w	8003e5a <u8g2_SetBufferCurrTileRow>
	...

08003eec <u8g2_m_16_4_1>:
 8003eec:	2301      	movs	r3, #1
 8003eee:	7003      	strb	r3, [r0, #0]
 8003ef0:	4800      	ldr	r0, [pc, #0]	; (8003ef4 <u8g2_m_16_4_1+0x8>)
 8003ef2:	4770      	bx	lr
 8003ef4:	2000094d 	.word	0x2000094d

08003ef8 <u8g2_Setup_ssd1306_i2c_128x32_univision_1>:
 8003ef8:	b530      	push	{r4, r5, lr}
 8003efa:	b085      	sub	sp, #20
 8003efc:	460d      	mov	r5, r1
 8003efe:	9300      	str	r3, [sp, #0]
 8003f00:	4909      	ldr	r1, [pc, #36]	; (8003f28 <u8g2_Setup_ssd1306_i2c_128x32_univision_1+0x30>)
 8003f02:	4613      	mov	r3, r2
 8003f04:	4a09      	ldr	r2, [pc, #36]	; (8003f2c <u8g2_Setup_ssd1306_i2c_128x32_univision_1+0x34>)
 8003f06:	4604      	mov	r4, r0
 8003f08:	f000 fe12 	bl	8004b30 <u8x8_Setup>
 8003f0c:	f10d 000f 	add.w	r0, sp, #15
 8003f10:	f7ff ffec 	bl	8003eec <u8g2_m_16_4_1>
 8003f14:	4b06      	ldr	r3, [pc, #24]	; (8003f30 <u8g2_Setup_ssd1306_i2c_128x32_univision_1+0x38>)
 8003f16:	f89d 200f 	ldrb.w	r2, [sp, #15]
 8003f1a:	9500      	str	r5, [sp, #0]
 8003f1c:	4601      	mov	r1, r0
 8003f1e:	4620      	mov	r0, r4
 8003f20:	f000 fbe3 	bl	80046ea <u8g2_SetupBuffer>
 8003f24:	b005      	add	sp, #20
 8003f26:	bd30      	pop	{r4, r5, pc}
 8003f28:	08004a09 	.word	0x08004a09
 8003f2c:	08004875 	.word	0x08004875
 8003f30:	0800454d 	.word	0x0800454d

08003f34 <u8g2_font_get_word>:
 8003f34:	1842      	adds	r2, r0, r1
 8003f36:	5c43      	ldrb	r3, [r0, r1]
 8003f38:	7850      	ldrb	r0, [r2, #1]
 8003f3a:	eb00 2003 	add.w	r0, r0, r3, lsl #8
 8003f3e:	b280      	uxth	r0, r0
 8003f40:	4770      	bx	lr

08003f42 <u8g2_add_vector_y>:
 8003f42:	2b01      	cmp	r3, #1
 8003f44:	d005      	beq.n	8003f52 <u8g2_add_vector_y+0x10>
 8003f46:	2b02      	cmp	r3, #2
 8003f48:	d005      	beq.n	8003f56 <u8g2_add_vector_y+0x14>
 8003f4a:	b933      	cbnz	r3, 8003f5a <u8g2_add_vector_y+0x18>
 8003f4c:	4410      	add	r0, r2
 8003f4e:	b2c0      	uxtb	r0, r0
 8003f50:	4770      	bx	lr
 8003f52:	4408      	add	r0, r1
 8003f54:	e7fb      	b.n	8003f4e <u8g2_add_vector_y+0xc>
 8003f56:	1a80      	subs	r0, r0, r2
 8003f58:	e7f9      	b.n	8003f4e <u8g2_add_vector_y+0xc>
 8003f5a:	1a40      	subs	r0, r0, r1
 8003f5c:	e7f7      	b.n	8003f4e <u8g2_add_vector_y+0xc>

08003f5e <u8g2_add_vector_x>:
 8003f5e:	2b01      	cmp	r3, #1
 8003f60:	d005      	beq.n	8003f6e <u8g2_add_vector_x+0x10>
 8003f62:	2b02      	cmp	r3, #2
 8003f64:	d005      	beq.n	8003f72 <u8g2_add_vector_x+0x14>
 8003f66:	b933      	cbnz	r3, 8003f76 <u8g2_add_vector_x+0x18>
 8003f68:	4408      	add	r0, r1
 8003f6a:	b2c0      	uxtb	r0, r0
 8003f6c:	4770      	bx	lr
 8003f6e:	1a80      	subs	r0, r0, r2
 8003f70:	e7fb      	b.n	8003f6a <u8g2_add_vector_x+0xc>
 8003f72:	1a40      	subs	r0, r0, r1
 8003f74:	e7f9      	b.n	8003f6a <u8g2_add_vector_x+0xc>
 8003f76:	4410      	add	r0, r2
 8003f78:	e7f7      	b.n	8003f6a <u8g2_add_vector_x+0xc>

08003f7a <u8g2_font_calc_vref_font>:
 8003f7a:	2000      	movs	r0, #0
 8003f7c:	4770      	bx	lr

08003f7e <u8g2_read_font_info>:
 8003f7e:	b538      	push	{r3, r4, r5, lr}
 8003f80:	780b      	ldrb	r3, [r1, #0]
 8003f82:	7003      	strb	r3, [r0, #0]
 8003f84:	784b      	ldrb	r3, [r1, #1]
 8003f86:	7043      	strb	r3, [r0, #1]
 8003f88:	788b      	ldrb	r3, [r1, #2]
 8003f8a:	7083      	strb	r3, [r0, #2]
 8003f8c:	78cb      	ldrb	r3, [r1, #3]
 8003f8e:	70c3      	strb	r3, [r0, #3]
 8003f90:	790b      	ldrb	r3, [r1, #4]
 8003f92:	7103      	strb	r3, [r0, #4]
 8003f94:	794b      	ldrb	r3, [r1, #5]
 8003f96:	7143      	strb	r3, [r0, #5]
 8003f98:	798b      	ldrb	r3, [r1, #6]
 8003f9a:	7183      	strb	r3, [r0, #6]
 8003f9c:	79cb      	ldrb	r3, [r1, #7]
 8003f9e:	71c3      	strb	r3, [r0, #7]
 8003fa0:	7a0b      	ldrb	r3, [r1, #8]
 8003fa2:	7203      	strb	r3, [r0, #8]
 8003fa4:	7a4b      	ldrb	r3, [r1, #9]
 8003fa6:	7243      	strb	r3, [r0, #9]
 8003fa8:	7a8b      	ldrb	r3, [r1, #10]
 8003faa:	7283      	strb	r3, [r0, #10]
 8003fac:	7acb      	ldrb	r3, [r1, #11]
 8003fae:	72c3      	strb	r3, [r0, #11]
 8003fb0:	7b0b      	ldrb	r3, [r1, #12]
 8003fb2:	7303      	strb	r3, [r0, #12]
 8003fb4:	7b4b      	ldrb	r3, [r1, #13]
 8003fb6:	7343      	strb	r3, [r0, #13]
 8003fb8:	7b8b      	ldrb	r3, [r1, #14]
 8003fba:	7383      	strb	r3, [r0, #14]
 8003fbc:	7bcb      	ldrb	r3, [r1, #15]
 8003fbe:	73c3      	strb	r3, [r0, #15]
 8003fc0:	460d      	mov	r5, r1
 8003fc2:	7c0b      	ldrb	r3, [r1, #16]
 8003fc4:	7403      	strb	r3, [r0, #16]
 8003fc6:	4604      	mov	r4, r0
 8003fc8:	2111      	movs	r1, #17
 8003fca:	4628      	mov	r0, r5
 8003fcc:	f7ff ffb2 	bl	8003f34 <u8g2_font_get_word>
 8003fd0:	2113      	movs	r1, #19
 8003fd2:	8260      	strh	r0, [r4, #18]
 8003fd4:	4628      	mov	r0, r5
 8003fd6:	f7ff ffad 	bl	8003f34 <u8g2_font_get_word>
 8003fda:	2115      	movs	r1, #21
 8003fdc:	82a0      	strh	r0, [r4, #20]
 8003fde:	4628      	mov	r0, r5
 8003fe0:	f7ff ffa8 	bl	8003f34 <u8g2_font_get_word>
 8003fe4:	82e0      	strh	r0, [r4, #22]
 8003fe6:	bd38      	pop	{r3, r4, r5, pc}

08003fe8 <u8g2_font_decode_get_unsigned_bits>:
 8003fe8:	b570      	push	{r4, r5, r6, lr}
 8003fea:	7a84      	ldrb	r4, [r0, #10]
 8003fec:	6806      	ldr	r6, [r0, #0]
 8003fee:	1862      	adds	r2, r4, r1
 8003ff0:	7833      	ldrb	r3, [r6, #0]
 8003ff2:	b2d2      	uxtb	r2, r2
 8003ff4:	2a07      	cmp	r2, #7
 8003ff6:	fa43 f504 	asr.w	r5, r3, r4
 8003ffa:	d807      	bhi.n	800400c <u8g2_font_decode_get_unsigned_bits+0x24>
 8003ffc:	b2eb      	uxtb	r3, r5
 8003ffe:	7282      	strb	r2, [r0, #10]
 8004000:	f04f 30ff 	mov.w	r0, #4294967295
 8004004:	4088      	lsls	r0, r1
 8004006:	ea23 0000 	bic.w	r0, r3, r0
 800400a:	bd70      	pop	{r4, r5, r6, pc}
 800400c:	1c73      	adds	r3, r6, #1
 800400e:	6003      	str	r3, [r0, #0]
 8004010:	7873      	ldrb	r3, [r6, #1]
 8004012:	f1c4 0408 	rsb	r4, r4, #8
 8004016:	b2e4      	uxtb	r4, r4
 8004018:	40a3      	lsls	r3, r4
 800401a:	432b      	orrs	r3, r5
 800401c:	3a08      	subs	r2, #8
 800401e:	b2db      	uxtb	r3, r3
 8004020:	b2d2      	uxtb	r2, r2
 8004022:	e7ec      	b.n	8003ffe <u8g2_font_decode_get_unsigned_bits+0x16>

08004024 <u8g2_font_setup_decode>:
 8004024:	b538      	push	{r3, r4, r5, lr}
 8004026:	2300      	movs	r3, #0
 8004028:	f100 0558 	add.w	r5, r0, #88	; 0x58
 800402c:	4604      	mov	r4, r0
 800402e:	f880 3062 	strb.w	r3, [r0, #98]	; 0x62
 8004032:	6581      	str	r1, [r0, #88]	; 0x58
 8004034:	f890 106c 	ldrb.w	r1, [r0, #108]	; 0x6c
 8004038:	4628      	mov	r0, r5
 800403a:	f7ff ffd5 	bl	8003fe8 <u8g2_font_decode_get_unsigned_bits>
 800403e:	f894 106d 	ldrb.w	r1, [r4, #109]	; 0x6d
 8004042:	f884 0060 	strb.w	r0, [r4, #96]	; 0x60
 8004046:	4628      	mov	r0, r5
 8004048:	f7ff ffce 	bl	8003fe8 <u8g2_font_decode_get_unsigned_bits>
 800404c:	f894 3086 	ldrb.w	r3, [r4, #134]	; 0x86
 8004050:	f884 3064 	strb.w	r3, [r4, #100]	; 0x64
 8004054:	fab3 f383 	clz	r3, r3
 8004058:	095b      	lsrs	r3, r3, #5
 800405a:	f884 0061 	strb.w	r0, [r4, #97]	; 0x61
 800405e:	f884 3065 	strb.w	r3, [r4, #101]	; 0x65
 8004062:	bd38      	pop	{r3, r4, r5, pc}

08004064 <u8g2_font_decode_get_signed_bits>:
 8004064:	b510      	push	{r4, lr}
 8004066:	f7ff ffbf 	bl	8003fe8 <u8g2_font_decode_get_unsigned_bits>
 800406a:	1e4c      	subs	r4, r1, #1
 800406c:	2301      	movs	r3, #1
 800406e:	b2e4      	uxtb	r4, r4
 8004070:	fa03 f404 	lsl.w	r4, r3, r4
 8004074:	1b00      	subs	r0, r0, r4
 8004076:	b240      	sxtb	r0, r0
 8004078:	bd10      	pop	{r4, pc}

0800407a <u8g2_font_decode_len>:
 800407a:	e92d 4ff0 	stmdb	sp!, {r4, r5, r6, r7, r8, r9, sl, fp, lr}
 800407e:	b085      	sub	sp, #20
 8004080:	f890 505e 	ldrb.w	r5, [r0, #94]	; 0x5e
 8004084:	f890 705f 	ldrb.w	r7, [r0, #95]	; 0x5f
 8004088:	9203      	str	r2, [sp, #12]
 800408a:	4604      	mov	r4, r0
 800408c:	460e      	mov	r6, r1
 800408e:	f894 b060 	ldrb.w	fp, [r4, #96]	; 0x60
 8004092:	f894 005c 	ldrb.w	r0, [r4, #92]	; 0x5c
 8004096:	ebab 0305 	sub.w	r3, fp, r5
 800409a:	b2db      	uxtb	r3, r3
 800409c:	42b3      	cmp	r3, r6
 800409e:	9302      	str	r3, [sp, #8]
 80040a0:	bf28      	it	cs
 80040a2:	4633      	movcs	r3, r6
 80040a4:	469a      	mov	sl, r3
 80040a6:	f894 305d 	ldrb.w	r3, [r4, #93]	; 0x5d
 80040aa:	fa4f f987 	sxtb.w	r9, r7
 80040ae:	ee07 3a90 	vmov	s15, r3
 80040b2:	b269      	sxtb	r1, r5
 80040b4:	464a      	mov	r2, r9
 80040b6:	f894 3066 	ldrb.w	r3, [r4, #102]	; 0x66
 80040ba:	f7ff ff50 	bl	8003f5e <u8g2_add_vector_x>
 80040be:	4680      	mov	r8, r0
 80040c0:	ee17 0a90 	vmov	r0, s15
 80040c4:	f7ff ff3d 	bl	8003f42 <u8g2_add_vector_y>
 80040c8:	9903      	ldr	r1, [sp, #12]
 80040ca:	4602      	mov	r2, r0
 80040cc:	b1a9      	cbz	r1, 80040fa <u8g2_font_decode_len+0x80>
 80040ce:	f894 1064 	ldrb.w	r1, [r4, #100]	; 0x64
 80040d2:	f884 1086 	strb.w	r1, [r4, #134]	; 0x86
 80040d6:	9300      	str	r3, [sp, #0]
 80040d8:	4641      	mov	r1, r8
 80040da:	4653      	mov	r3, sl
 80040dc:	4620      	mov	r0, r4
 80040de:	f000 f9a6 	bl	800442e <u8g2_DrawHVLine>
 80040e2:	9b02      	ldr	r3, [sp, #8]
 80040e4:	4435      	add	r5, r6
 80040e6:	429e      	cmp	r6, r3
 80040e8:	b2ed      	uxtb	r5, r5
 80040ea:	d30d      	bcc.n	8004108 <u8g2_font_decode_len+0x8e>
 80040ec:	eba5 060b 	sub.w	r6, r5, fp
 80040f0:	3701      	adds	r7, #1
 80040f2:	b2f6      	uxtb	r6, r6
 80040f4:	b2ff      	uxtb	r7, r7
 80040f6:	2500      	movs	r5, #0
 80040f8:	e7c9      	b.n	800408e <u8g2_font_decode_len+0x14>
 80040fa:	f894 1063 	ldrb.w	r1, [r4, #99]	; 0x63
 80040fe:	2900      	cmp	r1, #0
 8004100:	d1ef      	bne.n	80040e2 <u8g2_font_decode_len+0x68>
 8004102:	f894 1065 	ldrb.w	r1, [r4, #101]	; 0x65
 8004106:	e7e4      	b.n	80040d2 <u8g2_font_decode_len+0x58>
 8004108:	f884 505e 	strb.w	r5, [r4, #94]	; 0x5e
 800410c:	f884 905f 	strb.w	r9, [r4, #95]	; 0x5f
 8004110:	b005      	add	sp, #20
 8004112:	e8bd 8ff0 	ldmia.w	sp!, {r4, r5, r6, r7, r8, r9, sl, fp, pc}

08004116 <u8g2_font_decode_glyph>:
 8004116:	e92d 4ff7 	stmdb	sp!, {r0, r1, r2, r4, r5, r6, r7, r8, r9, sl, fp, lr}
 800411a:	4604      	mov	r4, r0
 800411c:	f100 0758 	add.w	r7, r0, #88	; 0x58
 8004120:	f7ff ff80 	bl	8004024 <u8g2_font_setup_decode>
 8004124:	f894 106e 	ldrb.w	r1, [r4, #110]	; 0x6e
 8004128:	f994 9061 	ldrsb.w	r9, [r4, #97]	; 0x61
 800412c:	4638      	mov	r0, r7
 800412e:	f7ff ff99 	bl	8004064 <u8g2_font_decode_get_signed_bits>
 8004132:	f894 106f 	ldrb.w	r1, [r4, #111]	; 0x6f
 8004136:	4683      	mov	fp, r0
 8004138:	4638      	mov	r0, r7
 800413a:	f7ff ff93 	bl	8004064 <u8g2_font_decode_get_signed_bits>
 800413e:	f894 1070 	ldrb.w	r1, [r4, #112]	; 0x70
 8004142:	4606      	mov	r6, r0
 8004144:	4638      	mov	r0, r7
 8004146:	f7ff ff8d 	bl	8004064 <u8g2_font_decode_get_signed_bits>
 800414a:	f994 a060 	ldrsb.w	sl, [r4, #96]	; 0x60
 800414e:	f1ba 0f00 	cmp.w	sl, #0
 8004152:	4680      	mov	r8, r0
 8004154:	dd4e      	ble.n	80041f4 <u8g2_font_decode_glyph+0xde>
 8004156:	fa56 f289 	uxtab	r2, r6, r9
 800415a:	4252      	negs	r2, r2
 800415c:	b252      	sxtb	r2, r2
 800415e:	f894 3066 	ldrb.w	r3, [r4, #102]	; 0x66
 8004162:	f894 005c 	ldrb.w	r0, [r4, #92]	; 0x5c
 8004166:	4659      	mov	r1, fp
 8004168:	f7ff fef9 	bl	8003f5e <u8g2_add_vector_x>
 800416c:	f884 005c 	strb.w	r0, [r4, #92]	; 0x5c
 8004170:	4606      	mov	r6, r0
 8004172:	f894 005d 	ldrb.w	r0, [r4, #93]	; 0x5d
 8004176:	f7ff fee4 	bl	8003f42 <u8g2_add_vector_y>
 800417a:	fa5f f589 	uxtb.w	r5, r9
 800417e:	4602      	mov	r2, r0
 8004180:	f884 005d 	strb.w	r0, [r4, #93]	; 0x5d
 8004184:	2b03      	cmp	r3, #3
 8004186:	d85c      	bhi.n	8004242 <u8g2_font_decode_glyph+0x12c>
 8004188:	e8df f003 	tbb	[pc, r3]
 800418c:	51443802 	.word	0x51443802
 8004190:	eb06 010a 	add.w	r1, r6, sl
 8004194:	4405      	add	r5, r0
 8004196:	b2cb      	uxtb	r3, r1
 8004198:	b2e9      	uxtb	r1, r5
 800419a:	9100      	str	r1, [sp, #0]
 800419c:	4620      	mov	r0, r4
 800419e:	4631      	mov	r1, r6
 80041a0:	f000 f9bc 	bl	800451c <u8g2_IsIntersection>
 80041a4:	b330      	cbz	r0, 80041f4 <u8g2_font_decode_glyph+0xde>
 80041a6:	2300      	movs	r3, #0
 80041a8:	f8a4 305e 	strh.w	r3, [r4, #94]	; 0x5e
 80041ac:	f894 106a 	ldrb.w	r1, [r4, #106]	; 0x6a
 80041b0:	4638      	mov	r0, r7
 80041b2:	f7ff ff19 	bl	8003fe8 <u8g2_font_decode_get_unsigned_bits>
 80041b6:	f894 106b 	ldrb.w	r1, [r4, #107]	; 0x6b
 80041ba:	4606      	mov	r6, r0
 80041bc:	4638      	mov	r0, r7
 80041be:	f7ff ff13 	bl	8003fe8 <u8g2_font_decode_get_unsigned_bits>
 80041c2:	4605      	mov	r5, r0
 80041c4:	2200      	movs	r2, #0
 80041c6:	4631      	mov	r1, r6
 80041c8:	4620      	mov	r0, r4
 80041ca:	f7ff ff56 	bl	800407a <u8g2_font_decode_len>
 80041ce:	4629      	mov	r1, r5
 80041d0:	4620      	mov	r0, r4
 80041d2:	2201      	movs	r2, #1
 80041d4:	f7ff ff51 	bl	800407a <u8g2_font_decode_len>
 80041d8:	2101      	movs	r1, #1
 80041da:	4638      	mov	r0, r7
 80041dc:	f7ff ff04 	bl	8003fe8 <u8g2_font_decode_get_unsigned_bits>
 80041e0:	2800      	cmp	r0, #0
 80041e2:	d1ef      	bne.n	80041c4 <u8g2_font_decode_glyph+0xae>
 80041e4:	f994 305f 	ldrsb.w	r3, [r4, #95]	; 0x5f
 80041e8:	454b      	cmp	r3, r9
 80041ea:	dbdf      	blt.n	80041ac <u8g2_font_decode_glyph+0x96>
 80041ec:	f894 3064 	ldrb.w	r3, [r4, #100]	; 0x64
 80041f0:	f884 3086 	strb.w	r3, [r4, #134]	; 0x86
 80041f4:	4640      	mov	r0, r8
 80041f6:	b003      	add	sp, #12
 80041f8:	e8bd 8ff0 	ldmia.w	sp!, {r4, r5, r6, r7, r8, r9, sl, fp, pc}
 80041fc:	f1c5 0501 	rsb	r5, r5, #1
 8004200:	eb06 0c05 	add.w	ip, r6, r5
 8004204:	eb00 010a 	add.w	r1, r0, sl
 8004208:	3601      	adds	r6, #1
 800420a:	b2f3      	uxtb	r3, r6
 800420c:	b2c9      	uxtb	r1, r1
 800420e:	fa5f f68c 	uxtb.w	r6, ip
 8004212:	e7c2      	b.n	800419a <u8g2_font_decode_glyph+0x84>
 8004214:	f1ca 0101 	rsb	r1, sl, #1
 8004218:	f1c5 0501 	rsb	r5, r5, #1
 800421c:	eb06 0c01 	add.w	ip, r6, r1
 8004220:	3201      	adds	r2, #1
 8004222:	3601      	adds	r6, #1
 8004224:	4405      	add	r5, r0
 8004226:	b2d1      	uxtb	r1, r2
 8004228:	b2f3      	uxtb	r3, r6
 800422a:	b2ea      	uxtb	r2, r5
 800422c:	e7ef      	b.n	800420e <u8g2_font_decode_glyph+0xf8>
 800422e:	f1ca 0a01 	rsb	sl, sl, #1
 8004232:	3201      	adds	r2, #1
 8004234:	19ab      	adds	r3, r5, r6
 8004236:	4482      	add	sl, r0
 8004238:	b2d1      	uxtb	r1, r2
 800423a:	b2db      	uxtb	r3, r3
 800423c:	fa5f f28a 	uxtb.w	r2, sl
 8004240:	e7ab      	b.n	800419a <u8g2_font_decode_glyph+0x84>
 8004242:	4601      	mov	r1, r0
 8004244:	4633      	mov	r3, r6
 8004246:	e7a8      	b.n	800419a <u8g2_font_decode_glyph+0x84>

08004248 <u8g2_font_get_glyph_data>:
 8004248:	6d03      	ldr	r3, [r0, #80]	; 0x50
 800424a:	29ff      	cmp	r1, #255	; 0xff
 800424c:	b570      	push	{r4, r5, r6, lr}
 800424e:	f103 0317 	add.w	r3, r3, #23
 8004252:	460d      	mov	r5, r1
 8004254:	d812      	bhi.n	800427c <u8g2_font_get_glyph_data+0x34>
 8004256:	2960      	cmp	r1, #96	; 0x60
 8004258:	d909      	bls.n	800426e <u8g2_font_get_glyph_data+0x26>
 800425a:	f8b0 207c 	ldrh.w	r2, [r0, #124]	; 0x7c
 800425e:	4413      	add	r3, r2
 8004260:	7858      	ldrb	r0, [r3, #1]
 8004262:	b118      	cbz	r0, 800426c <u8g2_font_get_glyph_data+0x24>
 8004264:	781a      	ldrb	r2, [r3, #0]
 8004266:	42aa      	cmp	r2, r5
 8004268:	d106      	bne.n	8004278 <u8g2_font_get_glyph_data+0x30>
 800426a:	1c98      	adds	r0, r3, #2
 800426c:	bd70      	pop	{r4, r5, r6, pc}
 800426e:	2940      	cmp	r1, #64	; 0x40
 8004270:	d9f6      	bls.n	8004260 <u8g2_font_get_glyph_data+0x18>
 8004272:	f8b0 207a 	ldrh.w	r2, [r0, #122]	; 0x7a
 8004276:	e7f2      	b.n	800425e <u8g2_font_get_glyph_data+0x16>
 8004278:	4403      	add	r3, r0
 800427a:	e7f1      	b.n	8004260 <u8g2_font_get_glyph_data+0x18>
 800427c:	f8b0 407e 	ldrh.w	r4, [r0, #126]	; 0x7e
 8004280:	441c      	add	r4, r3
 8004282:	4626      	mov	r6, r4
 8004284:	2100      	movs	r1, #0
 8004286:	4630      	mov	r0, r6
 8004288:	f7ff fe54 	bl	8003f34 <u8g2_font_get_word>
 800428c:	2102      	movs	r1, #2
 800428e:	4404      	add	r4, r0
 8004290:	4630      	mov	r0, r6
 8004292:	f7ff fe4f 	bl	8003f34 <u8g2_font_get_word>
 8004296:	4285      	cmp	r5, r0
 8004298:	f106 0604 	add.w	r6, r6, #4
 800429c:	d8f2      	bhi.n	8004284 <u8g2_font_get_glyph_data+0x3c>
 800429e:	8820      	ldrh	r0, [r4, #0]
 80042a0:	ba40      	rev16	r0, r0
 80042a2:	b280      	uxth	r0, r0
 80042a4:	2800      	cmp	r0, #0
 80042a6:	d0e1      	beq.n	800426c <u8g2_font_get_glyph_data+0x24>
 80042a8:	4285      	cmp	r5, r0
 80042aa:	d101      	bne.n	80042b0 <u8g2_font_get_glyph_data+0x68>
 80042ac:	1ce0      	adds	r0, r4, #3
 80042ae:	e7dd      	b.n	800426c <u8g2_font_get_glyph_data+0x24>
 80042b0:	78a3      	ldrb	r3, [r4, #2]
 80042b2:	441c      	add	r4, r3
 80042b4:	e7f3      	b.n	800429e <u8g2_font_get_glyph_data+0x56>

080042b6 <u8g2_DrawGlyph>:
 80042b6:	b5f8      	push	{r3, r4, r5, r6, r7, lr}
 80042b8:	461f      	mov	r7, r3
 80042ba:	f890 3066 	ldrb.w	r3, [r0, #102]	; 0x66
 80042be:	4604      	mov	r4, r0
 80042c0:	460e      	mov	r6, r1
 80042c2:	4615      	mov	r5, r2
 80042c4:	2b03      	cmp	r3, #3
 80042c6:	d807      	bhi.n	80042d8 <u8g2_DrawGlyph+0x22>
 80042c8:	e8df f003 	tbb	[pc, r3]
 80042cc:	1e1a1502 	.word	0x1e1a1502
 80042d0:	6d43      	ldr	r3, [r0, #84]	; 0x54
 80042d2:	4798      	blx	r3
 80042d4:	4428      	add	r0, r5
 80042d6:	b2c5      	uxtb	r5, r0
 80042d8:	f884 605c 	strb.w	r6, [r4, #92]	; 0x5c
 80042dc:	f884 505d 	strb.w	r5, [r4, #93]	; 0x5d
 80042e0:	4639      	mov	r1, r7
 80042e2:	4620      	mov	r0, r4
 80042e4:	f7ff ffb0 	bl	8004248 <u8g2_font_get_glyph_data>
 80042e8:	b120      	cbz	r0, 80042f4 <u8g2_DrawGlyph+0x3e>
 80042ea:	4601      	mov	r1, r0
 80042ec:	4620      	mov	r0, r4
 80042ee:	f7ff ff12 	bl	8004116 <u8g2_font_decode_glyph>
 80042f2:	b2c0      	uxtb	r0, r0
 80042f4:	bdf8      	pop	{r3, r4, r5, r6, r7, pc}
 80042f6:	6d43      	ldr	r3, [r0, #84]	; 0x54
 80042f8:	4798      	blx	r3
 80042fa:	1a30      	subs	r0, r6, r0
 80042fc:	b2c6      	uxtb	r6, r0
 80042fe:	e7eb      	b.n	80042d8 <u8g2_DrawGlyph+0x22>
 8004300:	6d43      	ldr	r3, [r0, #84]	; 0x54
 8004302:	4798      	blx	r3
 8004304:	1a28      	subs	r0, r5, r0
 8004306:	e7e6      	b.n	80042d6 <u8g2_DrawGlyph+0x20>
 8004308:	6d43      	ldr	r3, [r0, #84]	; 0x54
 800430a:	4798      	blx	r3
 800430c:	4430      	add	r0, r6
 800430e:	e7f5      	b.n	80042fc <u8g2_DrawGlyph+0x46>

08004310 <u8g2_draw_string>:
 8004310:	e92d 47f0 	stmdb	sp!, {r4, r5, r6, r7, r8, r9, sl, lr}
 8004314:	461e      	mov	r6, r3
 8004316:	4607      	mov	r7, r0
 8004318:	460c      	mov	r4, r1
 800431a:	4615      	mov	r5, r2
 800431c:	f000 fa0c 	bl	8004738 <u8x8_utf8_init>
 8004320:	3e01      	subs	r6, #1
 8004322:	f04f 0a00 	mov.w	sl, #0
 8004326:	f64f 78ff 	movw	r8, #65535	; 0xffff
 800432a:	f64f 79fe 	movw	r9, #65534	; 0xfffe
 800432e:	687b      	ldr	r3, [r7, #4]
 8004330:	f816 1f01 	ldrb.w	r1, [r6, #1]!
 8004334:	4638      	mov	r0, r7
 8004336:	4798      	blx	r3
 8004338:	4540      	cmp	r0, r8
 800433a:	4603      	mov	r3, r0
 800433c:	d01c      	beq.n	8004378 <u8g2_draw_string+0x68>
 800433e:	4548      	cmp	r0, r9
 8004340:	d0f5      	beq.n	800432e <u8g2_draw_string+0x1e>
 8004342:	462a      	mov	r2, r5
 8004344:	4621      	mov	r1, r4
 8004346:	4638      	mov	r0, r7
 8004348:	f7ff ffb5 	bl	80042b6 <u8g2_DrawGlyph>
 800434c:	f897 3066 	ldrb.w	r3, [r7, #102]	; 0x66
 8004350:	2b03      	cmp	r3, #3
 8004352:	d805      	bhi.n	8004360 <u8g2_draw_string+0x50>
 8004354:	e8df f003 	tbb	[pc, r3]
 8004358:	0e0c0902 	.word	0x0e0c0902
 800435c:	4404      	add	r4, r0
 800435e:	b2e4      	uxtb	r4, r4
 8004360:	eb0a 0200 	add.w	r2, sl, r0
 8004364:	fa5f fa82 	uxtb.w	sl, r2
 8004368:	e7e1      	b.n	800432e <u8g2_draw_string+0x1e>
 800436a:	4405      	add	r5, r0
 800436c:	b2ed      	uxtb	r5, r5
 800436e:	e7f7      	b.n	8004360 <u8g2_draw_string+0x50>
 8004370:	1a24      	subs	r4, r4, r0
 8004372:	e7f4      	b.n	800435e <u8g2_draw_string+0x4e>
 8004374:	1a2d      	subs	r5, r5, r0
 8004376:	e7f9      	b.n	800436c <u8g2_draw_string+0x5c>
 8004378:	4650      	mov	r0, sl
 800437a:	e8bd 87f0 	ldmia.w	sp!, {r4, r5, r6, r7, r8, r9, sl, pc}
	...

08004380 <u8g2_DrawStr>:
 8004380:	b410      	push	{r4}
 8004382:	4c03      	ldr	r4, [pc, #12]	; (8004390 <u8g2_DrawStr+0x10>)
 8004384:	6044      	str	r4, [r0, #4]
 8004386:	f85d 4b04 	ldr.w	r4, [sp], #4
 800438a:	f7ff bfc1 	b.w	8004310 <u8g2_draw_string>
 800438e:	bf00      	nop
 8004390:	08004729 	.word	0x08004729

08004394 <u8g2_UpdateRefHeight>:
 8004394:	6d03      	ldr	r3, [r0, #80]	; 0x50
 8004396:	b510      	push	{r4, lr}
 8004398:	b1c3      	cbz	r3, 80043cc <u8g2_UpdateRefHeight+0x38>
 800439a:	f890 3081 	ldrb.w	r3, [r0, #129]	; 0x81
 800439e:	f990 4075 	ldrsb.w	r4, [r0, #117]	; 0x75
 80043a2:	f990 1076 	ldrsb.w	r1, [r0, #118]	; 0x76
 80043a6:	f880 4082 	strb.w	r4, [r0, #130]	; 0x82
 80043aa:	f880 1083 	strb.w	r1, [r0, #131]	; 0x83
 80043ae:	b16b      	cbz	r3, 80043cc <u8g2_UpdateRefHeight+0x38>
 80043b0:	2b01      	cmp	r3, #1
 80043b2:	d10c      	bne.n	80043ce <u8g2_UpdateRefHeight+0x3a>
 80043b4:	f990 3077 	ldrsb.w	r3, [r0, #119]	; 0x77
 80043b8:	429c      	cmp	r4, r3
 80043ba:	bfb8      	it	lt
 80043bc:	f880 3082 	strblt.w	r3, [r0, #130]	; 0x82
 80043c0:	f990 3078 	ldrsb.w	r3, [r0, #120]	; 0x78
 80043c4:	4299      	cmp	r1, r3
 80043c6:	dd01      	ble.n	80043cc <u8g2_UpdateRefHeight+0x38>
 80043c8:	f880 3083 	strb.w	r3, [r0, #131]	; 0x83
 80043cc:	bd10      	pop	{r4, pc}
 80043ce:	f990 2074 	ldrsb.w	r2, [r0, #116]	; 0x74
 80043d2:	f990 3072 	ldrsb.w	r3, [r0, #114]	; 0x72
 80043d6:	4413      	add	r3, r2
 80043d8:	429c      	cmp	r4, r3
 80043da:	bfb8      	it	lt
 80043dc:	f880 3082 	strblt.w	r3, [r0, #130]	; 0x82
 80043e0:	4291      	cmp	r1, r2
 80043e2:	bfc8      	it	gt
 80043e4:	f880 2083 	strbgt.w	r2, [r0, #131]	; 0x83
 80043e8:	e7f0      	b.n	80043cc <u8g2_UpdateRefHeight+0x38>
	...

080043ec <u8g2_SetFontPosBaseline>:
 80043ec:	4b01      	ldr	r3, [pc, #4]	; (80043f4 <u8g2_SetFontPosBaseline+0x8>)
 80043ee:	6543      	str	r3, [r0, #84]	; 0x54
 80043f0:	4770      	bx	lr
 80043f2:	bf00      	nop
 80043f4:	08003f7b 	.word	0x08003f7b

080043f8 <u8g2_SetFont>:
 80043f8:	6d02      	ldr	r2, [r0, #80]	; 0x50
 80043fa:	428a      	cmp	r2, r1
 80043fc:	b510      	push	{r4, lr}
 80043fe:	4604      	mov	r4, r0
 8004400:	d008      	beq.n	8004414 <u8g2_SetFont+0x1c>
 8004402:	6501      	str	r1, [r0, #80]	; 0x50
 8004404:	3068      	adds	r0, #104	; 0x68
 8004406:	f7ff fdba 	bl	8003f7e <u8g2_read_font_info>
 800440a:	4620      	mov	r0, r4
 800440c:	e8bd 4010 	ldmia.w	sp!, {r4, lr}
 8004410:	f7ff bfc0 	b.w	8004394 <u8g2_UpdateRefHeight>
 8004414:	bd10      	pop	{r4, pc}

08004416 <u8g2_draw_hv_line_2dir>:
 8004416:	b470      	push	{r4, r5, r6}
 8004418:	f890 6040 	ldrb.w	r6, [r0, #64]	; 0x40
 800441c:	6b04      	ldr	r4, [r0, #48]	; 0x30
 800441e:	f89d 500c 	ldrb.w	r5, [sp, #12]
 8004422:	9503      	str	r5, [sp, #12]
 8004424:	1b92      	subs	r2, r2, r6
 8004426:	46a4      	mov	ip, r4
 8004428:	b2d2      	uxtb	r2, r2
 800442a:	bc70      	pop	{r4, r5, r6}
 800442c:	4760      	bx	ip

0800442e <u8g2_DrawHVLine>:
 800442e:	b470      	push	{r4, r5, r6}
 8004430:	f890 4080 	ldrb.w	r4, [r0, #128]	; 0x80
 8004434:	f89d 500c 	ldrb.w	r5, [sp, #12]
 8004438:	2c00      	cmp	r4, #0
 800443a:	d03a      	beq.n	80044b2 <u8g2_DrawHVLine+0x84>
 800443c:	2b00      	cmp	r3, #0
 800443e:	d038      	beq.n	80044b2 <u8g2_DrawHVLine+0x84>
 8004440:	2b01      	cmp	r3, #1
 8004442:	d904      	bls.n	800444e <u8g2_DrawHVLine+0x20>
 8004444:	2d02      	cmp	r5, #2
 8004446:	d12b      	bne.n	80044a0 <u8g2_DrawHVLine+0x72>
 8004448:	3101      	adds	r1, #1
 800444a:	1ac9      	subs	r1, r1, r3
 800444c:	b2c9      	uxtb	r1, r1
 800444e:	f015 0501 	ands.w	r5, r5, #1
 8004452:	d130      	bne.n	80044b6 <u8g2_DrawHVLine+0x88>
 8004454:	f890 4047 	ldrb.w	r4, [r0, #71]	; 0x47
 8004458:	4294      	cmp	r4, r2
 800445a:	d82a      	bhi.n	80044b2 <u8g2_DrawHVLine+0x84>
 800445c:	f890 4048 	ldrb.w	r4, [r0, #72]	; 0x48
 8004460:	4294      	cmp	r4, r2
 8004462:	d926      	bls.n	80044b2 <u8g2_DrawHVLine+0x84>
 8004464:	440b      	add	r3, r1
 8004466:	b2db      	uxtb	r3, r3
 8004468:	428b      	cmp	r3, r1
 800446a:	f890 6045 	ldrb.w	r6, [r0, #69]	; 0x45
 800446e:	f890 4046 	ldrb.w	r4, [r0, #70]	; 0x46
 8004472:	d21c      	bcs.n	80044ae <u8g2_DrawHVLine+0x80>
 8004474:	428c      	cmp	r4, r1
 8004476:	d919      	bls.n	80044ac <u8g2_DrawHVLine+0x7e>
 8004478:	1e63      	subs	r3, r4, #1
 800447a:	b2db      	uxtb	r3, r3
 800447c:	429e      	cmp	r6, r3
 800447e:	d218      	bcs.n	80044b2 <u8g2_DrawHVLine+0x84>
 8004480:	42b1      	cmp	r1, r6
 8004482:	bf38      	it	cc
 8004484:	4631      	movcc	r1, r6
 8004486:	429c      	cmp	r4, r3
 8004488:	bf94      	ite	ls
 800448a:	ebc1 0404 	rsbls	r4, r1, r4
 800448e:	ebc1 0403 	rsbhi	r4, r1, r3
 8004492:	b2e3      	uxtb	r3, r4
 8004494:	6b44      	ldr	r4, [r0, #52]	; 0x34
 8004496:	9503      	str	r5, [sp, #12]
 8004498:	68a4      	ldr	r4, [r4, #8]
 800449a:	46a4      	mov	ip, r4
 800449c:	bc70      	pop	{r4, r5, r6}
 800449e:	4760      	bx	ip
 80044a0:	2d03      	cmp	r5, #3
 80044a2:	bf02      	ittt	eq
 80044a4:	3201      	addeq	r2, #1
 80044a6:	1ad2      	subeq	r2, r2, r3
 80044a8:	b2d2      	uxtbeq	r2, r2
 80044aa:	e7d0      	b.n	800444e <u8g2_DrawHVLine+0x20>
 80044ac:	4631      	mov	r1, r6
 80044ae:	428c      	cmp	r4, r1
 80044b0:	d8e4      	bhi.n	800447c <u8g2_DrawHVLine+0x4e>
 80044b2:	bc70      	pop	{r4, r5, r6}
 80044b4:	4770      	bx	lr
 80044b6:	f890 4045 	ldrb.w	r4, [r0, #69]	; 0x45
 80044ba:	428c      	cmp	r4, r1
 80044bc:	d8f9      	bhi.n	80044b2 <u8g2_DrawHVLine+0x84>
 80044be:	f890 4046 	ldrb.w	r4, [r0, #70]	; 0x46
 80044c2:	428c      	cmp	r4, r1
 80044c4:	d9f5      	bls.n	80044b2 <u8g2_DrawHVLine+0x84>
 80044c6:	4413      	add	r3, r2
 80044c8:	b2db      	uxtb	r3, r3
 80044ca:	4293      	cmp	r3, r2
 80044cc:	f890 6047 	ldrb.w	r6, [r0, #71]	; 0x47
 80044d0:	f890 4048 	ldrb.w	r4, [r0, #72]	; 0x48
 80044d4:	d210      	bcs.n	80044f8 <u8g2_DrawHVLine+0xca>
 80044d6:	4294      	cmp	r4, r2
 80044d8:	d90d      	bls.n	80044f6 <u8g2_DrawHVLine+0xc8>
 80044da:	1e63      	subs	r3, r4, #1
 80044dc:	b2db      	uxtb	r3, r3
 80044de:	429e      	cmp	r6, r3
 80044e0:	d2e7      	bcs.n	80044b2 <u8g2_DrawHVLine+0x84>
 80044e2:	42b2      	cmp	r2, r6
 80044e4:	bf38      	it	cc
 80044e6:	4632      	movcc	r2, r6
 80044e8:	429c      	cmp	r4, r3
 80044ea:	bf94      	ite	ls
 80044ec:	ebc2 0404 	rsbls	r4, r2, r4
 80044f0:	ebc2 0403 	rsbhi	r4, r2, r3
 80044f4:	e7cd      	b.n	8004492 <u8g2_DrawHVLine+0x64>
 80044f6:	4632      	mov	r2, r6
 80044f8:	4294      	cmp	r4, r2
 80044fa:	d8f0      	bhi.n	80044de <u8g2_DrawHVLine+0xb0>
 80044fc:	e7d9      	b.n	80044b2 <u8g2_DrawHVLine+0x84>

080044fe <u8g2_is_intersection_decision_tree>:
 80044fe:	428a      	cmp	r2, r1
 8004500:	d206      	bcs.n	8004510 <u8g2_is_intersection_decision_tree+0x12>
 8004502:	4283      	cmp	r3, r0
 8004504:	d808      	bhi.n	8004518 <u8g2_is_intersection_decision_tree+0x1a>
 8004506:	429a      	cmp	r2, r3
 8004508:	bf94      	ite	ls
 800450a:	2000      	movls	r0, #0
 800450c:	2001      	movhi	r0, #1
 800450e:	4770      	bx	lr
 8004510:	4283      	cmp	r3, r0
 8004512:	d8f8      	bhi.n	8004506 <u8g2_is_intersection_decision_tree+0x8>
 8004514:	2000      	movs	r0, #0
 8004516:	4770      	bx	lr
 8004518:	2001      	movs	r0, #1
 800451a:	4770      	bx	lr

0800451c <u8g2_IsIntersection>:
 800451c:	b570      	push	{r4, r5, r6, lr}
 800451e:	4604      	mov	r4, r0
 8004520:	460d      	mov	r5, r1
 8004522:	461e      	mov	r6, r3
 8004524:	f890 1048 	ldrb.w	r1, [r0, #72]	; 0x48
 8004528:	f89d 3010 	ldrb.w	r3, [sp, #16]
 800452c:	f890 0047 	ldrb.w	r0, [r0, #71]	; 0x47
 8004530:	f7ff ffe5 	bl	80044fe <u8g2_is_intersection_decision_tree>
 8004534:	b148      	cbz	r0, 800454a <u8g2_IsIntersection+0x2e>
 8004536:	f894 1046 	ldrb.w	r1, [r4, #70]	; 0x46
 800453a:	f894 0045 	ldrb.w	r0, [r4, #69]	; 0x45
 800453e:	4633      	mov	r3, r6
 8004540:	462a      	mov	r2, r5
 8004542:	e8bd 4070 	ldmia.w	sp!, {r4, r5, r6, lr}
 8004546:	f7ff bfda 	b.w	80044fe <u8g2_is_intersection_decision_tree>
 800454a:	bd70      	pop	{r4, r5, r6, pc}

0800454c <u8g2_ll_hvline_vertical_top_lsb>:
 800454c:	b5f0      	push	{r4, r5, r6, r7, lr}
 800454e:	f890 5086 	ldrb.w	r5, [r0, #134]	; 0x86
 8004552:	f89d 7014 	ldrb.w	r7, [sp, #20]
 8004556:	f002 0607 	and.w	r6, r2, #7
 800455a:	2401      	movs	r4, #1
 800455c:	40b4      	lsls	r4, r6
 800455e:	2d01      	cmp	r5, #1
 8004560:	b2e4      	uxtb	r4, r4
 8004562:	d815      	bhi.n	8004590 <u8g2_ll_hvline_vertical_top_lsb+0x44>
 8004564:	4625      	mov	r5, r4
 8004566:	d015      	beq.n	8004594 <u8g2_ll_hvline_vertical_top_lsb+0x48>
 8004568:	f002 0cf8 	and.w	ip, r2, #248	; 0xf8
 800456c:	6802      	ldr	r2, [r0, #0]
 800456e:	f892 e010 	ldrb.w	lr, [r2, #16]
 8004572:	6b82      	ldr	r2, [r0, #56]	; 0x38
 8004574:	fb0e 110c 	mla	r1, lr, ip, r1
 8004578:	4411      	add	r1, r2
 800457a:	b96f      	cbnz	r7, 8004598 <u8g2_ll_hvline_vertical_top_lsb+0x4c>
 800457c:	780a      	ldrb	r2, [r1, #0]
 800457e:	3b01      	subs	r3, #1
 8004580:	432a      	orrs	r2, r5
 8004582:	4062      	eors	r2, r4
 8004584:	f013 03ff 	ands.w	r3, r3, #255	; 0xff
 8004588:	f801 2b01 	strb.w	r2, [r1], #1
 800458c:	d1f6      	bne.n	800457c <u8g2_ll_hvline_vertical_top_lsb+0x30>
 800458e:	bdf0      	pop	{r4, r5, r6, r7, pc}
 8004590:	2500      	movs	r5, #0
 8004592:	e7e9      	b.n	8004568 <u8g2_ll_hvline_vertical_top_lsb+0x1c>
 8004594:	2400      	movs	r4, #0
 8004596:	e7e7      	b.n	8004568 <u8g2_ll_hvline_vertical_top_lsb+0x1c>
 8004598:	780a      	ldrb	r2, [r1, #0]
 800459a:	3601      	adds	r6, #1
 800459c:	432a      	orrs	r2, r5
 800459e:	4062      	eors	r2, r4
 80045a0:	3b01      	subs	r3, #1
 80045a2:	f016 0607 	ands.w	r6, r6, #7
 80045a6:	700a      	strb	r2, [r1, #0]
 80045a8:	b2db      	uxtb	r3, r3
 80045aa:	d10c      	bne.n	80045c6 <u8g2_ll_hvline_vertical_top_lsb+0x7a>
 80045ac:	f890 203e 	ldrb.w	r2, [r0, #62]	; 0x3e
 80045b0:	4411      	add	r1, r2
 80045b2:	f890 2086 	ldrb.w	r2, [r0, #134]	; 0x86
 80045b6:	2a01      	cmp	r2, #1
 80045b8:	d80a      	bhi.n	80045d0 <u8g2_ll_hvline_vertical_top_lsb+0x84>
 80045ba:	d00b      	beq.n	80045d4 <u8g2_ll_hvline_vertical_top_lsb+0x88>
 80045bc:	2401      	movs	r4, #1
 80045be:	4625      	mov	r5, r4
 80045c0:	2b00      	cmp	r3, #0
 80045c2:	d1e9      	bne.n	8004598 <u8g2_ll_hvline_vertical_top_lsb+0x4c>
 80045c4:	e7e3      	b.n	800458e <u8g2_ll_hvline_vertical_top_lsb+0x42>
 80045c6:	006d      	lsls	r5, r5, #1
 80045c8:	0064      	lsls	r4, r4, #1
 80045ca:	b2ed      	uxtb	r5, r5
 80045cc:	b2e4      	uxtb	r4, r4
 80045ce:	e7f7      	b.n	80045c0 <u8g2_ll_hvline_vertical_top_lsb+0x74>
 80045d0:	2401      	movs	r4, #1
 80045d2:	e7f5      	b.n	80045c0 <u8g2_ll_hvline_vertical_top_lsb+0x74>
 80045d4:	4615      	mov	r5, r2
 80045d6:	e7f3      	b.n	80045c0 <u8g2_ll_hvline_vertical_top_lsb+0x74>

080045d8 <u8g2_update_dimension_common>:
 80045d8:	b570      	push	{r4, r5, r6, lr}
 80045da:	f890 403c 	ldrb.w	r4, [r0, #60]	; 0x3c
 80045de:	6801      	ldr	r1, [r0, #0]
 80045e0:	f890 503d 	ldrb.w	r5, [r0, #61]	; 0x3d
 80045e4:	00e3      	lsls	r3, r4, #3
 80045e6:	f880 303f 	strb.w	r3, [r0, #63]	; 0x3f
 80045ea:	7c0a      	ldrb	r2, [r1, #16]
 80045ec:	2a1f      	cmp	r2, #31
 80045ee:	bf28      	it	cs
 80045f0:	221f      	movcs	r2, #31
 80045f2:	00eb      	lsls	r3, r5, #3
 80045f4:	b2db      	uxtb	r3, r3
 80045f6:	00d2      	lsls	r2, r2, #3
 80045f8:	f880 3040 	strb.w	r3, [r0, #64]	; 0x40
 80045fc:	f880 203e 	strb.w	r2, [r0, #62]	; 0x3e
 8004600:	7c4a      	ldrb	r2, [r1, #17]
 8004602:	f880 3041 	strb.w	r3, [r0, #65]	; 0x41
 8004606:	1966      	adds	r6, r4, r5
 8004608:	4296      	cmp	r6, r2
 800460a:	bfc4      	itt	gt
 800460c:	1b54      	subgt	r4, r2, r5
 800460e:	b2e4      	uxtbgt	r4, r4
 8004610:	eb03 03c4 	add.w	r3, r3, r4, lsl #3
 8004614:	22f0      	movs	r2, #240	; 0xf0
 8004616:	f880 2043 	strb.w	r2, [r0, #67]	; 0x43
 800461a:	f880 3042 	strb.w	r3, [r0, #66]	; 0x42
 800461e:	8a8b      	ldrh	r3, [r1, #20]
 8004620:	4293      	cmp	r3, r2
 8004622:	bf88      	it	hi
 8004624:	4613      	movhi	r3, r2
 8004626:	f880 3043 	strb.w	r3, [r0, #67]	; 0x43
 800462a:	8acb      	ldrh	r3, [r1, #22]
 800462c:	f880 3044 	strb.w	r3, [r0, #68]	; 0x44
 8004630:	bd70      	pop	{r4, r5, r6, pc}

08004632 <u8g2_update_dimension_r0>:
 8004632:	f7ff bfd1 	b.w	80045d8 <u8g2_update_dimension_common>

08004636 <u8g2_draw_l90_r0>:
 8004636:	b410      	push	{r4}
 8004638:	f89d 4004 	ldrb.w	r4, [sp, #4]
 800463c:	9401      	str	r4, [sp, #4]
 800463e:	f85d 4b04 	ldr.w	r4, [sp], #4
 8004642:	f7ff bee8 	b.w	8004416 <u8g2_draw_hv_line_2dir>

08004646 <u8g2_apply_clip_window>:
 8004646:	b513      	push	{r0, r1, r4, lr}
 8004648:	f890 304c 	ldrb.w	r3, [r0, #76]	; 0x4c
 800464c:	9300      	str	r3, [sp, #0]
 800464e:	f890 304a 	ldrb.w	r3, [r0, #74]	; 0x4a
 8004652:	f890 204b 	ldrb.w	r2, [r0, #75]	; 0x4b
 8004656:	f890 1049 	ldrb.w	r1, [r0, #73]	; 0x49
 800465a:	4604      	mov	r4, r0
 800465c:	f7ff ff5e 	bl	800451c <u8g2_IsIntersection>
 8004660:	b918      	cbnz	r0, 800466a <u8g2_apply_clip_window+0x24>
 8004662:	f884 0080 	strb.w	r0, [r4, #128]	; 0x80
 8004666:	b002      	add	sp, #8
 8004668:	bd10      	pop	{r4, pc}
 800466a:	2301      	movs	r3, #1
 800466c:	f894 2045 	ldrb.w	r2, [r4, #69]	; 0x45
 8004670:	f884 3080 	strb.w	r3, [r4, #128]	; 0x80
 8004674:	f894 3049 	ldrb.w	r3, [r4, #73]	; 0x49
 8004678:	429a      	cmp	r2, r3
 800467a:	bf38      	it	cc
 800467c:	f884 3045 	strbcc.w	r3, [r4, #69]	; 0x45
 8004680:	f894 2046 	ldrb.w	r2, [r4, #70]	; 0x46
 8004684:	f894 304a 	ldrb.w	r3, [r4, #74]	; 0x4a
 8004688:	429a      	cmp	r2, r3
 800468a:	bf88      	it	hi
 800468c:	f884 3046 	strbhi.w	r3, [r4, #70]	; 0x46
 8004690:	f894 2047 	ldrb.w	r2, [r4, #71]	; 0x47
 8004694:	f894 304b 	ldrb.w	r3, [r4, #75]	; 0x4b
 8004698:	429a      	cmp	r2, r3
 800469a:	bf38      	it	cc
 800469c:	f884 3047 	strbcc.w	r3, [r4, #71]	; 0x47
 80046a0:	f894 2048 	ldrb.w	r2, [r4, #72]	; 0x48
 80046a4:	f894 304c 	ldrb.w	r3, [r4, #76]	; 0x4c
 80046a8:	429a      	cmp	r2, r3
 80046aa:	bf88      	it	hi
 80046ac:	f884 3048 	strbhi.w	r3, [r4, #72]	; 0x48
 80046b0:	e7d9      	b.n	8004666 <u8g2_apply_clip_window+0x20>

080046b2 <u8g2_update_page_win_r0>:
 80046b2:	2200      	movs	r2, #0
 80046b4:	f880 2045 	strb.w	r2, [r0, #69]	; 0x45
 80046b8:	f890 2043 	ldrb.w	r2, [r0, #67]	; 0x43
 80046bc:	f880 2046 	strb.w	r2, [r0, #70]	; 0x46
 80046c0:	f890 2041 	ldrb.w	r2, [r0, #65]	; 0x41
 80046c4:	f880 2047 	strb.w	r2, [r0, #71]	; 0x47
 80046c8:	f890 2042 	ldrb.w	r2, [r0, #66]	; 0x42
 80046cc:	f880 2048 	strb.w	r2, [r0, #72]	; 0x48
 80046d0:	f7ff bfb9 	b.w	8004646 <u8g2_apply_clip_window>

080046d4 <u8g2_SetMaxClipWindow>:
 80046d4:	2200      	movs	r2, #0
 80046d6:	f880 2049 	strb.w	r2, [r0, #73]	; 0x49
 80046da:	6b43      	ldr	r3, [r0, #52]	; 0x34
 80046dc:	22ff      	movs	r2, #255	; 0xff
 80046de:	f8a0 204a 	strh.w	r2, [r0, #74]	; 0x4a
 80046e2:	f880 204c 	strb.w	r2, [r0, #76]	; 0x4c
 80046e6:	685b      	ldr	r3, [r3, #4]
 80046e8:	4718      	bx	r3

080046ea <u8g2_SetupBuffer>:
 80046ea:	b570      	push	{r4, r5, r6, lr}
 80046ec:	9e04      	ldr	r6, [sp, #16]
 80046ee:	6303      	str	r3, [r0, #48]	; 0x30
 80046f0:	2500      	movs	r5, #0
 80046f2:	f240 1301 	movw	r3, #257	; 0x101
 80046f6:	f880 203c 	strb.w	r2, [r0, #60]	; 0x3c
 80046fa:	f880 503d 	strb.w	r5, [r0, #61]	; 0x3d
 80046fe:	f880 5063 	strb.w	r5, [r0, #99]	; 0x63
 8004702:	f880 5085 	strb.w	r5, [r0, #133]	; 0x85
 8004706:	f8a0 3086 	strh.w	r3, [r0, #134]	; 0x86
 800470a:	4604      	mov	r4, r0
 800470c:	6381      	str	r1, [r0, #56]	; 0x38
 800470e:	6833      	ldr	r3, [r6, #0]
 8004710:	6505      	str	r5, [r0, #80]	; 0x50
 8004712:	6346      	str	r6, [r0, #52]	; 0x34
 8004714:	4798      	blx	r3
 8004716:	4620      	mov	r0, r4
 8004718:	f7ff ffdc 	bl	80046d4 <u8g2_SetMaxClipWindow>
 800471c:	4620      	mov	r0, r4
 800471e:	f7ff fe65 	bl	80043ec <u8g2_SetFontPosBaseline>
 8004722:	f884 5066 	strb.w	r5, [r4, #102]	; 0x66
 8004726:	bd70      	pop	{r4, r5, r6, pc}

08004728 <u8x8_ascii_next>:
 8004728:	b119      	cbz	r1, 8004732 <u8x8_ascii_next+0xa>
 800472a:	290a      	cmp	r1, #10
 800472c:	d001      	beq.n	8004732 <u8x8_ascii_next+0xa>
 800472e:	b288      	uxth	r0, r1
 8004730:	4770      	bx	lr
 8004732:	f64f 70ff 	movw	r0, #65535	; 0xffff
 8004736:	4770      	bx	lr

08004738 <u8x8_utf8_init>:
 8004738:	2300      	movs	r3, #0
 800473a:	f880 3027 	strb.w	r3, [r0, #39]	; 0x27
 800473e:	4770      	bx	lr

08004740 <u8x8_byte_SendBytes>:
 8004740:	b410      	push	{r4}
 8004742:	6904      	ldr	r4, [r0, #16]
 8004744:	4613      	mov	r3, r2
 8004746:	46a4      	mov	ip, r4
 8004748:	460a      	mov	r2, r1
 800474a:	f85d 4b04 	ldr.w	r4, [sp], #4
 800474e:	2117      	movs	r1, #23
 8004750:	4760      	bx	ip

08004752 <u8x8_byte_SendByte>:
 8004752:	b507      	push	{r0, r1, r2, lr}
 8004754:	f88d 1007 	strb.w	r1, [sp, #7]
 8004758:	f10d 0207 	add.w	r2, sp, #7
 800475c:	2101      	movs	r1, #1
 800475e:	f7ff ffef 	bl	8004740 <u8x8_byte_SendBytes>
 8004762:	b003      	add	sp, #12
 8004764:	f85d fb04 	ldr.w	pc, [sp], #4

08004768 <u8x8_byte_StartTransfer>:
 8004768:	b410      	push	{r4}
 800476a:	6904      	ldr	r4, [r0, #16]
 800476c:	2300      	movs	r3, #0
 800476e:	46a4      	mov	ip, r4
 8004770:	461a      	mov	r2, r3
 8004772:	f85d 4b04 	ldr.w	r4, [sp], #4
 8004776:	2118      	movs	r1, #24
 8004778:	4760      	bx	ip

0800477a <u8x8_byte_EndTransfer>:
 800477a:	b410      	push	{r4}
 800477c:	6904      	ldr	r4, [r0, #16]
 800477e:	2300      	movs	r3, #0
 8004780:	46a4      	mov	ip, r4
 8004782:	461a      	mov	r2, r3
 8004784:	f85d 4b04 	ldr.w	r4, [sp], #4
 8004788:	2119      	movs	r1, #25
 800478a:	4760      	bx	ip

0800478c <u8x8_i2c_data_transfer>:
 800478c:	b573      	push	{r0, r1, r4, r5, r6, lr}
 800478e:	4604      	mov	r4, r0
 8004790:	460d      	mov	r5, r1
 8004792:	9201      	str	r2, [sp, #4]
 8004794:	f7ff ffe8 	bl	8004768 <u8x8_byte_StartTransfer>
 8004798:	2140      	movs	r1, #64	; 0x40
 800479a:	4620      	mov	r0, r4
 800479c:	f7ff ffd9 	bl	8004752 <u8x8_byte_SendByte>
 80047a0:	6926      	ldr	r6, [r4, #16]
 80047a2:	9b01      	ldr	r3, [sp, #4]
 80047a4:	462a      	mov	r2, r5
 80047a6:	2117      	movs	r1, #23
 80047a8:	4620      	mov	r0, r4
 80047aa:	47b0      	blx	r6
 80047ac:	4620      	mov	r0, r4
 80047ae:	b002      	add	sp, #8
 80047b0:	e8bd 4070 	ldmia.w	sp!, {r4, r5, r6, lr}
 80047b4:	f7ff bfe1 	b.w	800477a <u8x8_byte_EndTransfer>

080047b8 <u8x8_cad_SendCmd>:
 80047b8:	b410      	push	{r4}
 80047ba:	68c4      	ldr	r4, [r0, #12]
 80047bc:	460a      	mov	r2, r1
 80047be:	46a4      	mov	ip, r4
 80047c0:	2300      	movs	r3, #0
 80047c2:	f85d 4b04 	ldr.w	r4, [sp], #4
 80047c6:	2115      	movs	r1, #21
 80047c8:	4760      	bx	ip

080047ca <u8x8_cad_SendArg>:
 80047ca:	b410      	push	{r4}
 80047cc:	68c4      	ldr	r4, [r0, #12]
 80047ce:	460a      	mov	r2, r1
 80047d0:	46a4      	mov	ip, r4
 80047d2:	2300      	movs	r3, #0
 80047d4:	f85d 4b04 	ldr.w	r4, [sp], #4
 80047d8:	2116      	movs	r1, #22
 80047da:	4760      	bx	ip

080047dc <u8x8_cad_SendData>:
 80047dc:	b410      	push	{r4}
 80047de:	68c4      	ldr	r4, [r0, #12]
 80047e0:	4613      	mov	r3, r2
 80047e2:	46a4      	mov	ip, r4
 80047e4:	460a      	mov	r2, r1
 80047e6:	f85d 4b04 	ldr.w	r4, [sp], #4
 80047ea:	2117      	movs	r1, #23
 80047ec:	4760      	bx	ip

080047ee <u8x8_cad_StartTransfer>:
 80047ee:	b410      	push	{r4}
 80047f0:	68c4      	ldr	r4, [r0, #12]
 80047f2:	2300      	movs	r3, #0
 80047f4:	46a4      	mov	ip, r4
 80047f6:	461a      	mov	r2, r3
 80047f8:	f85d 4b04 	ldr.w	r4, [sp], #4
 80047fc:	2118      	movs	r1, #24
 80047fe:	4760      	bx	ip

08004800 <u8x8_cad_EndTransfer>:
 8004800:	b410      	push	{r4}
 8004802:	68c4      	ldr	r4, [r0, #12]
 8004804:	2300      	movs	r3, #0
 8004806:	46a4      	mov	ip, r4
 8004808:	461a      	mov	r2, r3
 800480a:	f85d 4b04 	ldr.w	r4, [sp], #4
 800480e:	2119      	movs	r1, #25
 8004810:	4760      	bx	ip

08004812 <u8x8_cad_SendSequence>:
 8004812:	b573      	push	{r0, r1, r4, r5, r6, lr}
 8004814:	4605      	mov	r5, r0
 8004816:	460c      	mov	r4, r1
 8004818:	7821      	ldrb	r1, [r4, #0]
 800481a:	2919      	cmp	r1, #25
 800481c:	d80d      	bhi.n	800483a <u8x8_cad_SendSequence+0x28>
 800481e:	2917      	cmp	r1, #23
 8004820:	d819      	bhi.n	8004856 <u8x8_cad_SendSequence+0x44>
 8004822:	d00e      	beq.n	8004842 <u8x8_cad_SendSequence+0x30>
 8004824:	2914      	cmp	r1, #20
 8004826:	d90a      	bls.n	800483e <u8x8_cad_SendSequence+0x2c>
 8004828:	7862      	ldrb	r2, [r4, #1]
 800482a:	68ee      	ldr	r6, [r5, #12]
 800482c:	f88d 2007 	strb.w	r2, [sp, #7]
 8004830:	2300      	movs	r3, #0
 8004832:	4628      	mov	r0, r5
 8004834:	47b0      	blx	r6
 8004836:	3402      	adds	r4, #2
 8004838:	e7ee      	b.n	8004818 <u8x8_cad_SendSequence+0x6>
 800483a:	29fe      	cmp	r1, #254	; 0xfe
 800483c:	d012      	beq.n	8004864 <u8x8_cad_SendSequence+0x52>
 800483e:	b002      	add	sp, #8
 8004840:	bd70      	pop	{r4, r5, r6, pc}
 8004842:	7863      	ldrb	r3, [r4, #1]
 8004844:	f88d 3007 	strb.w	r3, [sp, #7]
 8004848:	f10d 0207 	add.w	r2, sp, #7
 800484c:	2101      	movs	r1, #1
 800484e:	4628      	mov	r0, r5
 8004850:	f7ff ffc4 	bl	80047dc <u8x8_cad_SendData>
 8004854:	e7ef      	b.n	8004836 <u8x8_cad_SendSequence+0x24>
 8004856:	2300      	movs	r3, #0
 8004858:	68ee      	ldr	r6, [r5, #12]
 800485a:	461a      	mov	r2, r3
 800485c:	4628      	mov	r0, r5
 800485e:	3401      	adds	r4, #1
 8004860:	47b0      	blx	r6
 8004862:	e7d9      	b.n	8004818 <u8x8_cad_SendSequence+0x6>
 8004864:	7862      	ldrb	r2, [r4, #1]
 8004866:	f88d 2007 	strb.w	r2, [sp, #7]
 800486a:	2129      	movs	r1, #41	; 0x29
 800486c:	4628      	mov	r0, r5
 800486e:	f000 f942 	bl	8004af6 <u8x8_gpio_call>
 8004872:	e7e0      	b.n	8004836 <u8x8_cad_SendSequence+0x24>

08004874 <u8x8_cad_ssd13xx_fast_i2c>:
 8004874:	b573      	push	{r0, r1, r4, r5, r6, lr}
 8004876:	3914      	subs	r1, #20
 8004878:	4615      	mov	r5, r2
 800487a:	4604      	mov	r4, r0
 800487c:	461a      	mov	r2, r3
 800487e:	2905      	cmp	r1, #5
 8004880:	d853      	bhi.n	800492a <u8x8_cad_ssd13xx_fast_i2c+0xb6>
 8004882:	e8df f001 	tbb	[pc, r1]
 8004886:	0336      	.short	0x0336
 8004888:	4a461c17 	.word	0x4a461c17
 800488c:	4e28      	ldr	r6, [pc, #160]	; (8004930 <u8x8_cad_ssd13xx_fast_i2c+0xbc>)
 800488e:	7832      	ldrb	r2, [r6, #0]
 8004890:	b10a      	cbz	r2, 8004896 <u8x8_cad_ssd13xx_fast_i2c+0x22>
 8004892:	f7ff ff72 	bl	800477a <u8x8_byte_EndTransfer>
 8004896:	4620      	mov	r0, r4
 8004898:	f7ff ff66 	bl	8004768 <u8x8_byte_StartTransfer>
 800489c:	2100      	movs	r1, #0
 800489e:	4620      	mov	r0, r4
 80048a0:	f7ff ff57 	bl	8004752 <u8x8_byte_SendByte>
 80048a4:	4629      	mov	r1, r5
 80048a6:	4620      	mov	r0, r4
 80048a8:	f7ff ff53 	bl	8004752 <u8x8_byte_SendByte>
 80048ac:	2001      	movs	r0, #1
 80048ae:	7030      	strb	r0, [r6, #0]
 80048b0:	b002      	add	sp, #8
 80048b2:	bd70      	pop	{r4, r5, r6, pc}
 80048b4:	4629      	mov	r1, r5
 80048b6:	f7ff ff4c 	bl	8004752 <u8x8_byte_SendByte>
 80048ba:	2001      	movs	r0, #1
 80048bc:	e7f8      	b.n	80048b0 <u8x8_cad_ssd13xx_fast_i2c+0x3c>
 80048be:	4e1c      	ldr	r6, [pc, #112]	; (8004930 <u8x8_cad_ssd13xx_fast_i2c+0xbc>)
 80048c0:	7831      	ldrb	r1, [r6, #0]
 80048c2:	b119      	cbz	r1, 80048cc <u8x8_cad_ssd13xx_fast_i2c+0x58>
 80048c4:	9201      	str	r2, [sp, #4]
 80048c6:	f7ff ff58 	bl	800477a <u8x8_byte_EndTransfer>
 80048ca:	9a01      	ldr	r2, [sp, #4]
 80048cc:	2d18      	cmp	r5, #24
 80048ce:	d806      	bhi.n	80048de <u8x8_cad_ssd13xx_fast_i2c+0x6a>
 80048d0:	4629      	mov	r1, r5
 80048d2:	4620      	mov	r0, r4
 80048d4:	f7ff ff5a 	bl	800478c <u8x8_i2c_data_transfer>
 80048d8:	2300      	movs	r3, #0
 80048da:	7033      	strb	r3, [r6, #0]
 80048dc:	e7ed      	b.n	80048ba <u8x8_cad_ssd13xx_fast_i2c+0x46>
 80048de:	2118      	movs	r1, #24
 80048e0:	4620      	mov	r0, r4
 80048e2:	9201      	str	r2, [sp, #4]
 80048e4:	f7ff ff52 	bl	800478c <u8x8_i2c_data_transfer>
 80048e8:	9a01      	ldr	r2, [sp, #4]
 80048ea:	3d18      	subs	r5, #24
 80048ec:	b2ed      	uxtb	r5, r5
 80048ee:	3218      	adds	r2, #24
 80048f0:	e7ec      	b.n	80048cc <u8x8_cad_ssd13xx_fast_i2c+0x58>
 80048f2:	f890 3024 	ldrb.w	r3, [r0, #36]	; 0x24
 80048f6:	6906      	ldr	r6, [r0, #16]
 80048f8:	2bff      	cmp	r3, #255	; 0xff
 80048fa:	bf04      	itt	eq
 80048fc:	2378      	moveq	r3, #120	; 0x78
 80048fe:	f880 3024 	strbeq.w	r3, [r0, #36]	; 0x24
 8004902:	2114      	movs	r1, #20
 8004904:	4613      	mov	r3, r2
 8004906:	46b4      	mov	ip, r6
 8004908:	462a      	mov	r2, r5
 800490a:	b002      	add	sp, #8
 800490c:	e8bd 4070 	ldmia.w	sp!, {r4, r5, r6, lr}
 8004910:	4760      	bx	ip
 8004912:	4b07      	ldr	r3, [pc, #28]	; (8004930 <u8x8_cad_ssd13xx_fast_i2c+0xbc>)
 8004914:	2200      	movs	r2, #0
 8004916:	701a      	strb	r2, [r3, #0]
 8004918:	e7cf      	b.n	80048ba <u8x8_cad_ssd13xx_fast_i2c+0x46>
 800491a:	4d05      	ldr	r5, [pc, #20]	; (8004930 <u8x8_cad_ssd13xx_fast_i2c+0xbc>)
 800491c:	782a      	ldrb	r2, [r5, #0]
 800491e:	b10a      	cbz	r2, 8004924 <u8x8_cad_ssd13xx_fast_i2c+0xb0>
 8004920:	f7ff ff2b 	bl	800477a <u8x8_byte_EndTransfer>
 8004924:	2300      	movs	r3, #0
 8004926:	702b      	strb	r3, [r5, #0]
 8004928:	e7c7      	b.n	80048ba <u8x8_cad_ssd13xx_fast_i2c+0x46>
 800492a:	2000      	movs	r0, #0
 800492c:	e7c0      	b.n	80048b0 <u8x8_cad_ssd13xx_fast_i2c+0x3c>
 800492e:	bf00      	nop
 8004930:	200009cd 	.word	0x200009cd

08004934 <u8x8_d_ssd1306_128x32_generic>:
 8004934:	390a      	subs	r1, #10
 8004936:	b5f8      	push	{r3, r4, r5, r6, r7, lr}
 8004938:	4604      	mov	r4, r0
 800493a:	4615      	mov	r5, r2
 800493c:	461e      	mov	r6, r3
 800493e:	2905      	cmp	r1, #5
 8004940:	d856      	bhi.n	80049f0 <u8x8_d_ssd1306_128x32_generic+0xbc>
 8004942:	e8df f001 	tbb	[pc, r1]
 8004946:	0b03      	.short	0x0b03
 8004948:	2d1f1055 	.word	0x2d1f1055
 800494c:	f000 f86f 	bl	8004a2e <u8x8_d_helper_display_init>
 8004950:	4928      	ldr	r1, [pc, #160]	; (80049f4 <u8x8_d_ssd1306_128x32_generic+0xc0>)
 8004952:	4620      	mov	r0, r4
 8004954:	f7ff ff5d 	bl	8004812 <u8x8_cad_SendSequence>
 8004958:	2001      	movs	r0, #1
 800495a:	bdf8      	pop	{r3, r4, r5, r6, r7, pc}
 800495c:	b90a      	cbnz	r2, 8004962 <u8x8_d_ssd1306_128x32_generic+0x2e>
 800495e:	4926      	ldr	r1, [pc, #152]	; (80049f8 <u8x8_d_ssd1306_128x32_generic+0xc4>)
 8004960:	e7f7      	b.n	8004952 <u8x8_d_ssd1306_128x32_generic+0x1e>
 8004962:	4926      	ldr	r1, [pc, #152]	; (80049fc <u8x8_d_ssd1306_128x32_generic+0xc8>)
 8004964:	e7f5      	b.n	8004952 <u8x8_d_ssd1306_128x32_generic+0x1e>
 8004966:	b93a      	cbnz	r2, 8004978 <u8x8_d_ssd1306_128x32_generic+0x44>
 8004968:	4925      	ldr	r1, [pc, #148]	; (8004a00 <u8x8_d_ssd1306_128x32_generic+0xcc>)
 800496a:	f7ff ff52 	bl	8004812 <u8x8_cad_SendSequence>
 800496e:	6823      	ldr	r3, [r4, #0]
 8004970:	7c9b      	ldrb	r3, [r3, #18]
 8004972:	f884 3022 	strb.w	r3, [r4, #34]	; 0x22
 8004976:	e7ef      	b.n	8004958 <u8x8_d_ssd1306_128x32_generic+0x24>
 8004978:	4922      	ldr	r1, [pc, #136]	; (8004a04 <u8x8_d_ssd1306_128x32_generic+0xd0>)
 800497a:	f7ff ff4a 	bl	8004812 <u8x8_cad_SendSequence>
 800497e:	6823      	ldr	r3, [r4, #0]
 8004980:	7cdb      	ldrb	r3, [r3, #19]
 8004982:	e7f6      	b.n	8004972 <u8x8_d_ssd1306_128x32_generic+0x3e>
 8004984:	f7ff ff33 	bl	80047ee <u8x8_cad_StartTransfer>
 8004988:	2181      	movs	r1, #129	; 0x81
 800498a:	4620      	mov	r0, r4
 800498c:	f7ff ff14 	bl	80047b8 <u8x8_cad_SendCmd>
 8004990:	4629      	mov	r1, r5
 8004992:	4620      	mov	r0, r4
 8004994:	f7ff ff19 	bl	80047ca <u8x8_cad_SendArg>
 8004998:	4620      	mov	r0, r4
 800499a:	f7ff ff31 	bl	8004800 <u8x8_cad_EndTransfer>
 800499e:	e7db      	b.n	8004958 <u8x8_d_ssd1306_128x32_generic+0x24>
 80049a0:	f7ff ff25 	bl	80047ee <u8x8_cad_StartTransfer>
 80049a4:	7973      	ldrb	r3, [r6, #5]
 80049a6:	f894 1022 	ldrb.w	r1, [r4, #34]	; 0x22
 80049aa:	eb01 01c3 	add.w	r1, r1, r3, lsl #3
 80049ae:	f001 07ff 	and.w	r7, r1, #255	; 0xff
 80049b2:	f3c1 1103 	ubfx	r1, r1, #4, #4
 80049b6:	f041 0110 	orr.w	r1, r1, #16
 80049ba:	4620      	mov	r0, r4
 80049bc:	f7ff fefc 	bl	80047b8 <u8x8_cad_SendCmd>
 80049c0:	f007 010f 	and.w	r1, r7, #15
 80049c4:	4620      	mov	r0, r4
 80049c6:	f7ff fef7 	bl	80047b8 <u8x8_cad_SendCmd>
 80049ca:	79b1      	ldrb	r1, [r6, #6]
 80049cc:	4620      	mov	r0, r4
 80049ce:	f041 01b0 	orr.w	r1, r1, #176	; 0xb0
 80049d2:	f7ff fef1 	bl	80047b8 <u8x8_cad_SendCmd>
 80049d6:	7931      	ldrb	r1, [r6, #4]
 80049d8:	6832      	ldr	r2, [r6, #0]
 80049da:	00c9      	lsls	r1, r1, #3
 80049dc:	f001 01f8 	and.w	r1, r1, #248	; 0xf8
 80049e0:	4620      	mov	r0, r4
 80049e2:	3d01      	subs	r5, #1
 80049e4:	f7ff fefa 	bl	80047dc <u8x8_cad_SendData>
 80049e8:	f015 05ff 	ands.w	r5, r5, #255	; 0xff
 80049ec:	d1f3      	bne.n	80049d6 <u8x8_d_ssd1306_128x32_generic+0xa2>
 80049ee:	e7d3      	b.n	8004998 <u8x8_d_ssd1306_128x32_generic+0x64>
 80049f0:	2000      	movs	r0, #0
 80049f2:	e7b2      	b.n	800495a <u8x8_d_ssd1306_128x32_generic+0x26>
 80049f4:	0800fcda 	.word	0x0800fcda
 80049f8:	0800fd0f 	.word	0x0800fd0f
 80049fc:	0800fd14 	.word	0x0800fd14
 8004a00:	0800fccc 	.word	0x0800fccc
 8004a04:	0800fcd3 	.word	0x0800fcd3

08004a08 <u8x8_d_ssd1306_128x32_univision>:
 8004a08:	2909      	cmp	r1, #9
 8004a0a:	b510      	push	{r4, lr}
 8004a0c:	d003      	beq.n	8004a16 <u8x8_d_ssd1306_128x32_univision+0xe>
 8004a0e:	e8bd 4010 	ldmia.w	sp!, {r4, lr}
 8004a12:	f7ff bf8f 	b.w	8004934 <u8x8_d_ssd1306_128x32_generic>
 8004a16:	4902      	ldr	r1, [pc, #8]	; (8004a20 <u8x8_d_ssd1306_128x32_univision+0x18>)
 8004a18:	f000 f804 	bl	8004a24 <u8x8_d_helper_display_setup_memory>
 8004a1c:	2001      	movs	r0, #1
 8004a1e:	bd10      	pop	{r4, pc}
 8004a20:	0800fd1c 	.word	0x0800fd1c

08004a24 <u8x8_d_helper_display_setup_memory>:
 8004a24:	6001      	str	r1, [r0, #0]
 8004a26:	7c8b      	ldrb	r3, [r1, #18]
 8004a28:	f880 3022 	strb.w	r3, [r0, #34]	; 0x22
 8004a2c:	4770      	bx	lr

08004a2e <u8x8_d_helper_display_init>:
 8004a2e:	b538      	push	{r3, r4, r5, lr}
 8004a30:	2300      	movs	r3, #0
 8004a32:	4604      	mov	r4, r0
 8004a34:	461a      	mov	r2, r3
 8004a36:	6945      	ldr	r5, [r0, #20]
 8004a38:	2128      	movs	r1, #40	; 0x28
 8004a3a:	47a8      	blx	r5
 8004a3c:	2300      	movs	r3, #0
 8004a3e:	461a      	mov	r2, r3
 8004a40:	68e5      	ldr	r5, [r4, #12]
 8004a42:	2114      	movs	r1, #20
 8004a44:	4620      	mov	r0, r4
 8004a46:	47a8      	blx	r5
 8004a48:	4620      	mov	r0, r4
 8004a4a:	2201      	movs	r2, #1
 8004a4c:	214b      	movs	r1, #75	; 0x4b
 8004a4e:	f000 f852 	bl	8004af6 <u8x8_gpio_call>
 8004a52:	6823      	ldr	r3, [r4, #0]
 8004a54:	4620      	mov	r0, r4
 8004a56:	791a      	ldrb	r2, [r3, #4]
 8004a58:	2129      	movs	r1, #41	; 0x29
 8004a5a:	f000 f84c 	bl	8004af6 <u8x8_gpio_call>
 8004a5e:	4620      	mov	r0, r4
 8004a60:	2200      	movs	r2, #0
 8004a62:	214b      	movs	r1, #75	; 0x4b
 8004a64:	f000 f847 	bl	8004af6 <u8x8_gpio_call>
 8004a68:	6823      	ldr	r3, [r4, #0]
 8004a6a:	4620      	mov	r0, r4
 8004a6c:	791a      	ldrb	r2, [r3, #4]
 8004a6e:	2129      	movs	r1, #41	; 0x29
 8004a70:	f000 f841 	bl	8004af6 <u8x8_gpio_call>
 8004a74:	4620      	mov	r0, r4
 8004a76:	2201      	movs	r2, #1
 8004a78:	214b      	movs	r1, #75	; 0x4b
 8004a7a:	f000 f83c 	bl	8004af6 <u8x8_gpio_call>
 8004a7e:	6823      	ldr	r3, [r4, #0]
 8004a80:	4620      	mov	r0, r4
 8004a82:	795a      	ldrb	r2, [r3, #5]
 8004a84:	2129      	movs	r1, #41	; 0x29
 8004a86:	e8bd 4038 	ldmia.w	sp!, {r3, r4, r5, lr}
 8004a8a:	f000 b834 	b.w	8004af6 <u8x8_gpio_call>

08004a8e <u8x8_DrawTile>:
 8004a8e:	b513      	push	{r0, r1, r4, lr}
 8004a90:	f88d 3004 	strb.w	r3, [sp, #4]
 8004a94:	9b04      	ldr	r3, [sp, #16]
 8004a96:	f88d 1005 	strb.w	r1, [sp, #5]
 8004a9a:	f88d 2006 	strb.w	r2, [sp, #6]
 8004a9e:	9300      	str	r3, [sp, #0]
 8004aa0:	6884      	ldr	r4, [r0, #8]
 8004aa2:	466b      	mov	r3, sp
 8004aa4:	2201      	movs	r2, #1
 8004aa6:	210f      	movs	r1, #15
 8004aa8:	47a0      	blx	r4
 8004aaa:	b002      	add	sp, #8
 8004aac:	bd10      	pop	{r4, pc}

08004aae <u8x8_SetupMemory>:
 8004aae:	b410      	push	{r4}
 8004ab0:	6884      	ldr	r4, [r0, #8]
 8004ab2:	2300      	movs	r3, #0
 8004ab4:	46a4      	mov	ip, r4
 8004ab6:	461a      	mov	r2, r3
 8004ab8:	f85d 4b04 	ldr.w	r4, [sp], #4
 8004abc:	2109      	movs	r1, #9
 8004abe:	4760      	bx	ip

08004ac0 <u8x8_InitDisplay>:
 8004ac0:	b410      	push	{r4}
 8004ac2:	6884      	ldr	r4, [r0, #8]
 8004ac4:	2300      	movs	r3, #0
 8004ac6:	46a4      	mov	ip, r4
 8004ac8:	461a      	mov	r2, r3
 8004aca:	f85d 4b04 	ldr.w	r4, [sp], #4
 8004ace:	210a      	movs	r1, #10
 8004ad0:	4760      	bx	ip

08004ad2 <u8x8_SetPowerSave>:
 8004ad2:	b410      	push	{r4}
 8004ad4:	6884      	ldr	r4, [r0, #8]
 8004ad6:	460a      	mov	r2, r1
 8004ad8:	46a4      	mov	ip, r4
 8004ada:	2300      	movs	r3, #0
 8004adc:	f85d 4b04 	ldr.w	r4, [sp], #4
 8004ae0:	210b      	movs	r1, #11
 8004ae2:	4760      	bx	ip

08004ae4 <u8x8_RefreshDisplay>:
 8004ae4:	b410      	push	{r4}
 8004ae6:	6884      	ldr	r4, [r0, #8]
 8004ae8:	2300      	movs	r3, #0
 8004aea:	46a4      	mov	ip, r4
 8004aec:	461a      	mov	r2, r3
 8004aee:	f85d 4b04 	ldr.w	r4, [sp], #4
 8004af2:	2110      	movs	r1, #16
 8004af4:	4760      	bx	ip

08004af6 <u8x8_gpio_call>:
 8004af6:	b410      	push	{r4}
 8004af8:	6944      	ldr	r4, [r0, #20]
 8004afa:	2300      	movs	r3, #0
 8004afc:	46a4      	mov	ip, r4
 8004afe:	f85d 4b04 	ldr.w	r4, [sp], #4
 8004b02:	4760      	bx	ip

08004b04 <u8x8_dummy_cb>:
 8004b04:	2000      	movs	r0, #0
 8004b06:	4770      	bx	lr

08004b08 <u8x8_SetupDefaults>:
 8004b08:	2300      	movs	r3, #0
 8004b0a:	4a08      	ldr	r2, [pc, #32]	; (8004b2c <u8x8_SetupDefaults+0x24>)
 8004b0c:	6003      	str	r3, [r0, #0]
 8004b0e:	f880 3023 	strb.w	r3, [r0, #35]	; 0x23
 8004b12:	84c3      	strh	r3, [r0, #38]	; 0x26
 8004b14:	6183      	str	r3, [r0, #24]
 8004b16:	23ff      	movs	r3, #255	; 0xff
 8004b18:	e9c0 2202 	strd	r2, r2, [r0, #8]
 8004b1c:	e9c0 2204 	strd	r2, r2, [r0, #16]
 8004b20:	f880 3024 	strb.w	r3, [r0, #36]	; 0x24
 8004b24:	f880 3029 	strb.w	r3, [r0, #41]	; 0x29
 8004b28:	4770      	bx	lr
 8004b2a:	bf00      	nop
 8004b2c:	08004b05 	.word	0x08004b05

08004b30 <u8x8_Setup>:
 8004b30:	b5f8      	push	{r3, r4, r5, r6, r7, lr}
 8004b32:	9f06      	ldr	r7, [sp, #24]
 8004b34:	4616      	mov	r6, r2
 8004b36:	461d      	mov	r5, r3
 8004b38:	f7ff ffe6 	bl	8004b08 <u8x8_SetupDefaults>
 8004b3c:	e9c0 1602 	strd	r1, r6, [r0, #8]
 8004b40:	e9c0 5704 	strd	r5, r7, [r0, #16]
 8004b44:	e8bd 40f8 	ldmia.w	sp!, {r3, r4, r5, r6, r7, lr}
 8004b48:	f7ff bfb1 	b.w	8004aae <u8x8_SetupMemory>

08004b4c <MX_DMA_Init>:
 8004b4c:	4b12      	ldr	r3, [pc, #72]	; (8004b98 <MX_DMA_Init+0x4c>)
 8004b4e:	b507      	push	{r0, r1, r2, lr}
 8004b50:	6c9a      	ldr	r2, [r3, #72]	; 0x48
 8004b52:	f042 0201 	orr.w	r2, r2, #1
 8004b56:	649a      	str	r2, [r3, #72]	; 0x48
 8004b58:	6c9b      	ldr	r3, [r3, #72]	; 0x48
 8004b5a:	2200      	movs	r2, #0
 8004b5c:	f003 0301 	and.w	r3, r3, #1
 8004b60:	4611      	mov	r1, r2
 8004b62:	9301      	str	r3, [sp, #4]
 8004b64:	200d      	movs	r0, #13
 8004b66:	9b01      	ldr	r3, [sp, #4]
 8004b68:	f001 f9a4 	bl	8005eb4 <HAL_NVIC_SetPriority>
 8004b6c:	200d      	movs	r0, #13
 8004b6e:	f001 f9d3 	bl	8005f18 <HAL_NVIC_EnableIRQ>
 8004b72:	2200      	movs	r2, #0
 8004b74:	4611      	mov	r1, r2
 8004b76:	200f      	movs	r0, #15
 8004b78:	f001 f99c 	bl	8005eb4 <HAL_NVIC_SetPriority>
 8004b7c:	200f      	movs	r0, #15
 8004b7e:	f001 f9cb 	bl	8005f18 <HAL_NVIC_EnableIRQ>
 8004b82:	2200      	movs	r2, #0
 8004b84:	4611      	mov	r1, r2
 8004b86:	2010      	movs	r0, #16
 8004b88:	f001 f994 	bl	8005eb4 <HAL_NVIC_SetPriority>
 8004b8c:	2010      	movs	r0, #16
 8004b8e:	b003      	add	sp, #12
 8004b90:	f85d eb04 	ldr.w	lr, [sp], #4
 8004b94:	f001 b9c0 	b.w	8005f18 <HAL_NVIC_EnableIRQ>
 8004b98:	40021000 	.word	0x40021000

08004b9c <MX_GPIO_Init>:
 8004b9c:	e92d 41f0 	stmdb	sp!, {r4, r5, r6, r7, r8, lr}
 8004ba0:	2214      	movs	r2, #20
 8004ba2:	b08a      	sub	sp, #40	; 0x28
 8004ba4:	eb0d 0002 	add.w	r0, sp, r2
 8004ba8:	2100      	movs	r1, #0
 8004baa:	f006 fcb5 	bl	800b518 <memset>
 8004bae:	4b54      	ldr	r3, [pc, #336]	; (8004d00 <MX_GPIO_Init+0x164>)
 8004bb0:	f8df 8158 	ldr.w	r8, [pc, #344]	; 8004d0c <MX_GPIO_Init+0x170>
 8004bb4:	6cda      	ldr	r2, [r3, #76]	; 0x4c
 8004bb6:	4e53      	ldr	r6, [pc, #332]	; (8004d04 <MX_GPIO_Init+0x168>)
 8004bb8:	f042 0204 	orr.w	r2, r2, #4
 8004bbc:	64da      	str	r2, [r3, #76]	; 0x4c
 8004bbe:	6cda      	ldr	r2, [r3, #76]	; 0x4c
 8004bc0:	f002 0204 	and.w	r2, r2, #4
 8004bc4:	9201      	str	r2, [sp, #4]
 8004bc6:	9a01      	ldr	r2, [sp, #4]
 8004bc8:	6cda      	ldr	r2, [r3, #76]	; 0x4c
 8004bca:	f042 0280 	orr.w	r2, r2, #128	; 0x80
 8004bce:	64da      	str	r2, [r3, #76]	; 0x4c
 8004bd0:	6cda      	ldr	r2, [r3, #76]	; 0x4c
 8004bd2:	f002 0280 	and.w	r2, r2, #128	; 0x80
 8004bd6:	9202      	str	r2, [sp, #8]
 8004bd8:	9a02      	ldr	r2, [sp, #8]
 8004bda:	6cda      	ldr	r2, [r3, #76]	; 0x4c
 8004bdc:	f042 0201 	orr.w	r2, r2, #1
 8004be0:	64da      	str	r2, [r3, #76]	; 0x4c
 8004be2:	6cda      	ldr	r2, [r3, #76]	; 0x4c
 8004be4:	f002 0201 	and.w	r2, r2, #1
 8004be8:	9203      	str	r2, [sp, #12]
 8004bea:	9a03      	ldr	r2, [sp, #12]
 8004bec:	6cda      	ldr	r2, [r3, #76]	; 0x4c
 8004bee:	f042 0202 	orr.w	r2, r2, #2
 8004bf2:	64da      	str	r2, [r3, #76]	; 0x4c
 8004bf4:	6cdb      	ldr	r3, [r3, #76]	; 0x4c
 8004bf6:	f003 0302 	and.w	r3, r3, #2
 8004bfa:	9304      	str	r3, [sp, #16]
 8004bfc:	4640      	mov	r0, r8
 8004bfe:	2200      	movs	r2, #0
 8004c00:	f44f 5100 	mov.w	r1, #8192	; 0x2000
 8004c04:	9b04      	ldr	r3, [sp, #16]
 8004c06:	f001 fc2d 	bl	8006464 <HAL_GPIO_WritePin>
 8004c0a:	2200      	movs	r2, #0
 8004c0c:	f44f 71c4 	mov.w	r1, #392	; 0x188
 8004c10:	f04f 4090 	mov.w	r0, #1207959552	; 0x48000000
 8004c14:	f001 fc26 	bl	8006464 <HAL_GPIO_WritePin>
 8004c18:	4630      	mov	r0, r6
 8004c1a:	2200      	movs	r2, #0
 8004c1c:	f248 013d 	movw	r1, #32829	; 0x803d
 8004c20:	f001 fc20 	bl	8006464 <HAL_GPIO_WritePin>
 8004c24:	2201      	movs	r2, #1
 8004c26:	4630      	mov	r0, r6
 8004c28:	f241 0102 	movw	r1, #4098	; 0x1002
 8004c2c:	f001 fc1a 	bl	8006464 <HAL_GPIO_WritePin>
 8004c30:	2400      	movs	r4, #0
 8004c32:	2501      	movs	r5, #1
 8004c34:	2702      	movs	r7, #2
 8004c36:	f44f 5300 	mov.w	r3, #8192	; 0x2000
 8004c3a:	a905      	add	r1, sp, #20
 8004c3c:	4640      	mov	r0, r8
 8004c3e:	e9cd 3505 	strd	r3, r5, [sp, #20]
 8004c42:	f04f 0803 	mov.w	r8, #3
 8004c46:	e9cd 7407 	strd	r7, r4, [sp, #28]
 8004c4a:	f001 fac5 	bl	80061d8 <HAL_GPIO_Init>
 8004c4e:	2333      	movs	r3, #51	; 0x33
 8004c50:	a905      	add	r1, sp, #20
 8004c52:	f04f 4090 	mov.w	r0, #1207959552	; 0x48000000
 8004c56:	e9cd 3805 	strd	r3, r8, [sp, #20]
 8004c5a:	9407      	str	r4, [sp, #28]
 8004c5c:	f001 fabc 	bl	80061d8 <HAL_GPIO_Init>
 8004c60:	2388      	movs	r3, #136	; 0x88
 8004c62:	a905      	add	r1, sp, #20
 8004c64:	f04f 4090 	mov.w	r0, #1207959552	; 0x48000000
 8004c68:	e9cd 3505 	strd	r3, r5, [sp, #20]
 8004c6c:	e9cd 4407 	strd	r4, r4, [sp, #28]
 8004c70:	f001 fab2 	bl	80061d8 <HAL_GPIO_Init>
 8004c74:	2305      	movs	r3, #5
 8004c76:	a905      	add	r1, sp, #20
 8004c78:	4630      	mov	r0, r6
 8004c7a:	e9cd 3505 	strd	r3, r5, [sp, #20]
 8004c7e:	e9cd 7407 	strd	r7, r4, [sp, #28]
 8004c82:	f001 faa9 	bl	80061d8 <HAL_GPIO_Init>
 8004c86:	f241 0302 	movw	r3, #4098	; 0x1002
 8004c8a:	a905      	add	r1, sp, #20
 8004c8c:	4630      	mov	r0, r6
 8004c8e:	e9cd 3505 	strd	r3, r5, [sp, #20]
 8004c92:	e9cd 5407 	strd	r5, r4, [sp, #28]
 8004c96:	f001 fa9f 	bl	80061d8 <HAL_GPIO_Init>
 8004c9a:	f248 0318 	movw	r3, #32792	; 0x8018
 8004c9e:	a905      	add	r1, sp, #20
 8004ca0:	4630      	mov	r0, r6
 8004ca2:	e9cd 3505 	strd	r3, r5, [sp, #20]
 8004ca6:	e9cd 4407 	strd	r4, r4, [sp, #28]
 8004caa:	f001 fa95 	bl	80061d8 <HAL_GPIO_Init>
 8004cae:	f44f 7380 	mov.w	r3, #256	; 0x100
 8004cb2:	a905      	add	r1, sp, #20
 8004cb4:	f04f 4090 	mov.w	r0, #1207959552	; 0x48000000
 8004cb8:	e9cd 3505 	strd	r3, r5, [sp, #20]
 8004cbc:	e9cd 7407 	strd	r7, r4, [sp, #28]
 8004cc0:	f001 fa8a 	bl	80061d8 <HAL_GPIO_Init>
 8004cc4:	2320      	movs	r3, #32
 8004cc6:	a905      	add	r1, sp, #20
 8004cc8:	4630      	mov	r0, r6
 8004cca:	e9cd 3505 	strd	r3, r5, [sp, #20]
 8004cce:	e9cd 4707 	strd	r4, r7, [sp, #28]
 8004cd2:	f001 fa81 	bl	80061d8 <HAL_GPIO_Init>
 8004cd6:	2308      	movs	r3, #8
 8004cd8:	a905      	add	r1, sp, #20
 8004cda:	480b      	ldr	r0, [pc, #44]	; (8004d08 <MX_GPIO_Init+0x16c>)
 8004cdc:	9407      	str	r4, [sp, #28]
 8004cde:	e9cd 3805 	strd	r3, r8, [sp, #20]
 8004ce2:	f001 fa79 	bl	80061d8 <HAL_GPIO_Init>
 8004ce6:	f44f 7340 	mov.w	r3, #768	; 0x300
 8004cea:	a905      	add	r1, sp, #20
 8004cec:	4630      	mov	r0, r6
 8004cee:	e9cd 3405 	strd	r3, r4, [sp, #20]
 8004cf2:	9507      	str	r5, [sp, #28]
 8004cf4:	f001 fa70 	bl	80061d8 <HAL_GPIO_Init>
 8004cf8:	b00a      	add	sp, #40	; 0x28
 8004cfa:	e8bd 81f0 	ldmia.w	sp!, {r4, r5, r6, r7, r8, pc}
 8004cfe:	bf00      	nop
 8004d00:	40021000 	.word	0x40021000
 8004d04:	48000400 	.word	0x48000400
 8004d08:	48001c00 	.word	0x48001c00
 8004d0c:	48000800 	.word	0x48000800

08004d10 <MX_I2C1_Init>:
 8004d10:	b508      	push	{r3, lr}
 8004d12:	4812      	ldr	r0, [pc, #72]	; (8004d5c <MX_I2C1_Init+0x4c>)
 8004d14:	4a12      	ldr	r2, [pc, #72]	; (8004d60 <MX_I2C1_Init+0x50>)
 8004d16:	4b13      	ldr	r3, [pc, #76]	; (8004d64 <MX_I2C1_Init+0x54>)
 8004d18:	e9c0 2300 	strd	r2, r3, [r0]
 8004d1c:	2300      	movs	r3, #0
 8004d1e:	2201      	movs	r2, #1
 8004d20:	e9c0 3202 	strd	r3, r2, [r0, #8]
 8004d24:	e9c0 3304 	strd	r3, r3, [r0, #16]
 8004d28:	e9c0 3306 	strd	r3, r3, [r0, #24]
 8004d2c:	6203      	str	r3, [r0, #32]
 8004d2e:	f001 fcab 	bl	8006688 <HAL_I2C_Init>
 8004d32:	b108      	cbz	r0, 8004d38 <MX_I2C1_Init+0x28>
 8004d34:	f000 fd2e 	bl	8005794 <Error_Handler>
 8004d38:	4808      	ldr	r0, [pc, #32]	; (8004d5c <MX_I2C1_Init+0x4c>)
 8004d3a:	2100      	movs	r1, #0
 8004d3c:	f001 fe48 	bl	80069d0 <HAL_I2CEx_ConfigAnalogFilter>
 8004d40:	b108      	cbz	r0, 8004d46 <MX_I2C1_Init+0x36>
 8004d42:	f000 fd27 	bl	8005794 <Error_Handler>
 8004d46:	4805      	ldr	r0, [pc, #20]	; (8004d5c <MX_I2C1_Init+0x4c>)
 8004d48:	2100      	movs	r1, #0
 8004d4a:	f001 fe67 	bl	8006a1c <HAL_I2CEx_ConfigDigitalFilter>
 8004d4e:	b118      	cbz	r0, 8004d58 <MX_I2C1_Init+0x48>
 8004d50:	e8bd 4008 	ldmia.w	sp!, {r3, lr}
 8004d54:	f000 bd1e 	b.w	8005794 <Error_Handler>
 8004d58:	bd08      	pop	{r3, pc}
 8004d5a:	bf00      	nop
 8004d5c:	20000f70 	.word	0x20000f70
 8004d60:	40005400 	.word	0x40005400
 8004d64:	00303d5b 	.word	0x00303d5b

08004d68 <MX_I2C2_Init>:
 8004d68:	b508      	push	{r3, lr}
 8004d6a:	4812      	ldr	r0, [pc, #72]	; (8004db4 <MX_I2C2_Init+0x4c>)
 8004d6c:	4a12      	ldr	r2, [pc, #72]	; (8004db8 <MX_I2C2_Init+0x50>)
 8004d6e:	4b13      	ldr	r3, [pc, #76]	; (8004dbc <MX_I2C2_Init+0x54>)
 8004d70:	e9c0 2300 	strd	r2, r3, [r0]
 8004d74:	2300      	movs	r3, #0
 8004d76:	2201      	movs	r2, #1
 8004d78:	e9c0 3202 	strd	r3, r2, [r0, #8]
 8004d7c:	e9c0 3304 	strd	r3, r3, [r0, #16]
 8004d80:	e9c0 3306 	strd	r3, r3, [r0, #24]
 8004d84:	6203      	str	r3, [r0, #32]
 8004d86:	f001 fc7f 	bl	8006688 <HAL_I2C_Init>
 8004d8a:	b108      	cbz	r0, 8004d90 <MX_I2C2_Init+0x28>
 8004d8c:	f000 fd02 	bl	8005794 <Error_Handler>
 8004d90:	4808      	ldr	r0, [pc, #32]	; (8004db4 <MX_I2C2_Init+0x4c>)
 8004d92:	2100      	movs	r1, #0
 8004d94:	f001 fe1c 	bl	80069d0 <HAL_I2CEx_ConfigAnalogFilter>
 8004d98:	b108      	cbz	r0, 8004d9e <MX_I2C2_Init+0x36>
 8004d9a:	f000 fcfb 	bl	8005794 <Error_Handler>
 8004d9e:	4805      	ldr	r0, [pc, #20]	; (8004db4 <MX_I2C2_Init+0x4c>)
 8004da0:	2100      	movs	r1, #0
 8004da2:	f001 fe3b 	bl	8006a1c <HAL_I2CEx_ConfigDigitalFilter>
 8004da6:	b118      	cbz	r0, 8004db0 <MX_I2C2_Init+0x48>
 8004da8:	e8bd 4008 	ldmia.w	sp!, {r3, lr}
 8004dac:	f000 bcf2 	b.w	8005794 <Error_Handler>
 8004db0:	bd08      	pop	{r3, pc}
 8004db2:	bf00      	nop
 8004db4:	20000f24 	.word	0x20000f24
 8004db8:	40005800 	.word	0x40005800
 8004dbc:	0010061a 	.word	0x0010061a

08004dc0 <HAL_I2C_MspInit>:
 8004dc0:	b510      	push	{r4, lr}
 8004dc2:	2214      	movs	r2, #20
 8004dc4:	b08a      	sub	sp, #40	; 0x28
 8004dc6:	4604      	mov	r4, r0
 8004dc8:	2100      	movs	r1, #0
 8004dca:	eb0d 0002 	add.w	r0, sp, r2
 8004dce:	f006 fba3 	bl	800b518 <memset>
 8004dd2:	6823      	ldr	r3, [r4, #0]
 8004dd4:	4a26      	ldr	r2, [pc, #152]	; (8004e70 <HAL_I2C_MspInit+0xb0>)
 8004dd6:	4293      	cmp	r3, r2
 8004dd8:	d123      	bne.n	8004e22 <HAL_I2C_MspInit+0x62>
 8004dda:	4c26      	ldr	r4, [pc, #152]	; (8004e74 <HAL_I2C_MspInit+0xb4>)
 8004ddc:	6ce3      	ldr	r3, [r4, #76]	; 0x4c
 8004dde:	f043 0302 	orr.w	r3, r3, #2
 8004de2:	64e3      	str	r3, [r4, #76]	; 0x4c
 8004de4:	6ce3      	ldr	r3, [r4, #76]	; 0x4c
 8004de6:	f003 0302 	and.w	r3, r3, #2
 8004dea:	9301      	str	r3, [sp, #4]
 8004dec:	9b01      	ldr	r3, [sp, #4]
 8004dee:	20c0      	movs	r0, #192	; 0xc0
 8004df0:	2312      	movs	r3, #18
 8004df2:	e9cd 0305 	strd	r0, r3, [sp, #20]
 8004df6:	f04f 0c01 	mov.w	ip, #1
 8004dfa:	2303      	movs	r3, #3
 8004dfc:	e9cd c307 	strd	ip, r3, [sp, #28]
 8004e00:	481d      	ldr	r0, [pc, #116]	; (8004e78 <HAL_I2C_MspInit+0xb8>)
 8004e02:	2304      	movs	r3, #4
 8004e04:	a905      	add	r1, sp, #20
 8004e06:	9309      	str	r3, [sp, #36]	; 0x24
 8004e08:	f001 f9e6 	bl	80061d8 <HAL_GPIO_Init>
 8004e0c:	6da3      	ldr	r3, [r4, #88]	; 0x58
 8004e0e:	f443 1300 	orr.w	r3, r3, #2097152	; 0x200000
 8004e12:	65a3      	str	r3, [r4, #88]	; 0x58
 8004e14:	6da3      	ldr	r3, [r4, #88]	; 0x58
 8004e16:	f403 1300 	and.w	r3, r3, #2097152	; 0x200000
 8004e1a:	9302      	str	r3, [sp, #8]
 8004e1c:	9b02      	ldr	r3, [sp, #8]
 8004e1e:	b00a      	add	sp, #40	; 0x28
 8004e20:	bd10      	pop	{r4, pc}
 8004e22:	4a16      	ldr	r2, [pc, #88]	; (8004e7c <HAL_I2C_MspInit+0xbc>)
 8004e24:	4293      	cmp	r3, r2
 8004e26:	d1fa      	bne.n	8004e1e <HAL_I2C_MspInit+0x5e>
 8004e28:	4c12      	ldr	r4, [pc, #72]	; (8004e74 <HAL_I2C_MspInit+0xb4>)
 8004e2a:	4813      	ldr	r0, [pc, #76]	; (8004e78 <HAL_I2C_MspInit+0xb8>)
 8004e2c:	6ce3      	ldr	r3, [r4, #76]	; 0x4c
 8004e2e:	f043 0302 	orr.w	r3, r3, #2
 8004e32:	64e3      	str	r3, [r4, #76]	; 0x4c
 8004e34:	6ce3      	ldr	r3, [r4, #76]	; 0x4c
 8004e36:	f003 0302 	and.w	r3, r3, #2
 8004e3a:	9303      	str	r3, [sp, #12]
 8004e3c:	9b03      	ldr	r3, [sp, #12]
 8004e3e:	f44f 42c0 	mov.w	r2, #24576	; 0x6000
 8004e42:	2312      	movs	r3, #18
 8004e44:	e9cd 2305 	strd	r2, r3, [sp, #20]
 8004e48:	2101      	movs	r1, #1
 8004e4a:	2303      	movs	r3, #3
 8004e4c:	e9cd 1307 	strd	r1, r3, [sp, #28]
 8004e50:	2304      	movs	r3, #4
 8004e52:	a905      	add	r1, sp, #20
 8004e54:	9309      	str	r3, [sp, #36]	; 0x24
 8004e56:	f001 f9bf 	bl	80061d8 <HAL_GPIO_Init>
 8004e5a:	6da3      	ldr	r3, [r4, #88]	; 0x58
 8004e5c:	f443 0380 	orr.w	r3, r3, #4194304	; 0x400000
 8004e60:	65a3      	str	r3, [r4, #88]	; 0x58
 8004e62:	6da3      	ldr	r3, [r4, #88]	; 0x58
 8004e64:	f403 0380 	and.w	r3, r3, #4194304	; 0x400000
 8004e68:	9304      	str	r3, [sp, #16]
 8004e6a:	9b04      	ldr	r3, [sp, #16]
 8004e6c:	e7d7      	b.n	8004e1e <HAL_I2C_MspInit+0x5e>
 8004e6e:	bf00      	nop
 8004e70:	40005400 	.word	0x40005400
 8004e74:	40021000 	.word	0x40021000
 8004e78:	48000400 	.word	0x48000400
 8004e7c:	40005800 	.word	0x40005800

08004e80 <MX_IWDG_Init>:
 8004e80:	4809      	ldr	r0, [pc, #36]	; (8004ea8 <MX_IWDG_Init+0x28>)
 8004e82:	4a0a      	ldr	r2, [pc, #40]	; (8004eac <MX_IWDG_Init+0x2c>)
 8004e84:	b508      	push	{r3, lr}
 8004e86:	2305      	movs	r3, #5
 8004e88:	e9c0 2300 	strd	r2, r3, [r0]
 8004e8c:	f640 71ff 	movw	r1, #4095	; 0xfff
 8004e90:	f640 63a6 	movw	r3, #3750	; 0xea6
 8004e94:	e9c0 3102 	strd	r3, r1, [r0, #8]
 8004e98:	f001 fde5 	bl	8006a66 <HAL_IWDG_Init>
 8004e9c:	b118      	cbz	r0, 8004ea6 <MX_IWDG_Init+0x26>
 8004e9e:	e8bd 4008 	ldmia.w	sp!, {r3, lr}
 8004ea2:	f000 bc77 	b.w	8005794 <Error_Handler>
 8004ea6:	bd08      	pop	{r3, pc}
 8004ea8:	20000fbc 	.word	0x20000fbc
 8004eac:	40003000 	.word	0x40003000

08004eb0 <SystemClock_Config>:
 8004eb0:	b530      	push	{r4, r5, lr}
 8004eb2:	b0af      	sub	sp, #188	; 0xbc
 8004eb4:	2244      	movs	r2, #68	; 0x44
 8004eb6:	2100      	movs	r1, #0
 8004eb8:	a805      	add	r0, sp, #20
 8004eba:	f006 fb2d 	bl	800b518 <memset>
 8004ebe:	2560      	movs	r5, #96	; 0x60
 8004ec0:	2214      	movs	r2, #20
 8004ec2:	2100      	movs	r1, #0
 8004ec4:	4668      	mov	r0, sp
 8004ec6:	f006 fb27 	bl	800b518 <memset>
 8004eca:	462a      	mov	r2, r5
 8004ecc:	2100      	movs	r1, #0
 8004ece:	a816      	add	r0, sp, #88	; 0x58
 8004ed0:	f006 fb22 	bl	800b518 <memset>
 8004ed4:	f002 fc90 	bl	80077f8 <HAL_PWR_EnableBkUpAccess>
 8004ed8:	4a1e      	ldr	r2, [pc, #120]	; (8004f54 <SystemClock_Config+0xa4>)
 8004eda:	f8d2 3090 	ldr.w	r3, [r2, #144]	; 0x90
 8004ede:	f023 0318 	bic.w	r3, r3, #24
 8004ee2:	f8c2 3090 	str.w	r3, [r2, #144]	; 0x90
 8004ee6:	233c      	movs	r3, #60	; 0x3c
 8004ee8:	2202      	movs	r2, #2
 8004eea:	9305      	str	r3, [sp, #20]
 8004eec:	2301      	movs	r3, #1
 8004eee:	2400      	movs	r4, #0
 8004ef0:	e9cd 230f 	strd	r2, r3, [sp, #60]	; 0x3c
 8004ef4:	e9cd 330a 	strd	r3, r3, [sp, #40]	; 0x28
 8004ef8:	9307      	str	r3, [sp, #28]
 8004efa:	930e      	str	r3, [sp, #56]	; 0x38
 8004efc:	9311      	str	r3, [sp, #68]	; 0x44
 8004efe:	2110      	movs	r1, #16
 8004f00:	2307      	movs	r3, #7
 8004f02:	a805      	add	r0, sp, #20
 8004f04:	e9cd 2214 	strd	r2, r2, [sp, #80]	; 0x50
 8004f08:	e9cd 1312 	strd	r1, r3, [sp, #72]	; 0x48
 8004f0c:	e9cd 450c 	strd	r4, r5, [sp, #48]	; 0x30
 8004f10:	f002 fdbc 	bl	8007a8c <HAL_RCC_OscConfig>
 8004f14:	200f      	movs	r0, #15
 8004f16:	2303      	movs	r3, #3
 8004f18:	4621      	mov	r1, r4
 8004f1a:	e9cd 0300 	strd	r0, r3, [sp]
 8004f1e:	2380      	movs	r3, #128	; 0x80
 8004f20:	4668      	mov	r0, sp
 8004f22:	e9cd 3402 	strd	r3, r4, [sp, #8]
 8004f26:	9404      	str	r4, [sp, #16]
 8004f28:	f003 f85a 	bl	8007fe0 <HAL_RCC_ClockConfig>
 8004f2c:	f242 03c7 	movw	r3, #8391	; 0x20c7
 8004f30:	a816      	add	r0, sp, #88	; 0x58
 8004f32:	9316      	str	r3, [sp, #88]	; 0x58
 8004f34:	e9cd 441e 	strd	r4, r4, [sp, #120]	; 0x78
 8004f38:	e9cd 4422 	strd	r4, r4, [sp, #136]	; 0x88
 8004f3c:	9420      	str	r4, [sp, #128]	; 0x80
 8004f3e:	9428      	str	r4, [sp, #160]	; 0xa0
 8004f40:	f003 f990 	bl	8008264 <HAL_RCCEx_PeriphCLKConfig>
 8004f44:	f44f 7000 	mov.w	r0, #512	; 0x200
 8004f48:	f002 fc66 	bl	8007818 <HAL_PWREx_ControlVoltageScaling>
 8004f4c:	f003 fb00 	bl	8008550 <HAL_RCCEx_EnableMSIPLLMode>
 8004f50:	b02f      	add	sp, #188	; 0xbc
 8004f52:	bd30      	pop	{r4, r5, pc}
 8004f54:	40021000 	.word	0x40021000

08004f58 <HAL_TIM_PeriodElapsedCallback>:
 8004f58:	b508      	push	{r3, lr}
 8004f5a:	4b1a      	ldr	r3, [pc, #104]	; (8004fc4 <HAL_TIM_PeriodElapsedCallback+0x6c>)
 8004f5c:	6802      	ldr	r2, [r0, #0]
 8004f5e:	681b      	ldr	r3, [r3, #0]
 8004f60:	429a      	cmp	r2, r3
 8004f62:	d116      	bne.n	8004f92 <HAL_TIM_PeriodElapsedCallback+0x3a>
 8004f64:	4918      	ldr	r1, [pc, #96]	; (8004fc8 <HAL_TIM_PeriodElapsedCallback+0x70>)
 8004f66:	4a19      	ldr	r2, [pc, #100]	; (8004fcc <HAL_TIM_PeriodElapsedCallback+0x74>)
 8004f68:	680b      	ldr	r3, [r1, #0]
 8004f6a:	6812      	ldr	r2, [r2, #0]
 8004f6c:	4293      	cmp	r3, r2
 8004f6e:	bf34      	ite	cc
 8004f70:	3301      	addcc	r3, #1
 8004f72:	2300      	movcs	r3, #0
 8004f74:	200a      	movs	r0, #10
 8004f76:	600b      	str	r3, [r1, #0]
 8004f78:	fbb3 f1f0 	udiv	r1, r3, r0
 8004f7c:	fb00 3111 	mls	r1, r0, r1, r3
 8004f80:	2902      	cmp	r1, #2
 8004f82:	bf02      	ittt	eq
 8004f84:	4912      	ldreq	r1, [pc, #72]	; (8004fd0 <HAL_TIM_PeriodElapsedCallback+0x78>)
 8004f86:	2001      	moveq	r0, #1
 8004f88:	8008      	strheq	r0, [r1, #0]
 8004f8a:	2b01      	cmp	r3, #1
 8004f8c:	d102      	bne.n	8004f94 <HAL_TIM_PeriodElapsedCallback+0x3c>
 8004f8e:	4a11      	ldr	r2, [pc, #68]	; (8004fd4 <HAL_TIM_PeriodElapsedCallback+0x7c>)
 8004f90:	7093      	strb	r3, [r2, #2]
 8004f92:	bd08      	pop	{r3, pc}
 8004f94:	0852      	lsrs	r2, r2, #1
 8004f96:	3201      	adds	r2, #1
 8004f98:	429a      	cmp	r2, r3
 8004f9a:	d0fa      	beq.n	8004f92 <HAL_TIM_PeriodElapsedCallback+0x3a>
 8004f9c:	f44f 717a 	mov.w	r1, #1000	; 0x3e8
 8004fa0:	fbb3 f2f1 	udiv	r2, r3, r1
 8004fa4:	fb01 3312 	mls	r3, r1, r2, r3
 8004fa8:	2b02      	cmp	r3, #2
 8004faa:	d0f2      	beq.n	8004f92 <HAL_TIM_PeriodElapsedCallback+0x3a>
 8004fac:	490a      	ldr	r1, [pc, #40]	; (8004fd8 <HAL_TIM_PeriodElapsedCallback+0x80>)
 8004fae:	480b      	ldr	r0, [pc, #44]	; (8004fdc <HAL_TIM_PeriodElapsedCallback+0x84>)
 8004fb0:	f7fe fa56 	bl	8003460 <TaskButtonManager>
 8004fb4:	490a      	ldr	r1, [pc, #40]	; (8004fe0 <HAL_TIM_PeriodElapsedCallback+0x88>)
 8004fb6:	4809      	ldr	r0, [pc, #36]	; (8004fdc <HAL_TIM_PeriodElapsedCallback+0x84>)
 8004fb8:	f7fe fab8 	bl	800352c <TaskAlertManager>
 8004fbc:	4b05      	ldr	r3, [pc, #20]	; (8004fd4 <HAL_TIM_PeriodElapsedCallback+0x7c>)
 8004fbe:	2201      	movs	r2, #1
 8004fc0:	70da      	strb	r2, [r3, #3]
 8004fc2:	e7e6      	b.n	8004f92 <HAL_TIM_PeriodElapsedCallback+0x3a>
 8004fc4:	200024d8 	.word	0x200024d8
 8004fc8:	200009e0 	.word	0x200009e0
 8004fcc:	20000648 	.word	0x20000648
 8004fd0:	200009e4 	.word	0x200009e4
 8004fd4:	20001e04 	.word	0x20001e04
 8004fd8:	200022b8 	.word	0x200022b8
 8004fdc:	20001714 	.word	0x20001714
 8004fe0:	200009e8 	.word	0x200009e8

08004fe4 <HAL_UART_RxCpltCallback>:
 8004fe4:	4770      	bx	lr

08004fe6 <vibration_LBL>:
 8004fe6:	b570      	push	{r4, r5, r6, lr}
 8004fe8:	4604      	mov	r4, r0
 8004fea:	460d      	mov	r5, r1
 8004fec:	4616      	mov	r6, r2
 8004fee:	b904      	cbnz	r4, 8004ff2 <vibration_LBL+0xc>
 8004ff0:	bd70      	pop	{r4, r5, r6, pc}
 8004ff2:	4630      	mov	r0, r6
 8004ff4:	f7fc fd67 	bl	8001ac6 <PowerVib>
 8004ff8:	3c01      	subs	r4, #1
 8004ffa:	4628      	mov	r0, r5
 8004ffc:	f000 ff34 	bl	8005e68 <HAL_Delay>
 8005000:	b2e4      	uxtb	r4, r4
 8005002:	e7f4      	b.n	8004fee <vibration_LBL+0x8>

08005004 <jumpToBootloader>:
 8005004:	b510      	push	{r4, lr}
 8005006:	f002 fc87 	bl	8007918 <HAL_RCC_DeInit>
 800500a:	4b0d      	ldr	r3, [pc, #52]	; (8005040 <jumpToBootloader+0x3c>)
 800500c:	2200      	movs	r2, #0
 800500e:	601a      	str	r2, [r3, #0]
 8005010:	605a      	str	r2, [r3, #4]
 8005012:	609a      	str	r2, [r3, #8]
 8005014:	b672      	cpsid	i
 8005016:	4a0b      	ldr	r2, [pc, #44]	; (8005044 <jumpToBootloader+0x40>)
 8005018:	6813      	ldr	r3, [r2, #0]
 800501a:	f023 0307 	bic.w	r3, r3, #7
 800501e:	f043 0301 	orr.w	r3, r3, #1
 8005022:	6013      	str	r3, [r2, #0]
 8005024:	4b08      	ldr	r3, [pc, #32]	; (8005048 <jumpToBootloader+0x44>)
 8005026:	4a09      	ldr	r2, [pc, #36]	; (800504c <jumpToBootloader+0x48>)
 8005028:	681b      	ldr	r3, [r3, #0]
 800502a:	6013      	str	r3, [r2, #0]
 800502c:	4a08      	ldr	r2, [pc, #32]	; (8005050 <jumpToBootloader+0x4c>)
 800502e:	6013      	str	r3, [r2, #0]
 8005030:	f04f 6200 	mov.w	r2, #134217728	; 0x8000000
 8005034:	6812      	ldr	r2, [r2, #0]
 8005036:	f382 8808 	msr	MSP, r2
 800503a:	e8bd 4010 	ldmia.w	sp!, {r4, lr}
 800503e:	4718      	bx	r3
 8005040:	e000e010 	.word	0xe000e010
 8005044:	40010000 	.word	0x40010000
 8005048:	1fff0004 	.word	0x1fff0004
 800504c:	20000fd4 	.word	0x20000fd4
 8005050:	20001880 	.word	0x20001880

08005054 <main>:
 8005054:	e92d 4ff0 	stmdb	sp!, {r4, r5, r6, r7, r8, r9, sl, fp, lr}
 8005058:	f242 63fc 	movw	r3, #9980	; 0x26fc
 800505c:	b0e7      	sub	sp, #412	; 0x19c
 800505e:	2014      	movs	r0, #20
 8005060:	e9cd 032a 	strd	r0, r3, [sp, #168]	; 0xa8
 8005064:	2102      	movs	r1, #2
 8005066:	a825      	add	r0, sp, #148	; 0x94
 8005068:	f7fd fa42 	bl	80024f0 <InitTaskState>
 800506c:	230a      	movs	r3, #10
 800506e:	2101      	movs	r1, #1
 8005070:	a80d      	add	r0, sp, #52	; 0x34
 8005072:	9312      	str	r3, [sp, #72]	; 0x48
 8005074:	f7fd fa3c 	bl	80024f0 <InitTaskState>
 8005078:	f44f 7296 	mov.w	r2, #300	; 0x12c
 800507c:	2332      	movs	r3, #50	; 0x32
 800507e:	2103      	movs	r1, #3
 8005080:	a82c      	add	r0, sp, #176	; 0xb0
 8005082:	e9cd 3231 	strd	r3, r2, [sp, #196]	; 0xc4
 8005086:	9333      	str	r3, [sp, #204]	; 0xcc
 8005088:	f7fd fa32 	bl	80024f0 <InitTaskState>
 800508c:	f241 3388 	movw	r3, #5000	; 0x1388
 8005090:	2101      	movs	r1, #1
 8005092:	a813      	add	r0, sp, #76	; 0x4c
 8005094:	9318      	str	r3, [sp, #96]	; 0x60
 8005096:	f7fd fa2b 	bl	80024f0 <InitTaskState>
 800509a:	f44f 73fa 	mov.w	r3, #500	; 0x1f4
 800509e:	2101      	movs	r1, #1
 80050a0:	a819      	add	r0, sp, #100	; 0x64
 80050a2:	931e      	str	r3, [sp, #120]	; 0x78
 80050a4:	f7fd fa24 	bl	80024f0 <InitTaskState>
 80050a8:	2364      	movs	r3, #100	; 0x64
 80050aa:	2101      	movs	r1, #1
 80050ac:	a81f      	add	r0, sp, #124	; 0x7c
 80050ae:	9324      	str	r3, [sp, #144]	; 0x90
 80050b0:	f7fd fa1e 	bl	80024f0 <InitTaskState>
 80050b4:	2300      	movs	r3, #0
 80050b6:	4a65      	ldr	r2, [pc, #404]	; (800524c <main+0x1f8>)
 80050b8:	4619      	mov	r1, r3
 80050ba:	3301      	adds	r3, #1
 80050bc:	2b0e      	cmp	r3, #14
 80050be:	f842 1b04 	str.w	r1, [r2], #4
 80050c2:	d1fa      	bne.n	80050ba <main+0x66>
 80050c4:	4962      	ldr	r1, [pc, #392]	; (8005250 <main+0x1fc>)
 80050c6:	2200      	movs	r2, #0
 80050c8:	460e      	mov	r6, r1
 80050ca:	4613      	mov	r3, r2
 80050cc:	3201      	adds	r2, #1
 80050ce:	2a5b      	cmp	r2, #91	; 0x5b
 80050d0:	f841 3b04 	str.w	r3, [r1], #4
 80050d4:	d1fa      	bne.n	80050cc <main+0x78>
 80050d6:	4a5f      	ldr	r2, [pc, #380]	; (8005254 <main+0x200>)
 80050d8:	e9c2 3300 	strd	r3, r3, [r2]
 80050dc:	e9c2 3302 	strd	r3, r3, [r2, #8]
 80050e0:	e9c2 3304 	strd	r3, r3, [r2, #16]
 80050e4:	4b5c      	ldr	r3, [pc, #368]	; (8005258 <main+0x204>)
 80050e6:	2417      	movs	r4, #23
 80050e8:	2200      	movs	r2, #0
 80050ea:	3c01      	subs	r4, #1
 80050ec:	f843 2b04 	str.w	r2, [r3], #4
 80050f0:	d1fb      	bne.n	80050ea <main+0x96>
 80050f2:	4b5a      	ldr	r3, [pc, #360]	; (800525c <main+0x208>)
 80050f4:	f8c6 4090 	str.w	r4, [r6, #144]	; 0x90
 80050f8:	e9c3 4400 	strd	r4, r4, [r3]
 80050fc:	e9c3 4402 	strd	r4, r4, [r3, #8]
 8005100:	611c      	str	r4, [r3, #16]
 8005102:	4b57      	ldr	r3, [pc, #348]	; (8005260 <main+0x20c>)
 8005104:	4d57      	ldr	r5, [pc, #348]	; (8005264 <main+0x210>)
 8005106:	f64e 2260 	movw	r2, #60000	; 0xea60
 800510a:	e9c6 230c 	strd	r2, r3, [r6, #48]	; 0x30
 800510e:	f44f 63fa 	mov.w	r3, #2000	; 0x7d0
 8005112:	63b3      	str	r3, [r6, #56]	; 0x38
 8005114:	f04f 0864 	mov.w	r8, #100	; 0x64
 8005118:	2301      	movs	r3, #1
 800511a:	6773      	str	r3, [r6, #116]	; 0x74
 800511c:	f8c6 3084 	str.w	r3, [r6, #132]	; 0x84
 8005120:	f8c6 30d0 	str.w	r3, [r6, #208]	; 0xd0
 8005124:	f8c6 80a8 	str.w	r8, [r6, #168]	; 0xa8
 8005128:	f000 fe7c 	bl	8005e24 <HAL_Init>
 800512c:	f7ff fec0 	bl	8004eb0 <SystemClock_Config>
 8005130:	f7ff fd34 	bl	8004b9c <MX_GPIO_Init>
 8005134:	f7fc fefc 	bl	8001f30 <InOn>
 8005138:	2801      	cmp	r0, #1
 800513a:	d172      	bne.n	8005222 <main+0x1ce>
 800513c:	2006      	movs	r0, #6
 800513e:	f7fc fe61 	bl	8001e04 <bootloader>
 8005142:	2801      	cmp	r0, #1
 8005144:	4607      	mov	r7, r0
 8005146:	d16c      	bne.n	8005222 <main+0x1ce>
 8005148:	2214      	movs	r2, #20
 800514a:	4621      	mov	r1, r4
 800514c:	a834      	add	r0, sp, #208	; 0xd0
 800514e:	f006 f9e3 	bl	800b518 <memset>
 8005152:	f005 ffcb 	bl	800b0ec <USB_DFU>
 8005156:	4620      	mov	r0, r4
 8005158:	f7fc fe76 	bl	8001e48 <OutDone1>
 800515c:	4638      	mov	r0, r7
 800515e:	f7fc fe7f 	bl	8001e60 <OutDone2>
 8005162:	4b3b      	ldr	r3, [pc, #236]	; (8005250 <main+0x1fc>)
 8005164:	4642      	mov	r2, r8
 8005166:	4621      	mov	r1, r4
 8005168:	4620      	mov	r0, r4
 800516a:	f7fd f95d 	bl	8002428 <LedOn>
 800516e:	2108      	movs	r1, #8
 8005170:	f04f 4090 	mov.w	r0, #1207959552	; 0x48000000
 8005174:	f001 f8f6 	bl	8006364 <HAL_GPIO_DeInit>
 8005178:	6ceb      	ldr	r3, [r5, #76]	; 0x4c
 800517a:	f043 0301 	orr.w	r3, r3, #1
 800517e:	64eb      	str	r3, [r5, #76]	; 0x4c
 8005180:	6ceb      	ldr	r3, [r5, #76]	; 0x4c
 8005182:	f003 0301 	and.w	r3, r3, #1
 8005186:	930c      	str	r3, [sp, #48]	; 0x30
 8005188:	463a      	mov	r2, r7
 800518a:	2108      	movs	r1, #8
 800518c:	f04f 4090 	mov.w	r0, #1207959552	; 0x48000000
 8005190:	9b0c      	ldr	r3, [sp, #48]	; 0x30
 8005192:	f001 f967 	bl	8006464 <HAL_GPIO_WritePin>
 8005196:	2308      	movs	r3, #8
 8005198:	e9cd 3734 	strd	r3, r7, [sp, #208]	; 0xd0
 800519c:	a934      	add	r1, sp, #208	; 0xd0
 800519e:	2302      	movs	r3, #2
 80051a0:	f04f 4090 	mov.w	r0, #1207959552	; 0x48000000
 80051a4:	e9cd 3436 	strd	r3, r4, [sp, #216]	; 0xd8
 80051a8:	f001 f816 	bl	80061d8 <HAL_GPIO_Init>
 80051ac:	f7ff ff2a 	bl	8005004 <jumpToBootloader>
 80051b0:	2201      	movs	r2, #1
 80051b2:	2180      	movs	r1, #128	; 0x80
 80051b4:	f04f 4090 	mov.w	r0, #1207959552	; 0x48000000
 80051b8:	f001 f954 	bl	8006464 <HAL_GPIO_WritePin>
 80051bc:	2000      	movs	r0, #0
 80051be:	f7fc fe37 	bl	8001e30 <OuChaIsel>
 80051c2:	2000      	movs	r0, #0
 80051c4:	f7fc fe40 	bl	8001e48 <OutDone1>
 80051c8:	2001      	movs	r0, #1
 80051ca:	f7fc fe49 	bl	8001e60 <OutDone2>
 80051ce:	2001      	movs	r0, #1
 80051d0:	f000 fe4a 	bl	8005e68 <HAL_Delay>
 80051d4:	2001      	movs	r0, #1
 80051d6:	f7fc fe89 	bl	8001eec <OutLedWu>
 80051da:	230a      	movs	r3, #10
 80051dc:	481c      	ldr	r0, [pc, #112]	; (8005250 <main+0x1fc>)
 80051de:	f8c6 3104 	str.w	r3, [r6, #260]	; 0x104
 80051e2:	f7fc fd93 	bl	8001d0c <LedChargeIndic>
 80051e6:	f8d5 3094 	ldr.w	r3, [r5, #148]	; 0x94
 80051ea:	4c1f      	ldr	r4, [pc, #124]	; (8005268 <main+0x214>)
 80051ec:	f013 5f00 	tst.w	r3, #536870912	; 0x20000000
 80051f0:	d03c      	beq.n	800526c <main+0x218>
 80051f2:	f8d5 3094 	ldr.w	r3, [r5, #148]	; 0x94
 80051f6:	f443 0300 	orr.w	r3, r3, #8388608	; 0x800000
 80051fa:	f8c5 3094 	str.w	r3, [r5, #148]	; 0x94
 80051fe:	2000      	movs	r0, #0
 8005200:	f7fc fe22 	bl	8001e48 <OutDone1>
 8005204:	2001      	movs	r0, #1
 8005206:	f7fc fe2b 	bl	8001e60 <OutDone2>
 800520a:	2301      	movs	r3, #1
 800520c:	7023      	strb	r3, [r4, #0]
 800520e:	2002      	movs	r0, #2
 8005210:	f000 fe2a 	bl	8005e68 <HAL_Delay>
 8005214:	2100      	movs	r1, #0
 8005216:	4b0e      	ldr	r3, [pc, #56]	; (8005250 <main+0x1fc>)
 8005218:	2232      	movs	r2, #50	; 0x32
 800521a:	4608      	mov	r0, r1
 800521c:	f7fd f904 	bl	8002428 <LedOn>
 8005220:	e028      	b.n	8005274 <main+0x220>
 8005222:	f000 fab9 	bl	8005798 <HAL_MspInit>
 8005226:	f7ff fc91 	bl	8004b4c <MX_DMA_Init>
 800522a:	f7ff fd71 	bl	8004d10 <MX_I2C1_Init>
 800522e:	f7ff fd9b 	bl	8004d68 <MX_I2C2_Init>
 8005232:	f000 fc59 	bl	8005ae8 <MX_USART1_UART_Init>
 8005236:	f000 fc75 	bl	8005b24 <MX_USART2_UART_Init>
 800523a:	f000 fc91 	bl	8005b60 <MX_USART3_UART_Init>
 800523e:	f000 fb7d 	bl	800593c <MX_TIM7_Init>
 8005242:	f000 fc01 	bl	8005a48 <MX_TIM16_Init>
 8005246:	f7ff fe1b 	bl	8004e80 <MX_IWDG_Init>
 800524a:	e7b1      	b.n	80051b0 <main+0x15c>
 800524c:	200022b8 	.word	0x200022b8
 8005250:	20001714 	.word	0x20001714
 8005254:	20001a3c 	.word	0x20001a3c
 8005258:	20001da8 	.word	0x20001da8
 800525c:	200011e8 	.word	0x200011e8
 8005260:	00015f90 	.word	0x00015f90
 8005264:	40021000 	.word	0x40021000
 8005268:	200009d8 	.word	0x200009d8
 800526c:	f7fd f90e 	bl	800248c <PowerSave>
 8005270:	2800      	cmp	r0, #0
 8005272:	d0cc      	beq.n	800520e <main+0x1ba>
 8005274:	48c1      	ldr	r0, [pc, #772]	; (800557c <main+0x528>)
 8005276:	f003 fa6b 	bl	8008750 <HAL_TIM_Base_Start_IT>
 800527a:	f7fd f92e 	bl	80024da <ScreenOn>
 800527e:	7820      	ldrb	r0, [r4, #0]
 8005280:	fab0 f080 	clz	r0, r0
 8005284:	0940      	lsrs	r0, r0, #5
 8005286:	2501      	movs	r5, #1
 8005288:	f7fb ff8c 	bl	80011a4 <display_Init>
 800528c:	6075      	str	r5, [r6, #4]
 800528e:	f7fc ffb7 	bl	8002200 <Init_IMU>
 8005292:	2000      	movs	r0, #0
 8005294:	f7fc fdf0 	bl	8001e78 <OutDwmRst>
 8005298:	2000      	movs	r0, #0
 800529a:	f7fc fdf7 	bl	8001e8c <OutDwmWu>
 800529e:	f7fd f950 	bl	8002542 <WakeUpNemeusLS>
 80052a2:	48b7      	ldr	r0, [pc, #732]	; (8005580 <main+0x52c>)
 80052a4:	f7fd f970 	bl	8002588 <RebootNemeusLS>
 80052a8:	f8d6 3130 	ldr.w	r3, [r6, #304]	; 0x130
 80052ac:	b973      	cbnz	r3, 80052cc <main+0x278>
 80052ae:	f7fd f985 	bl	80025bc <SigfoxOn>
 80052b2:	f000 fdd3 	bl	8005e5c <HAL_GetTick>
 80052b6:	7820      	ldrb	r0, [r4, #0]
 80052b8:	f8c6 5130 	str.w	r5, [r6, #304]	; 0x130
 80052bc:	fab0 f080 	clz	r0, r0
 80052c0:	0940      	lsrs	r0, r0, #5
 80052c2:	f7fd f9bb 	bl	800263c <SendOnMessSigfox>
 80052c6:	4baf      	ldr	r3, [pc, #700]	; (8005584 <main+0x530>)
 80052c8:	2204      	movs	r2, #4
 80052ca:	701a      	strb	r2, [r3, #0]
 80052cc:	f000 fdc6 	bl	8005e5c <HAL_GetTick>
 80052d0:	48aa      	ldr	r0, [pc, #680]	; (800557c <main+0x528>)
 80052d2:	4dab      	ldr	r5, [pc, #684]	; (8005580 <main+0x52c>)
 80052d4:	f8df 82fc 	ldr.w	r8, [pc, #764]	; 80055d4 <main+0x580>
 80052d8:	f003 fa3a 	bl	8008750 <HAL_TIM_Base_Start_IT>
 80052dc:	2001      	movs	r0, #1
 80052de:	f000 fdc3 	bl	8005e68 <HAL_Delay>
 80052e2:	2301      	movs	r3, #1
 80052e4:	6073      	str	r3, [r6, #4]
 80052e6:	f000 fdb9 	bl	8005e5c <HAL_GetTick>
 80052ea:	900b      	str	r0, [sp, #44]	; 0x2c
 80052ec:	f000 fdb6 	bl	8005e5c <HAL_GetTick>
 80052f0:	4ba5      	ldr	r3, [pc, #660]	; (8005588 <main+0x534>)
 80052f2:	49a6      	ldr	r1, [pc, #664]	; (800558c <main+0x538>)
 80052f4:	6018      	str	r0, [r3, #0]
 80052f6:	2264      	movs	r2, #100	; 0x64
 80052f8:	48a5      	ldr	r0, [pc, #660]	; (8005590 <main+0x53c>)
 80052fa:	f004 fa47 	bl	800978c <HAL_UART_Receive_DMA>
 80052fe:	49a5      	ldr	r1, [pc, #660]	; (8005594 <main+0x540>)
 8005300:	48a5      	ldr	r0, [pc, #660]	; (8005598 <main+0x544>)
 8005302:	22c8      	movs	r2, #200	; 0xc8
 8005304:	f004 fa42 	bl	800978c <HAL_UART_Receive_DMA>
 8005308:	462f      	mov	r7, r5
 800530a:	f000 fda7 	bl	8005e5c <HAL_GetTick>
 800530e:	4681      	mov	r9, r0
 8005310:	f000 fda4 	bl	8005e5c <HAL_GetTick>
 8005314:	f8df a2c0 	ldr.w	sl, [pc, #704]	; 80055d8 <main+0x584>
 8005318:	4ca0      	ldr	r4, [pc, #640]	; (800559c <main+0x548>)
 800531a:	f8ca 0000 	str.w	r0, [sl]
 800531e:	48a0      	ldr	r0, [pc, #640]	; (80055a0 <main+0x54c>)
 8005320:	f001 fbc8 	bl	8006ab4 <HAL_IWDG_Refresh>
 8005324:	f8d5 30e4 	ldr.w	r3, [r5, #228]	; 0xe4
 8005328:	2b01      	cmp	r3, #1
 800532a:	d109      	bne.n	8005340 <main+0x2ec>
 800532c:	68a2      	ldr	r2, [r4, #8]
 800532e:	f8da 3000 	ldr.w	r3, [sl]
 8005332:	1a9b      	subs	r3, r3, r2
 8005334:	4a9b      	ldr	r2, [pc, #620]	; (80055a4 <main+0x550>)
 8005336:	4293      	cmp	r3, r2
 8005338:	bf9c      	itt	ls
 800533a:	233c      	movls	r3, #60	; 0x3c
 800533c:	f8c5 3104 	strls.w	r3, [r5, #260]	; 0x104
 8005340:	f7fe fc94 	bl	8003c6c <GPS_Management>
 8005344:	f8d7 3164 	ldr.w	r3, [r7, #356]	; 0x164
 8005348:	2b01      	cmp	r3, #1
 800534a:	d105      	bne.n	8005358 <main+0x304>
 800534c:	4a93      	ldr	r2, [pc, #588]	; (800559c <main+0x548>)
 800534e:	4996      	ldr	r1, [pc, #600]	; (80055a8 <main+0x554>)
 8005350:	4643      	mov	r3, r8
 8005352:	4628      	mov	r0, r5
 8005354:	f7fe f81a 	bl	800338c <TaskSendDUAL>
 8005358:	f8d7 310c 	ldr.w	r3, [r7, #268]	; 0x10c
 800535c:	2b01      	cmp	r3, #1
 800535e:	d108      	bne.n	8005372 <main+0x31e>
 8005360:	6a7b      	ldr	r3, [r7, #36]	; 0x24
 8005362:	2b01      	cmp	r3, #1
 8005364:	d105      	bne.n	8005372 <main+0x31e>
 8005366:	4a8d      	ldr	r2, [pc, #564]	; (800559c <main+0x548>)
 8005368:	498f      	ldr	r1, [pc, #572]	; (80055a8 <main+0x554>)
 800536a:	4643      	mov	r3, r8
 800536c:	4628      	mov	r0, r5
 800536e:	f7fd ffc3 	bl	80032f8 <TaskSendSigfox>
 8005372:	4628      	mov	r0, r5
 8005374:	f7fd fb54 	bl	8002a20 <TaskExtButton>
 8005378:	488c      	ldr	r0, [pc, #560]	; (80055ac <main+0x558>)
 800537a:	f8df a260 	ldr.w	sl, [pc, #608]	; 80055dc <main+0x588>
 800537e:	4629      	mov	r1, r5
 8005380:	f7fd fc68 	bl	8002c54 <TaskFallTest>
 8005384:	4629      	mov	r1, r5
 8005386:	a81f      	add	r0, sp, #124	; 0x7c
 8005388:	f7fd fad8 	bl	800293c <TaskUpdateUpperLed>
 800538c:	4629      	mov	r1, r5
 800538e:	a825      	add	r0, sp, #148	; 0x94
 8005390:	f7fd faac 	bl	80028ec <TaskLedBlinking>
 8005394:	a90b      	add	r1, sp, #44	; 0x2c
 8005396:	4628      	mov	r0, r5
 8005398:	f7fd fdbc 	bl	8002f14 <TaskOnScreen>
 800539c:	4b82      	ldr	r3, [pc, #520]	; (80055a8 <main+0x554>)
 800539e:	4983      	ldr	r1, [pc, #524]	; (80055ac <main+0x558>)
 80053a0:	f8cd 8008 	str.w	r8, [sp, #8]
 80053a4:	e9cd 4a00 	strd	r4, sl, [sp]
 80053a8:	462a      	mov	r2, r5
 80053aa:	a82c      	add	r0, sp, #176	; 0xb0
 80053ac:	f7fd fa5a 	bl	8002864 <TaskBigScreen>
 80053b0:	f8d6 30ac 	ldr.w	r3, [r6, #172]	; 0xac
 80053b4:	b92b      	cbnz	r3, 80053c2 <main+0x36e>
 80053b6:	4b7c      	ldr	r3, [pc, #496]	; (80055a8 <main+0x554>)
 80053b8:	487c      	ldr	r0, [pc, #496]	; (80055ac <main+0x558>)
 80053ba:	4652      	mov	r2, sl
 80053bc:	4629      	mov	r1, r5
 80053be:	f7fd fc7d 	bl	8002cbc <TaskAlertAll>
 80053c2:	f7fe fb51 	bl	8003a68 <Battery_Charger_Management>
 80053c6:	f44f 707a 	mov.w	r0, #1000	; 0x3e8
 80053ca:	fbb9 f3f0 	udiv	r3, r9, r0
 80053ce:	fb00 9913 	mls	r9, r0, r3, r9
 80053d2:	4c77      	ldr	r4, [pc, #476]	; (80055b0 <main+0x55c>)
 80053d4:	f1b9 0f00 	cmp.w	r9, #0
 80053d8:	d103      	bne.n	80053e2 <main+0x38e>
 80053da:	2301      	movs	r3, #1
 80053dc:	7063      	strb	r3, [r4, #1]
 80053de:	f7fe fb43 	bl	8003a68 <Battery_Charger_Management>
 80053e2:	78e3      	ldrb	r3, [r4, #3]
 80053e4:	2b01      	cmp	r3, #1
 80053e6:	d11b      	bne.n	8005420 <main+0x3cc>
 80053e8:	2300      	movs	r3, #0
 80053ea:	683a      	ldr	r2, [r7, #0]
 80053ec:	70e3      	strb	r3, [r4, #3]
 80053ee:	f8d7 30ec 	ldr.w	r3, [r7, #236]	; 0xec
 80053f2:	4313      	orrs	r3, r2
 80053f4:	d114      	bne.n	8005420 <main+0x3cc>
 80053f6:	4c6f      	ldr	r4, [pc, #444]	; (80055b4 <main+0x560>)
 80053f8:	f8df a1e4 	ldr.w	sl, [pc, #484]	; 80055e0 <main+0x58c>
 80053fc:	486e      	ldr	r0, [pc, #440]	; (80055b8 <main+0x564>)
 80053fe:	f7fc ff87 	bl	8002310 <Measure_IMU>
 8005402:	4a6a      	ldr	r2, [pc, #424]	; (80055ac <main+0x558>)
 8005404:	8821      	ldrh	r1, [r4, #0]
 8005406:	f89a 0000 	ldrb.w	r0, [sl]
 800540a:	462b      	mov	r3, r5
 800540c:	f7fc fcb7 	bl	8001d7e <TaskAlertAcc>
 8005410:	9700      	str	r7, [sp, #0]
 8005412:	f89a 3000 	ldrb.w	r3, [sl]
 8005416:	8822      	ldrh	r2, [r4, #0]
 8005418:	4968      	ldr	r1, [pc, #416]	; (80055bc <main+0x568>)
 800541a:	4869      	ldr	r0, [pc, #420]	; (80055c0 <main+0x56c>)
 800541c:	f7fe f904 	bl	8003628 <TaskFallManager>
 8005420:	2100      	movs	r1, #0
 8005422:	2260      	movs	r2, #96	; 0x60
 8005424:	a835      	add	r0, sp, #212	; 0xd4
 8005426:	9134      	str	r1, [sp, #208]	; 0xd0
 8005428:	f006 f876 	bl	800b518 <memset>
 800542c:	4b65      	ldr	r3, [pc, #404]	; (80055c4 <main+0x570>)
 800542e:	f1b9 0f00 	cmp.w	r9, #0
 8005432:	f040 8101 	bne.w	8005638 <main+0x5e4>
 8005436:	781a      	ldrb	r2, [r3, #0]
 8005438:	2a01      	cmp	r2, #1
 800543a:	f040 80fd 	bne.w	8005638 <main+0x5e4>
 800543e:	4c53      	ldr	r4, [pc, #332]	; (800558c <main+0x538>)
 8005440:	f883 9000 	strb.w	r9, [r3]
 8005444:	aa34      	add	r2, sp, #208	; 0xd0
 8005446:	4621      	mov	r1, r4
 8005448:	2364      	movs	r3, #100	; 0x64
 800544a:	3b01      	subs	r3, #1
 800544c:	f811 0b01 	ldrb.w	r0, [r1], #1
 8005450:	f802 0b01 	strb.w	r0, [r2], #1
 8005454:	f013 03ff 	ands.w	r3, r3, #255	; 0xff
 8005458:	d1f7      	bne.n	800544a <main+0x3f6>
 800545a:	485b      	ldr	r0, [pc, #364]	; (80055c8 <main+0x574>)
 800545c:	7802      	ldrb	r2, [r0, #0]
 800545e:	4619      	mov	r1, r3
 8005460:	4684      	mov	ip, r0
 8005462:	469e      	mov	lr, r3
 8005464:	f50d 79cc 	add.w	r9, sp, #408	; 0x198
 8005468:	4499      	add	r9, r3
 800546a:	f819 9cc8 	ldrb.w	r9, [r9, #-200]
 800546e:	f1b9 0f24 	cmp.w	r9, #36	; 0x24
 8005472:	d11b      	bne.n	80054ac <main+0x458>
 8005474:	3301      	adds	r3, #1
 8005476:	b2db      	uxtb	r3, r3
 8005478:	2201      	movs	r2, #1
 800547a:	a966      	add	r1, sp, #408	; 0x198
 800547c:	4419      	add	r1, r3
 800547e:	f811 1cc8 	ldrb.w	r1, [r1, #-200]
 8005482:	290d      	cmp	r1, #13
 8005484:	f000 80c4 	beq.w	8005610 <main+0x5bc>
 8005488:	2b64      	cmp	r3, #100	; 0x64
 800548a:	bf08      	it	eq
 800548c:	2300      	moveq	r3, #0
 800548e:	f50d 79cc 	add.w	r9, sp, #408	; 0x198
 8005492:	1c59      	adds	r1, r3, #1
 8005494:	444b      	add	r3, r9
 8005496:	f813 3cc8 	ldrb.w	r3, [r3, #-200]
 800549a:	f80c 3002 	strb.w	r3, [ip, r2]
 800549e:	b2cb      	uxtb	r3, r1
 80054a0:	3201      	adds	r2, #1
 80054a2:	b2d2      	uxtb	r2, r2
 80054a4:	2a63      	cmp	r2, #99	; 0x63
 80054a6:	d9e8      	bls.n	800547a <main+0x426>
 80054a8:	2224      	movs	r2, #36	; 0x24
 80054aa:	2101      	movs	r1, #1
 80054ac:	3301      	adds	r3, #1
 80054ae:	b2db      	uxtb	r3, r3
 80054b0:	2b63      	cmp	r3, #99	; 0x63
 80054b2:	d9d7      	bls.n	8005464 <main+0x410>
 80054b4:	b101      	cbz	r1, 80054b8 <main+0x464>
 80054b6:	7002      	strb	r2, [r0, #0]
 80054b8:	4b3b      	ldr	r3, [pc, #236]	; (80055a8 <main+0x554>)
 80054ba:	4a38      	ldr	r2, [pc, #224]	; (800559c <main+0x548>)
 80054bc:	4842      	ldr	r0, [pc, #264]	; (80055c8 <main+0x574>)
 80054be:	4629      	mov	r1, r5
 80054c0:	f7fd fd52 	bl	8002f68 <TaskGPS>
 80054c4:	4a40      	ldr	r2, [pc, #256]	; (80055c8 <main+0x574>)
 80054c6:	2364      	movs	r3, #100	; 0x64
 80054c8:	2100      	movs	r1, #0
 80054ca:	3b01      	subs	r3, #1
 80054cc:	f013 03ff 	ands.w	r3, r3, #255	; 0xff
 80054d0:	f804 1b01 	strb.w	r1, [r4], #1
 80054d4:	f802 1b01 	strb.w	r1, [r2], #1
 80054d8:	d1f7      	bne.n	80054ca <main+0x476>
 80054da:	4b3c      	ldr	r3, [pc, #240]	; (80055cc <main+0x578>)
 80054dc:	781a      	ldrb	r2, [r3, #0]
 80054de:	2a01      	cmp	r2, #1
 80054e0:	f040 80b0 	bne.w	8005644 <main+0x5f0>
 80054e4:	2100      	movs	r1, #0
 80054e6:	22c4      	movs	r2, #196	; 0xc4
 80054e8:	a835      	add	r0, sp, #212	; 0xd4
 80054ea:	7019      	strb	r1, [r3, #0]
 80054ec:	9134      	str	r1, [sp, #208]	; 0xd0
 80054ee:	f006 f813 	bl	800b518 <memset>
 80054f2:	4928      	ldr	r1, [pc, #160]	; (8005594 <main+0x540>)
 80054f4:	ab34      	add	r3, sp, #208	; 0xd0
 80054f6:	22c8      	movs	r2, #200	; 0xc8
 80054f8:	3a01      	subs	r2, #1
 80054fa:	f811 0b01 	ldrb.w	r0, [r1], #1
 80054fe:	f803 0b01 	strb.w	r0, [r3], #1
 8005502:	f012 02ff 	ands.w	r2, r2, #255	; 0xff
 8005506:	d1f7      	bne.n	80054f8 <main+0x4a4>
 8005508:	4b1e      	ldr	r3, [pc, #120]	; (8005584 <main+0x530>)
 800550a:	f8df e0d8 	ldr.w	lr, [pc, #216]	; 80055e4 <main+0x590>
 800550e:	f893 c000 	ldrb.w	ip, [r3]
 8005512:	4b2f      	ldr	r3, [pc, #188]	; (80055d0 <main+0x57c>)
 8005514:	f89d b0d0 	ldrb.w	fp, [sp, #208]	; 0xd0
 8005518:	7819      	ldrb	r1, [r3, #0]
 800551a:	f89e 3000 	ldrb.w	r3, [lr]
 800551e:	9307      	str	r3, [sp, #28]
 8005520:	24c8      	movs	r4, #200	; 0xc8
 8005522:	4613      	mov	r3, r2
 8005524:	9206      	str	r2, [sp, #24]
 8005526:	9208      	str	r2, [sp, #32]
 8005528:	9205      	str	r2, [sp, #20]
 800552a:	46a1      	mov	r9, r4
 800552c:	f8cd e024 	str.w	lr, [sp, #36]	; 0x24
 8005530:	a866      	add	r0, sp, #408	; 0x198
 8005532:	eb00 0a03 	add.w	sl, r0, r3
 8005536:	f81a ecc8 	ldrb.w	lr, [sl, #-200]
 800553a:	f1be 0f2b 	cmp.w	lr, #43	; 0x2b
 800553e:	f040 8095 	bne.w	800566c <main+0x618>
 8005542:	2bc7      	cmp	r3, #199	; 0xc7
 8005544:	f000 8082 	beq.w	800564c <main+0x5f8>
 8005548:	f81a ecc7 	ldrb.w	lr, [sl, #-199]
 800554c:	f1be 0f4d 	cmp.w	lr, #77	; 0x4d
 8005550:	d14a      	bne.n	80055e8 <main+0x594>
 8005552:	a866      	add	r0, sp, #408	; 0x198
 8005554:	eb00 0e03 	add.w	lr, r0, r3
 8005558:	f81e acc2 	ldrb.w	sl, [lr, #-194]
 800555c:	f1ba 0f52 	cmp.w	sl, #82	; 0x52
 8005560:	d07f      	beq.n	8005662 <main+0x60e>
 8005562:	f81e ecba 	ldrb.w	lr, [lr, #-186]
 8005566:	f1be 0f2c 	cmp.w	lr, #44	; 0x2c
 800556a:	d07a      	beq.n	8005662 <main+0x60e>
 800556c:	2901      	cmp	r1, #1
 800556e:	bf04      	itt	eq
 8005570:	2201      	moveq	r2, #1
 8005572:	461c      	moveq	r4, r3
 8005574:	2bc7      	cmp	r3, #199	; 0xc7
 8005576:	d06d      	beq.n	8005654 <main+0x600>
 8005578:	e036      	b.n	80055e8 <main+0x594>
 800557a:	bf00      	nop
 800557c:	200024d8 	.word	0x200024d8
 8005580:	20001714 	.word	0x20001714
 8005584:	200009d4 	.word	0x200009d4
 8005588:	20000644 	.word	0x20000644
 800558c:	200010a0 	.word	0x200010a0
 8005590:	20002638 	.word	0x20002638
 8005594:	20000fd8 	.word	0x20000fd8
 8005598:	200026bc 	.word	0x200026bc
 800559c:	20001a3c 	.word	0x20001a3c
 80055a0:	20000fbc 	.word	0x20000fbc
 80055a4:	000dbb9f 	.word	0x000dbb9f
 80055a8:	20001da8 	.word	0x20001da8
 80055ac:	200022b8 	.word	0x200022b8
 80055b0:	20001e04 	.word	0x20001e04
 80055b4:	20001710 	.word	0x20001710
 80055b8:	200022f0 	.word	0x200022f0
 80055bc:	20001260 	.word	0x20001260
 80055c0:	20001e08 	.word	0x20001e08
 80055c4:	20000640 	.word	0x20000640
 80055c8:	20001120 	.word	0x20001120
 80055cc:	20000641 	.word	0x20000641
 80055d0:	200009d5 	.word	0x200009d5
 80055d4:	20001d88 	.word	0x20001d88
 80055d8:	200009f0 	.word	0x200009f0
 80055dc:	20001114 	.word	0x20001114
 80055e0:	20001884 	.word	0x20001884
 80055e4:	20001972 	.word	0x20001972
 80055e8:	a866      	add	r0, sp, #408	; 0x198
 80055ea:	eb00 0e03 	add.w	lr, r0, r3
 80055ee:	f81e acc7 	ldrb.w	sl, [lr, #-199]
 80055f2:	f1ba 0f47 	cmp.w	sl, #71	; 0x47
 80055f6:	f040 808b 	bne.w	8005710 <main+0x6bc>
 80055fa:	2b53      	cmp	r3, #83	; 0x53
 80055fc:	d82d      	bhi.n	800565a <main+0x606>
 80055fe:	f81e 1cb8 	ldrb.w	r1, [lr, #-184]
 8005602:	290d      	cmp	r1, #13
 8005604:	d129      	bne.n	800565a <main+0x606>
 8005606:	f103 0910 	add.w	r9, r3, #16
 800560a:	fa5f f989 	uxtb.w	r9, r9
 800560e:	e024      	b.n	800565a <main+0x606>
 8005610:	eb02 010c 	add.w	r1, r2, ip
 8005614:	4613      	mov	r3, r2
 8005616:	3301      	adds	r3, #1
 8005618:	b2db      	uxtb	r3, r3
 800561a:	2b64      	cmp	r3, #100	; 0x64
 800561c:	f801 eb01 	strb.w	lr, [r1], #1
 8005620:	d1f9      	bne.n	8005616 <main+0x5c2>
 8005622:	1c51      	adds	r1, r2, #1
 8005624:	b2c9      	uxtb	r1, r1
 8005626:	2964      	cmp	r1, #100	; 0x64
 8005628:	f1c2 0263 	rsb	r2, r2, #99	; 0x63
 800562c:	bf88      	it	hi
 800562e:	2200      	movhi	r2, #0
 8005630:	fa51 f282 	uxtab	r2, r1, r2
 8005634:	b2d2      	uxtb	r2, r2
 8005636:	e733      	b.n	80054a0 <main+0x44c>
 8005638:	2201      	movs	r2, #1
 800563a:	701a      	strb	r2, [r3, #0]
 800563c:	f1b9 0f00 	cmp.w	r9, #0
 8005640:	f43f af4b 	beq.w	80054da <main+0x486>
 8005644:	4b4e      	ldr	r3, [pc, #312]	; (8005780 <main+0x72c>)
 8005646:	2201      	movs	r2, #1
 8005648:	701a      	strb	r2, [r3, #0]
 800564a:	e65e      	b.n	800530a <main+0x2b6>
 800564c:	f1bb 0f4d 	cmp.w	fp, #77	; 0x4d
 8005650:	f43f af7f 	beq.w	8005552 <main+0x4fe>
 8005654:	f1bb 0f47 	cmp.w	fp, #71	; 0x47
 8005658:	d159      	bne.n	800570e <main+0x6ba>
 800565a:	2101      	movs	r1, #1
 800565c:	461c      	mov	r4, r3
 800565e:	9105      	str	r1, [sp, #20]
 8005660:	e056      	b.n	8005710 <main+0x6bc>
 8005662:	2201      	movs	r2, #1
 8005664:	2900      	cmp	r1, #0
 8005666:	bf18      	it	ne
 8005668:	461c      	movne	r4, r3
 800566a:	e783      	b.n	8005574 <main+0x520>
 800566c:	f1be 0f52 	cmp.w	lr, #82	; 0x52
 8005670:	d14e      	bne.n	8005710 <main+0x6bc>
 8005672:	f81a ecc7 	ldrb.w	lr, [sl, #-199]
 8005676:	f1be 0f52 	cmp.w	lr, #82	; 0x52
 800567a:	d004      	beq.n	8005686 <main+0x632>
 800567c:	f81a acc9 	ldrb.w	sl, [sl, #-201]
 8005680:	f1ba 0f45 	cmp.w	sl, #69	; 0x45
 8005684:	d115      	bne.n	80056b2 <main+0x65e>
 8005686:	a866      	add	r0, sp, #408	; 0x198
 8005688:	eb00 0a03 	add.w	sl, r0, r3
 800568c:	f81a 0cd3 	ldrb.w	r0, [sl, #-211]
 8005690:	2853      	cmp	r0, #83	; 0x53
 8005692:	d10e      	bne.n	80056b2 <main+0x65e>
 8005694:	f81a acd2 	ldrb.w	sl, [sl, #-210]
 8005698:	f1ba 0f46 	cmp.w	sl, #70	; 0x46
 800569c:	d109      	bne.n	80056b2 <main+0x65e>
 800569e:	f1bc 0f04 	cmp.w	ip, #4
 80056a2:	bf04      	itt	eq
 80056a4:	2201      	moveq	r2, #1
 80056a6:	9208      	streq	r2, [sp, #32]
 80056a8:	461c      	mov	r4, r3
 80056aa:	bf08      	it	eq
 80056ac:	f04f 0c05 	moveq.w	ip, #5
 80056b0:	2202      	movs	r2, #2
 80056b2:	2bc7      	cmp	r3, #199	; 0xc7
 80056b4:	d028      	beq.n	8005708 <main+0x6b4>
 80056b6:	f1be 0f43 	cmp.w	lr, #67	; 0x43
 80056ba:	d129      	bne.n	8005710 <main+0x6bc>
 80056bc:	3b05      	subs	r3, #5
 80056be:	b2db      	uxtb	r3, r3
 80056c0:	461c      	mov	r4, r3
 80056c2:	a866      	add	r0, sp, #408	; 0x198
 80056c4:	1c5a      	adds	r2, r3, #1
 80056c6:	4403      	add	r3, r0
 80056c8:	f813 3cc8 	ldrb.w	r3, [r3, #-200]
 80056cc:	9307      	str	r3, [sp, #28]
 80056ce:	b2d3      	uxtb	r3, r2
 80056d0:	2201      	movs	r2, #1
 80056d2:	a866      	add	r0, sp, #408	; 0x198
 80056d4:	eb00 0e03 	add.w	lr, r0, r3
 80056d8:	f81e ecc8 	ldrb.w	lr, [lr, #-200]
 80056dc:	f1be 0f0d 	cmp.w	lr, #13
 80056e0:	d033      	beq.n	800574a <main+0x6f6>
 80056e2:	2bc8      	cmp	r3, #200	; 0xc8
 80056e4:	bf08      	it	eq
 80056e6:	2300      	moveq	r3, #0
 80056e8:	f103 0e01 	add.w	lr, r3, #1
 80056ec:	4403      	add	r3, r0
 80056ee:	9809      	ldr	r0, [sp, #36]	; 0x24
 80056f0:	f813 3cc8 	ldrb.w	r3, [r3, #-200]
 80056f4:	5483      	strb	r3, [r0, r2]
 80056f6:	fa5f f38e 	uxtb.w	r3, lr
 80056fa:	3201      	adds	r2, #1
 80056fc:	b2d2      	uxtb	r2, r2
 80056fe:	2ac7      	cmp	r2, #199	; 0xc7
 8005700:	d9e7      	bls.n	80056d2 <main+0x67e>
 8005702:	2201      	movs	r2, #1
 8005704:	9206      	str	r2, [sp, #24]
 8005706:	e005      	b.n	8005714 <main+0x6c0>
 8005708:	f1bb 0f43 	cmp.w	fp, #67	; 0x43
 800570c:	e7d5      	b.n	80056ba <main+0x666>
 800570e:	23c7      	movs	r3, #199	; 0xc7
 8005710:	2a01      	cmp	r2, #1
 8005712:	d0d6      	beq.n	80056c2 <main+0x66e>
 8005714:	3301      	adds	r3, #1
 8005716:	b2db      	uxtb	r3, r3
 8005718:	2bc7      	cmp	r3, #199	; 0xc7
 800571a:	f67f af09 	bls.w	8005530 <main+0x4dc>
 800571e:	9b05      	ldr	r3, [sp, #20]
 8005720:	b10b      	cbz	r3, 8005726 <main+0x6d2>
 8005722:	4b18      	ldr	r3, [pc, #96]	; (8005784 <main+0x730>)
 8005724:	7019      	strb	r1, [r3, #0]
 8005726:	9b08      	ldr	r3, [sp, #32]
 8005728:	b113      	cbz	r3, 8005730 <main+0x6dc>
 800572a:	4b17      	ldr	r3, [pc, #92]	; (8005788 <main+0x734>)
 800572c:	f883 c000 	strb.w	ip, [r3]
 8005730:	9b06      	ldr	r3, [sp, #24]
 8005732:	b113      	cbz	r3, 800573a <main+0x6e6>
 8005734:	4b15      	ldr	r3, [pc, #84]	; (800578c <main+0x738>)
 8005736:	9907      	ldr	r1, [sp, #28]
 8005738:	7019      	strb	r1, [r3, #0]
 800573a:	2a01      	cmp	r2, #1
 800573c:	d113      	bne.n	8005766 <main+0x712>
 800573e:	f7fd fffd 	bl	800373c <Task_Read_Nemeus>
 8005742:	4b13      	ldr	r3, [pc, #76]	; (8005790 <main+0x73c>)
 8005744:	2200      	movs	r2, #0
 8005746:	4423      	add	r3, r4
 8005748:	e017      	b.n	800577a <main+0x726>
 800574a:	9809      	ldr	r0, [sp, #36]	; 0x24
 800574c:	eb00 0e02 	add.w	lr, r0, r2
 8005750:	3201      	adds	r2, #1
 8005752:	b2d2      	uxtb	r2, r2
 8005754:	f04f 0000 	mov.w	r0, #0
 8005758:	2ac8      	cmp	r2, #200	; 0xc8
 800575a:	f80e 0b01 	strb.w	r0, [lr], #1
 800575e:	d1f7      	bne.n	8005750 <main+0x6fc>
 8005760:	4699      	mov	r9, r3
 8005762:	4613      	mov	r3, r2
 8005764:	e7c9      	b.n	80056fa <main+0x6a6>
 8005766:	3a01      	subs	r2, #1
 8005768:	b2d2      	uxtb	r2, r2
 800576a:	2a01      	cmp	r2, #1
 800576c:	f63f adcd 	bhi.w	800530a <main+0x2b6>
 8005770:	e7e7      	b.n	8005742 <main+0x6ee>
 8005772:	3401      	adds	r4, #1
 8005774:	f803 2b01 	strb.w	r2, [r3], #1
 8005778:	b2e4      	uxtb	r4, r4
 800577a:	454c      	cmp	r4, r9
 800577c:	d3f9      	bcc.n	8005772 <main+0x71e>
 800577e:	e5c4      	b.n	800530a <main+0x2b6>
 8005780:	20000641 	.word	0x20000641
 8005784:	200009d5 	.word	0x200009d5
 8005788:	200009d4 	.word	0x200009d4
 800578c:	20001972 	.word	0x20001972
 8005790:	20000fd8 	.word	0x20000fd8

08005794 <Error_Handler>:
 8005794:	4770      	bx	lr
	...

08005798 <HAL_MspInit>:
 8005798:	4b0a      	ldr	r3, [pc, #40]	; (80057c4 <HAL_MspInit+0x2c>)
 800579a:	6e1a      	ldr	r2, [r3, #96]	; 0x60
 800579c:	f042 0201 	orr.w	r2, r2, #1
 80057a0:	661a      	str	r2, [r3, #96]	; 0x60
 80057a2:	6e1a      	ldr	r2, [r3, #96]	; 0x60
 80057a4:	b082      	sub	sp, #8
 80057a6:	f002 0201 	and.w	r2, r2, #1
 80057aa:	9200      	str	r2, [sp, #0]
 80057ac:	9a00      	ldr	r2, [sp, #0]
 80057ae:	6d9a      	ldr	r2, [r3, #88]	; 0x58
 80057b0:	f042 5280 	orr.w	r2, r2, #268435456	; 0x10000000
 80057b4:	659a      	str	r2, [r3, #88]	; 0x58
 80057b6:	6d9b      	ldr	r3, [r3, #88]	; 0x58
 80057b8:	f003 5380 	and.w	r3, r3, #268435456	; 0x10000000
 80057bc:	9301      	str	r3, [sp, #4]
 80057be:	9b01      	ldr	r3, [sp, #4]
 80057c0:	b002      	add	sp, #8
 80057c2:	4770      	bx	lr
 80057c4:	40021000 	.word	0x40021000

080057c8 <NMI_Handler>:
 80057c8:	4770      	bx	lr

080057ca <HardFault_Handler>:
 80057ca:	e7fe      	b.n	80057ca <HardFault_Handler>

080057cc <MemManage_Handler>:
 80057cc:	e7fe      	b.n	80057cc <MemManage_Handler>

080057ce <BusFault_Handler>:
 80057ce:	e7fe      	b.n	80057ce <BusFault_Handler>

080057d0 <UsageFault_Handler>:
 80057d0:	e7fe      	b.n	80057d0 <UsageFault_Handler>

080057d2 <SVC_Handler>:
 80057d2:	4770      	bx	lr

080057d4 <DebugMon_Handler>:
 80057d4:	4770      	bx	lr

080057d6 <PendSV_Handler>:
 80057d6:	4770      	bx	lr

080057d8 <SysTick_Handler>:
 80057d8:	f000 bb34 	b.w	8005e44 <HAL_IncTick>

080057dc <DMA1_Channel3_IRQHandler>:
 80057dc:	4801      	ldr	r0, [pc, #4]	; (80057e4 <DMA1_Channel3_IRQHandler+0x8>)
 80057de:	f000 bcb1 	b.w	8006144 <HAL_DMA_IRQHandler>
 80057e2:	bf00      	nop
 80057e4:	2000256c 	.word	0x2000256c

080057e8 <DMA1_Channel5_IRQHandler>:
 80057e8:	4801      	ldr	r0, [pc, #4]	; (80057f0 <DMA1_Channel5_IRQHandler+0x8>)
 80057ea:	f000 bcab 	b.w	8006144 <HAL_DMA_IRQHandler>
 80057ee:	bf00      	nop
 80057f0:	20002524 	.word	0x20002524

080057f4 <DMA1_Channel6_IRQHandler>:
 80057f4:	4801      	ldr	r0, [pc, #4]	; (80057fc <DMA1_Channel6_IRQHandler+0x8>)
 80057f6:	f000 bca5 	b.w	8006144 <HAL_DMA_IRQHandler>
 80057fa:	bf00      	nop
 80057fc:	20002740 	.word	0x20002740

08005800 <TIM1_UP_TIM16_IRQHandler>:
 8005800:	4801      	ldr	r0, [pc, #4]	; (8005808 <TIM1_UP_TIM16_IRQHandler+0x8>)
 8005802:	f002 bfd4 	b.w	80087ae <HAL_TIM_IRQHandler>
 8005806:	bf00      	nop
 8005808:	2000248c 	.word	0x2000248c

0800580c <USART1_IRQHandler>:
 800580c:	4801      	ldr	r0, [pc, #4]	; (8005814 <USART1_IRQHandler+0x8>)
 800580e:	f003 bbcf 	b.w	8008fb0 <HAL_UART_IRQHandler>
 8005812:	bf00      	nop
 8005814:	200025b4 	.word	0x200025b4

08005818 <USART2_IRQHandler>:
 8005818:	4801      	ldr	r0, [pc, #4]	; (8005820 <USART2_IRQHandler+0x8>)
 800581a:	f003 bbc9 	b.w	8008fb0 <HAL_UART_IRQHandler>
 800581e:	bf00      	nop
 8005820:	20002638 	.word	0x20002638

08005824 <USART3_IRQHandler>:
 8005824:	4801      	ldr	r0, [pc, #4]	; (800582c <USART3_IRQHandler+0x8>)
 8005826:	f003 bbc3 	b.w	8008fb0 <HAL_UART_IRQHandler>
 800582a:	bf00      	nop
 800582c:	200026bc 	.word	0x200026bc

08005830 <TIM7_IRQHandler>:
 8005830:	4801      	ldr	r0, [pc, #4]	; (8005838 <TIM7_IRQHandler+0x8>)
 8005832:	f002 bfbc 	b.w	80087ae <HAL_TIM_IRQHandler>
 8005836:	bf00      	nop
 8005838:	200024d8 	.word	0x200024d8

0800583c <USB_IRQHandler>:
 800583c:	4801      	ldr	r0, [pc, #4]	; (8005844 <USB_IRQHandler+0x8>)
 800583e:	f001 b9fd 	b.w	8006c3c <HAL_PCD_IRQHandler>
 8005842:	bf00      	nop
 8005844:	20002c5c 	.word	0x20002c5c

08005848 <_getpid>:
 8005848:	2001      	movs	r0, #1
 800584a:	4770      	bx	lr

0800584c <_kill>:
 800584c:	b508      	push	{r3, lr}
 800584e:	f005 fe2b 	bl	800b4a8 <__errno>
 8005852:	2316      	movs	r3, #22
 8005854:	6003      	str	r3, [r0, #0]
 8005856:	f04f 30ff 	mov.w	r0, #4294967295
 800585a:	bd08      	pop	{r3, pc}

0800585c <_exit>:
 800585c:	b508      	push	{r3, lr}
 800585e:	f005 fe23 	bl	800b4a8 <__errno>
 8005862:	2316      	movs	r3, #22
 8005864:	6003      	str	r3, [r0, #0]
 8005866:	e7fe      	b.n	8005866 <_exit+0xa>

08005868 <_read>:
 8005868:	b570      	push	{r4, r5, r6, lr}
 800586a:	460e      	mov	r6, r1
 800586c:	4614      	mov	r4, r2
 800586e:	2500      	movs	r5, #0
 8005870:	42a5      	cmp	r5, r4
 8005872:	db01      	blt.n	8005878 <_read+0x10>
 8005874:	4620      	mov	r0, r4
 8005876:	bd70      	pop	{r4, r5, r6, pc}
 8005878:	f3af 8000 	nop.w
 800587c:	5570      	strb	r0, [r6, r5]
 800587e:	3501      	adds	r5, #1
 8005880:	e7f6      	b.n	8005870 <_read+0x8>

08005882 <_write>:
 8005882:	b570      	push	{r4, r5, r6, lr}
 8005884:	460e      	mov	r6, r1
 8005886:	4614      	mov	r4, r2
 8005888:	2500      	movs	r5, #0
 800588a:	42a5      	cmp	r5, r4
 800588c:	db01      	blt.n	8005892 <_write+0x10>
 800588e:	4620      	mov	r0, r4
 8005890:	bd70      	pop	{r4, r5, r6, pc}
 8005892:	5d70      	ldrb	r0, [r6, r5]
 8005894:	f3af 8000 	nop.w
 8005898:	3501      	adds	r5, #1
 800589a:	e7f6      	b.n	800588a <_write+0x8>

0800589c <_close>:
 800589c:	f04f 30ff 	mov.w	r0, #4294967295
 80058a0:	4770      	bx	lr

080058a2 <_fstat>:
 80058a2:	f44f 5300 	mov.w	r3, #8192	; 0x2000
 80058a6:	604b      	str	r3, [r1, #4]
 80058a8:	2000      	movs	r0, #0
 80058aa:	4770      	bx	lr

080058ac <_isatty>:
 80058ac:	2001      	movs	r0, #1
 80058ae:	4770      	bx	lr

080058b0 <_lseek>:
 80058b0:	2000      	movs	r0, #0
 80058b2:	4770      	bx	lr

080058b4 <_sbrk>:
 80058b4:	4b0b      	ldr	r3, [pc, #44]	; (80058e4 <_sbrk+0x30>)
 80058b6:	6819      	ldr	r1, [r3, #0]
 80058b8:	b510      	push	{r4, lr}
 80058ba:	4602      	mov	r2, r0
 80058bc:	b909      	cbnz	r1, 80058c2 <_sbrk+0xe>
 80058be:	490a      	ldr	r1, [pc, #40]	; (80058e8 <_sbrk+0x34>)
 80058c0:	6019      	str	r1, [r3, #0]
 80058c2:	6818      	ldr	r0, [r3, #0]
 80058c4:	4909      	ldr	r1, [pc, #36]	; (80058ec <_sbrk+0x38>)
 80058c6:	4c0a      	ldr	r4, [pc, #40]	; (80058f0 <_sbrk+0x3c>)
 80058c8:	4402      	add	r2, r0
 80058ca:	1b09      	subs	r1, r1, r4
 80058cc:	428a      	cmp	r2, r1
 80058ce:	d906      	bls.n	80058de <_sbrk+0x2a>
 80058d0:	f005 fdea 	bl	800b4a8 <__errno>
 80058d4:	230c      	movs	r3, #12
 80058d6:	6003      	str	r3, [r0, #0]
 80058d8:	f04f 30ff 	mov.w	r0, #4294967295
 80058dc:	bd10      	pop	{r4, pc}
 80058de:	601a      	str	r2, [r3, #0]
 80058e0:	e7fc      	b.n	80058dc <_sbrk+0x28>
 80058e2:	bf00      	nop
 80058e4:	200009f8 	.word	0x200009f8
 80058e8:	20002f60 	.word	0x20002f60
 80058ec:	20010000 	.word	0x20010000
 80058f0:	00000800 	.word	0x00000800

080058f4 <SystemInit>:
 80058f4:	490f      	ldr	r1, [pc, #60]	; (8005934 <SystemInit+0x40>)
 80058f6:	f8d1 3088 	ldr.w	r3, [r1, #136]	; 0x88
 80058fa:	f443 0370 	orr.w	r3, r3, #15728640	; 0xf00000
 80058fe:	f8c1 3088 	str.w	r3, [r1, #136]	; 0x88
 8005902:	4b0d      	ldr	r3, [pc, #52]	; (8005938 <SystemInit+0x44>)
 8005904:	681a      	ldr	r2, [r3, #0]
 8005906:	2000      	movs	r0, #0
 8005908:	f042 0201 	orr.w	r2, r2, #1
 800590c:	601a      	str	r2, [r3, #0]
 800590e:	6098      	str	r0, [r3, #8]
 8005910:	681a      	ldr	r2, [r3, #0]
 8005912:	f022 52a8 	bic.w	r2, r2, #352321536	; 0x15000000
 8005916:	f422 2210 	bic.w	r2, r2, #589824	; 0x90000
 800591a:	601a      	str	r2, [r3, #0]
 800591c:	f44f 5280 	mov.w	r2, #4096	; 0x1000
 8005920:	60da      	str	r2, [r3, #12]
 8005922:	681a      	ldr	r2, [r3, #0]
 8005924:	f422 2280 	bic.w	r2, r2, #262144	; 0x40000
 8005928:	601a      	str	r2, [r3, #0]
 800592a:	6198      	str	r0, [r3, #24]
 800592c:	f04f 6300 	mov.w	r3, #134217728	; 0x8000000
 8005930:	608b      	str	r3, [r1, #8]
 8005932:	4770      	bx	lr
 8005934:	e000ed00 	.word	0xe000ed00
 8005938:	40021000 	.word	0x40021000

0800593c <MX_TIM7_Init>:
 800593c:	b51f      	push	{r0, r1, r2, r3, r4, lr}
 800593e:	480f      	ldr	r0, [pc, #60]	; (800597c <MX_TIM7_Init+0x40>)
 8005940:	4a0f      	ldr	r2, [pc, #60]	; (8005980 <MX_TIM7_Init+0x44>)
 8005942:	2309      	movs	r3, #9
 8005944:	2400      	movs	r4, #0
 8005946:	e9c0 2300 	strd	r2, r3, [r0]
 800594a:	f643 637f 	movw	r3, #15999	; 0x3e7f
 800594e:	e9cd 4401 	strd	r4, r4, [sp, #4]
 8005952:	9403      	str	r4, [sp, #12]
 8005954:	6084      	str	r4, [r0, #8]
 8005956:	60c3      	str	r3, [r0, #12]
 8005958:	6184      	str	r4, [r0, #24]
 800595a:	f003 f813 	bl	8008984 <HAL_TIM_Base_Init>
 800595e:	b108      	cbz	r0, 8005964 <MX_TIM7_Init+0x28>
 8005960:	f7ff ff18 	bl	8005794 <Error_Handler>
 8005964:	4805      	ldr	r0, [pc, #20]	; (800597c <MX_TIM7_Init+0x40>)
 8005966:	9401      	str	r4, [sp, #4]
 8005968:	a901      	add	r1, sp, #4
 800596a:	9403      	str	r4, [sp, #12]
 800596c:	f003 f9f4 	bl	8008d58 <HAL_TIMEx_MasterConfigSynchronization>
 8005970:	b108      	cbz	r0, 8005976 <MX_TIM7_Init+0x3a>
 8005972:	f7ff ff0f 	bl	8005794 <Error_Handler>
 8005976:	b004      	add	sp, #16
 8005978:	bd10      	pop	{r4, pc}
 800597a:	bf00      	nop
 800597c:	200024d8 	.word	0x200024d8
 8005980:	40001400 	.word	0x40001400

08005984 <HAL_TIM_Base_MspInit>:
 8005984:	b507      	push	{r0, r1, r2, lr}
 8005986:	6803      	ldr	r3, [r0, #0]
 8005988:	4a17      	ldr	r2, [pc, #92]	; (80059e8 <HAL_TIM_Base_MspInit+0x64>)
 800598a:	4293      	cmp	r3, r2
 800598c:	d114      	bne.n	80059b8 <HAL_TIM_Base_MspInit+0x34>
 800598e:	4b17      	ldr	r3, [pc, #92]	; (80059ec <HAL_TIM_Base_MspInit+0x68>)
 8005990:	6d9a      	ldr	r2, [r3, #88]	; 0x58
 8005992:	f042 0220 	orr.w	r2, r2, #32
 8005996:	659a      	str	r2, [r3, #88]	; 0x58
 8005998:	6d9b      	ldr	r3, [r3, #88]	; 0x58
 800599a:	2200      	movs	r2, #0
 800599c:	f003 0320 	and.w	r3, r3, #32
 80059a0:	9300      	str	r3, [sp, #0]
 80059a2:	2037      	movs	r0, #55	; 0x37
 80059a4:	4611      	mov	r1, r2
 80059a6:	9b00      	ldr	r3, [sp, #0]
 80059a8:	f000 fa84 	bl	8005eb4 <HAL_NVIC_SetPriority>
 80059ac:	2037      	movs	r0, #55	; 0x37
 80059ae:	b003      	add	sp, #12
 80059b0:	f85d eb04 	ldr.w	lr, [sp], #4
 80059b4:	f000 bab0 	b.w	8005f18 <HAL_NVIC_EnableIRQ>
 80059b8:	4a0d      	ldr	r2, [pc, #52]	; (80059f0 <HAL_TIM_Base_MspInit+0x6c>)
 80059ba:	4293      	cmp	r3, r2
 80059bc:	d110      	bne.n	80059e0 <HAL_TIM_Base_MspInit+0x5c>
 80059be:	4b0b      	ldr	r3, [pc, #44]	; (80059ec <HAL_TIM_Base_MspInit+0x68>)
 80059c0:	6e1a      	ldr	r2, [r3, #96]	; 0x60
 80059c2:	f442 3200 	orr.w	r2, r2, #131072	; 0x20000
 80059c6:	661a      	str	r2, [r3, #96]	; 0x60
 80059c8:	6e1b      	ldr	r3, [r3, #96]	; 0x60
 80059ca:	f403 3300 	and.w	r3, r3, #131072	; 0x20000
 80059ce:	9301      	str	r3, [sp, #4]
 80059d0:	2019      	movs	r0, #25
 80059d2:	2200      	movs	r2, #0
 80059d4:	2101      	movs	r1, #1
 80059d6:	9b01      	ldr	r3, [sp, #4]
 80059d8:	f000 fa6c 	bl	8005eb4 <HAL_NVIC_SetPriority>
 80059dc:	2019      	movs	r0, #25
 80059de:	e7e6      	b.n	80059ae <HAL_TIM_Base_MspInit+0x2a>
 80059e0:	b003      	add	sp, #12
 80059e2:	f85d fb04 	ldr.w	pc, [sp], #4
 80059e6:	bf00      	nop
 80059e8:	40001400 	.word	0x40001400
 80059ec:	40021000 	.word	0x40021000
 80059f0:	40014400 	.word	0x40014400

080059f4 <HAL_TIM_MspPostInit>:
 80059f4:	b510      	push	{r4, lr}
 80059f6:	4604      	mov	r4, r0
 80059f8:	b086      	sub	sp, #24
 80059fa:	2214      	movs	r2, #20
 80059fc:	2100      	movs	r1, #0
 80059fe:	a801      	add	r0, sp, #4
 8005a00:	f005 fd8a 	bl	800b518 <memset>
 8005a04:	6822      	ldr	r2, [r4, #0]
 8005a06:	4b0f      	ldr	r3, [pc, #60]	; (8005a44 <HAL_TIM_MspPostInit+0x50>)
 8005a08:	429a      	cmp	r2, r3
 8005a0a:	d118      	bne.n	8005a3e <HAL_TIM_MspPostInit+0x4a>
 8005a0c:	f503 434c 	add.w	r3, r3, #52224	; 0xcc00
 8005a10:	a901      	add	r1, sp, #4
 8005a12:	6cda      	ldr	r2, [r3, #76]	; 0x4c
 8005a14:	f042 0201 	orr.w	r2, r2, #1
 8005a18:	64da      	str	r2, [r3, #76]	; 0x4c
 8005a1a:	6cdb      	ldr	r3, [r3, #76]	; 0x4c
 8005a1c:	f003 0301 	and.w	r3, r3, #1
 8005a20:	9300      	str	r3, [sp, #0]
 8005a22:	9b00      	ldr	r3, [sp, #0]
 8005a24:	2240      	movs	r2, #64	; 0x40
 8005a26:	2302      	movs	r3, #2
 8005a28:	e9cd 2301 	strd	r2, r3, [sp, #4]
 8005a2c:	2300      	movs	r3, #0
 8005a2e:	e9cd 3303 	strd	r3, r3, [sp, #12]
 8005a32:	f04f 4090 	mov.w	r0, #1207959552	; 0x48000000
 8005a36:	230e      	movs	r3, #14
 8005a38:	9305      	str	r3, [sp, #20]
 8005a3a:	f000 fbcd 	bl	80061d8 <HAL_GPIO_Init>
 8005a3e:	b006      	add	sp, #24
 8005a40:	bd10      	pop	{r4, pc}
 8005a42:	bf00      	nop
 8005a44:	40014400 	.word	0x40014400

08005a48 <MX_TIM16_Init>:
 8005a48:	b510      	push	{r4, lr}
 8005a4a:	b092      	sub	sp, #72	; 0x48
 8005a4c:	221c      	movs	r2, #28
 8005a4e:	2100      	movs	r1, #0
 8005a50:	4668      	mov	r0, sp
 8005a52:	f005 fd61 	bl	800b518 <memset>
 8005a56:	222c      	movs	r2, #44	; 0x2c
 8005a58:	2100      	movs	r1, #0
 8005a5a:	a807      	add	r0, sp, #28
 8005a5c:	f005 fd5c 	bl	800b518 <memset>
 8005a60:	481f      	ldr	r0, [pc, #124]	; (8005ae0 <MX_TIM16_Init+0x98>)
 8005a62:	4920      	ldr	r1, [pc, #128]	; (8005ae4 <MX_TIM16_Init+0x9c>)
 8005a64:	f240 138f 	movw	r3, #399	; 0x18f
 8005a68:	e9c0 1300 	strd	r1, r3, [r0]
 8005a6c:	2209      	movs	r2, #9
 8005a6e:	2300      	movs	r3, #0
 8005a70:	e9c0 3202 	strd	r3, r2, [r0, #8]
 8005a74:	e9c0 3304 	strd	r3, r3, [r0, #16]
 8005a78:	6183      	str	r3, [r0, #24]
 8005a7a:	f002 ff83 	bl	8008984 <HAL_TIM_Base_Init>
 8005a7e:	b108      	cbz	r0, 8005a84 <MX_TIM16_Init+0x3c>
 8005a80:	f7ff fe88 	bl	8005794 <Error_Handler>
 8005a84:	4816      	ldr	r0, [pc, #88]	; (8005ae0 <MX_TIM16_Init+0x98>)
 8005a86:	f002 ffad 	bl	80089e4 <HAL_TIM_PWM_Init>
 8005a8a:	b108      	cbz	r0, 8005a90 <MX_TIM16_Init+0x48>
 8005a8c:	f7ff fe82 	bl	8005794 <Error_Handler>
 8005a90:	2400      	movs	r4, #0
 8005a92:	2260      	movs	r2, #96	; 0x60
 8005a94:	2305      	movs	r3, #5
 8005a96:	e9cd 2300 	strd	r2, r3, [sp]
 8005a9a:	4811      	ldr	r0, [pc, #68]	; (8005ae0 <MX_TIM16_Init+0x98>)
 8005a9c:	9406      	str	r4, [sp, #24]
 8005a9e:	4622      	mov	r2, r4
 8005aa0:	4669      	mov	r1, sp
 8005aa2:	e9cd 4402 	strd	r4, r4, [sp, #8]
 8005aa6:	e9cd 4404 	strd	r4, r4, [sp, #16]
 8005aaa:	f003 f803 	bl	8008ab4 <HAL_TIM_PWM_ConfigChannel>
 8005aae:	b108      	cbz	r0, 8005ab4 <MX_TIM16_Init+0x6c>
 8005ab0:	f7ff fe70 	bl	8005794 <Error_Handler>
 8005ab4:	f44f 5300 	mov.w	r3, #8192	; 0x2000
 8005ab8:	4809      	ldr	r0, [pc, #36]	; (8005ae0 <MX_TIM16_Init+0x98>)
 8005aba:	940b      	str	r4, [sp, #44]	; 0x2c
 8005abc:	a907      	add	r1, sp, #28
 8005abe:	e9cd 4407 	strd	r4, r4, [sp, #28]
 8005ac2:	e9cd 4409 	strd	r4, r4, [sp, #36]	; 0x24
 8005ac6:	930c      	str	r3, [sp, #48]	; 0x30
 8005ac8:	9411      	str	r4, [sp, #68]	; 0x44
 8005aca:	f003 f977 	bl	8008dbc <HAL_TIMEx_ConfigBreakDeadTime>
 8005ace:	b108      	cbz	r0, 8005ad4 <MX_TIM16_Init+0x8c>
 8005ad0:	f7ff fe60 	bl	8005794 <Error_Handler>
 8005ad4:	4802      	ldr	r0, [pc, #8]	; (8005ae0 <MX_TIM16_Init+0x98>)
 8005ad6:	f7ff ff8d 	bl	80059f4 <HAL_TIM_MspPostInit>
 8005ada:	b012      	add	sp, #72	; 0x48
 8005adc:	bd10      	pop	{r4, pc}
 8005ade:	bf00      	nop
 8005ae0:	2000248c 	.word	0x2000248c
 8005ae4:	40014400 	.word	0x40014400

08005ae8 <MX_USART1_UART_Init>:
 8005ae8:	480c      	ldr	r0, [pc, #48]	; (8005b1c <MX_USART1_UART_Init+0x34>)
 8005aea:	4a0d      	ldr	r2, [pc, #52]	; (8005b20 <MX_USART1_UART_Init+0x38>)
 8005aec:	b508      	push	{r3, lr}
 8005aee:	f44f 33e1 	mov.w	r3, #115200	; 0x1c200
 8005af2:	e9c0 2300 	strd	r2, r3, [r0]
 8005af6:	2300      	movs	r3, #0
 8005af8:	220c      	movs	r2, #12
 8005afa:	e9c0 3302 	strd	r3, r3, [r0, #8]
 8005afe:	e9c0 2305 	strd	r2, r3, [r0, #20]
 8005b02:	e9c0 3307 	strd	r3, r3, [r0, #28]
 8005b06:	6103      	str	r3, [r0, #16]
 8005b08:	6243      	str	r3, [r0, #36]	; 0x24
 8005b0a:	f003 fdd4 	bl	80096b6 <HAL_UART_Init>
 8005b0e:	b118      	cbz	r0, 8005b18 <MX_USART1_UART_Init+0x30>
 8005b10:	e8bd 4008 	ldmia.w	sp!, {r3, lr}
 8005b14:	f7ff be3e 	b.w	8005794 <Error_Handler>
 8005b18:	bd08      	pop	{r3, pc}
 8005b1a:	bf00      	nop
 8005b1c:	200025b4 	.word	0x200025b4
 8005b20:	40013800 	.word	0x40013800

08005b24 <MX_USART2_UART_Init>:
 8005b24:	480c      	ldr	r0, [pc, #48]	; (8005b58 <MX_USART2_UART_Init+0x34>)
 8005b26:	4a0d      	ldr	r2, [pc, #52]	; (8005b5c <MX_USART2_UART_Init+0x38>)
 8005b28:	b508      	push	{r3, lr}
 8005b2a:	f44f 5316 	mov.w	r3, #9600	; 0x2580
 8005b2e:	e9c0 2300 	strd	r2, r3, [r0]
 8005b32:	2300      	movs	r3, #0
 8005b34:	220c      	movs	r2, #12
 8005b36:	e9c0 3302 	strd	r3, r3, [r0, #8]
 8005b3a:	e9c0 2305 	strd	r2, r3, [r0, #20]
 8005b3e:	e9c0 3307 	strd	r3, r3, [r0, #28]
 8005b42:	6103      	str	r3, [r0, #16]
 8005b44:	6243      	str	r3, [r0, #36]	; 0x24
 8005b46:	f003 fdb6 	bl	80096b6 <HAL_UART_Init>
 8005b4a:	b118      	cbz	r0, 8005b54 <MX_USART2_UART_Init+0x30>
 8005b4c:	e8bd 4008 	ldmia.w	sp!, {r3, lr}
 8005b50:	f7ff be20 	b.w	8005794 <Error_Handler>
 8005b54:	bd08      	pop	{r3, pc}
 8005b56:	bf00      	nop
 8005b58:	20002638 	.word	0x20002638
 8005b5c:	40004400 	.word	0x40004400

08005b60 <MX_USART3_UART_Init>:
 8005b60:	480c      	ldr	r0, [pc, #48]	; (8005b94 <MX_USART3_UART_Init+0x34>)
 8005b62:	4a0d      	ldr	r2, [pc, #52]	; (8005b98 <MX_USART3_UART_Init+0x38>)
 8005b64:	b508      	push	{r3, lr}
 8005b66:	f44f 4316 	mov.w	r3, #38400	; 0x9600
 8005b6a:	e9c0 2300 	strd	r2, r3, [r0]
 8005b6e:	2300      	movs	r3, #0
 8005b70:	220c      	movs	r2, #12
 8005b72:	e9c0 3302 	strd	r3, r3, [r0, #8]
 8005b76:	e9c0 2305 	strd	r2, r3, [r0, #20]
 8005b7a:	e9c0 3307 	strd	r3, r3, [r0, #28]
 8005b7e:	6103      	str	r3, [r0, #16]
 8005b80:	6243      	str	r3, [r0, #36]	; 0x24
 8005b82:	f003 fd98 	bl	80096b6 <HAL_UART_Init>
 8005b86:	b118      	cbz	r0, 8005b90 <MX_USART3_UART_Init+0x30>
 8005b88:	e8bd 4008 	ldmia.w	sp!, {r3, lr}
 8005b8c:	f7ff be02 	b.w	8005794 <Error_Handler>
 8005b90:	bd08      	pop	{r3, pc}
 8005b92:	bf00      	nop
 8005b94:	200026bc 	.word	0x200026bc
 8005b98:	40004800 	.word	0x40004800

08005b9c <HAL_UART_MspInit>:
 8005b9c:	b5f0      	push	{r4, r5, r6, r7, lr}
 8005b9e:	4605      	mov	r5, r0
 8005ba0:	b08d      	sub	sp, #52	; 0x34
 8005ba2:	2214      	movs	r2, #20
 8005ba4:	2100      	movs	r1, #0
 8005ba6:	a807      	add	r0, sp, #28
 8005ba8:	f005 fcb6 	bl	800b518 <memset>
 8005bac:	682b      	ldr	r3, [r5, #0]
 8005bae:	4a6a      	ldr	r2, [pc, #424]	; (8005d58 <HAL_UART_MspInit+0x1bc>)
 8005bb0:	4293      	cmp	r3, r2
 8005bb2:	d141      	bne.n	8005c38 <HAL_UART_MspInit+0x9c>
 8005bb4:	4b69      	ldr	r3, [pc, #420]	; (8005d5c <HAL_UART_MspInit+0x1c0>)
 8005bb6:	4c6a      	ldr	r4, [pc, #424]	; (8005d60 <HAL_UART_MspInit+0x1c4>)
 8005bb8:	6e1a      	ldr	r2, [r3, #96]	; 0x60
 8005bba:	f442 4280 	orr.w	r2, r2, #16384	; 0x4000
 8005bbe:	661a      	str	r2, [r3, #96]	; 0x60
 8005bc0:	6e1a      	ldr	r2, [r3, #96]	; 0x60
 8005bc2:	f402 4280 	and.w	r2, r2, #16384	; 0x4000
 8005bc6:	9201      	str	r2, [sp, #4]
 8005bc8:	9a01      	ldr	r2, [sp, #4]
 8005bca:	6cda      	ldr	r2, [r3, #76]	; 0x4c
 8005bcc:	f042 0201 	orr.w	r2, r2, #1
 8005bd0:	64da      	str	r2, [r3, #76]	; 0x4c
 8005bd2:	6cdb      	ldr	r3, [r3, #76]	; 0x4c
 8005bd4:	f003 0301 	and.w	r3, r3, #1
 8005bd8:	9302      	str	r3, [sp, #8]
 8005bda:	9b02      	ldr	r3, [sp, #8]
 8005bdc:	2702      	movs	r7, #2
 8005bde:	f44f 63c0 	mov.w	r3, #1536	; 0x600
 8005be2:	2600      	movs	r6, #0
 8005be4:	e9cd 3707 	strd	r3, r7, [sp, #28]
 8005be8:	2303      	movs	r3, #3
 8005bea:	e9cd 6309 	strd	r6, r3, [sp, #36]	; 0x24
 8005bee:	f04f 4090 	mov.w	r0, #1207959552	; 0x48000000
 8005bf2:	2307      	movs	r3, #7
 8005bf4:	a907      	add	r1, sp, #28
 8005bf6:	930b      	str	r3, [sp, #44]	; 0x2c
 8005bf8:	f000 faee 	bl	80061d8 <HAL_GPIO_Init>
 8005bfc:	4b59      	ldr	r3, [pc, #356]	; (8005d64 <HAL_UART_MspInit+0x1c8>)
 8005bfe:	61a6      	str	r6, [r4, #24]
 8005c00:	e9c4 3700 	strd	r3, r7, [r4]
 8005c04:	2380      	movs	r3, #128	; 0x80
 8005c06:	e9c4 3604 	strd	r3, r6, [r4, #16]
 8005c0a:	4620      	mov	r0, r4
 8005c0c:	2320      	movs	r3, #32
 8005c0e:	e9c4 6602 	strd	r6, r6, [r4, #8]
 8005c12:	e9c4 3607 	strd	r3, r6, [r4, #28]
 8005c16:	f000 f9a3 	bl	8005f60 <HAL_DMA_Init>
 8005c1a:	b108      	cbz	r0, 8005c20 <HAL_UART_MspInit+0x84>
 8005c1c:	f7ff fdba 	bl	8005794 <Error_Handler>
 8005c20:	2025      	movs	r0, #37	; 0x25
 8005c22:	672c      	str	r4, [r5, #112]	; 0x70
 8005c24:	2200      	movs	r2, #0
 8005c26:	2103      	movs	r1, #3
 8005c28:	62a5      	str	r5, [r4, #40]	; 0x28
 8005c2a:	f000 f943 	bl	8005eb4 <HAL_NVIC_SetPriority>
 8005c2e:	2025      	movs	r0, #37	; 0x25
 8005c30:	f000 f972 	bl	8005f18 <HAL_NVIC_EnableIRQ>
 8005c34:	b00d      	add	sp, #52	; 0x34
 8005c36:	bdf0      	pop	{r4, r5, r6, r7, pc}
 8005c38:	4a4b      	ldr	r2, [pc, #300]	; (8005d68 <HAL_UART_MspInit+0x1cc>)
 8005c3a:	4293      	cmp	r3, r2
 8005c3c:	d149      	bne.n	8005cd2 <HAL_UART_MspInit+0x136>
 8005c3e:	4b47      	ldr	r3, [pc, #284]	; (8005d5c <HAL_UART_MspInit+0x1c0>)
 8005c40:	6d9a      	ldr	r2, [r3, #88]	; 0x58
 8005c42:	f442 3200 	orr.w	r2, r2, #131072	; 0x20000
 8005c46:	659a      	str	r2, [r3, #88]	; 0x58
 8005c48:	6d9a      	ldr	r2, [r3, #88]	; 0x58
 8005c4a:	f402 3200 	and.w	r2, r2, #131072	; 0x20000
 8005c4e:	9203      	str	r2, [sp, #12]
 8005c50:	9a03      	ldr	r2, [sp, #12]
 8005c52:	6cda      	ldr	r2, [r3, #76]	; 0x4c
 8005c54:	f042 0201 	orr.w	r2, r2, #1
 8005c58:	64da      	str	r2, [r3, #76]	; 0x4c
 8005c5a:	6cdb      	ldr	r3, [r3, #76]	; 0x4c
 8005c5c:	f003 0301 	and.w	r3, r3, #1
 8005c60:	9304      	str	r3, [sp, #16]
 8005c62:	2702      	movs	r7, #2
 8005c64:	9b04      	ldr	r3, [sp, #16]
 8005c66:	2304      	movs	r3, #4
 8005c68:	2600      	movs	r6, #0
 8005c6a:	2403      	movs	r4, #3
 8005c6c:	e9cd 3707 	strd	r3, r7, [sp, #28]
 8005c70:	a907      	add	r1, sp, #28
 8005c72:	2307      	movs	r3, #7
 8005c74:	f04f 4090 	mov.w	r0, #1207959552	; 0x48000000
 8005c78:	e9cd 6409 	strd	r6, r4, [sp, #36]	; 0x24
 8005c7c:	930b      	str	r3, [sp, #44]	; 0x2c
 8005c7e:	f000 faab 	bl	80061d8 <HAL_GPIO_Init>
 8005c82:	f44f 4300 	mov.w	r3, #32768	; 0x8000
 8005c86:	f04f 4090 	mov.w	r0, #1207959552	; 0x48000000
 8005c8a:	a907      	add	r1, sp, #28
 8005c8c:	e9cd 3707 	strd	r3, r7, [sp, #28]
 8005c90:	e9cd 6409 	strd	r6, r4, [sp, #36]	; 0x24
 8005c94:	940b      	str	r4, [sp, #44]	; 0x2c
 8005c96:	f000 fa9f 	bl	80061d8 <HAL_GPIO_Init>
 8005c9a:	4c34      	ldr	r4, [pc, #208]	; (8005d6c <HAL_UART_MspInit+0x1d0>)
 8005c9c:	4b34      	ldr	r3, [pc, #208]	; (8005d70 <HAL_UART_MspInit+0x1d4>)
 8005c9e:	61a6      	str	r6, [r4, #24]
 8005ca0:	e9c4 3700 	strd	r3, r7, [r4]
 8005ca4:	2380      	movs	r3, #128	; 0x80
 8005ca6:	e9c4 3604 	strd	r3, r6, [r4, #16]
 8005caa:	4620      	mov	r0, r4
 8005cac:	2320      	movs	r3, #32
 8005cae:	e9c4 6602 	strd	r6, r6, [r4, #8]
 8005cb2:	e9c4 3607 	strd	r3, r6, [r4, #28]
 8005cb6:	f000 f953 	bl	8005f60 <HAL_DMA_Init>
 8005cba:	b108      	cbz	r0, 8005cc0 <HAL_UART_MspInit+0x124>
 8005cbc:	f7ff fd6a 	bl	8005794 <Error_Handler>
 8005cc0:	2026      	movs	r0, #38	; 0x26
 8005cc2:	672c      	str	r4, [r5, #112]	; 0x70
 8005cc4:	2200      	movs	r2, #0
 8005cc6:	2102      	movs	r1, #2
 8005cc8:	62a5      	str	r5, [r4, #40]	; 0x28
 8005cca:	f000 f8f3 	bl	8005eb4 <HAL_NVIC_SetPriority>
 8005cce:	2026      	movs	r0, #38	; 0x26
 8005cd0:	e7ae      	b.n	8005c30 <HAL_UART_MspInit+0x94>
 8005cd2:	4a28      	ldr	r2, [pc, #160]	; (8005d74 <HAL_UART_MspInit+0x1d8>)
 8005cd4:	4293      	cmp	r3, r2
 8005cd6:	d1ad      	bne.n	8005c34 <HAL_UART_MspInit+0x98>
 8005cd8:	4b20      	ldr	r3, [pc, #128]	; (8005d5c <HAL_UART_MspInit+0x1c0>)
 8005cda:	4827      	ldr	r0, [pc, #156]	; (8005d78 <HAL_UART_MspInit+0x1dc>)
 8005cdc:	6d9a      	ldr	r2, [r3, #88]	; 0x58
 8005cde:	4c27      	ldr	r4, [pc, #156]	; (8005d7c <HAL_UART_MspInit+0x1e0>)
 8005ce0:	f442 2280 	orr.w	r2, r2, #262144	; 0x40000
 8005ce4:	659a      	str	r2, [r3, #88]	; 0x58
 8005ce6:	6d9a      	ldr	r2, [r3, #88]	; 0x58
 8005ce8:	f402 2280 	and.w	r2, r2, #262144	; 0x40000
 8005cec:	9205      	str	r2, [sp, #20]
 8005cee:	9a05      	ldr	r2, [sp, #20]
 8005cf0:	6cda      	ldr	r2, [r3, #76]	; 0x4c
 8005cf2:	f042 0202 	orr.w	r2, r2, #2
 8005cf6:	64da      	str	r2, [r3, #76]	; 0x4c
 8005cf8:	6cdb      	ldr	r3, [r3, #76]	; 0x4c
 8005cfa:	f003 0302 	and.w	r3, r3, #2
 8005cfe:	9306      	str	r3, [sp, #24]
 8005d00:	9b06      	ldr	r3, [sp, #24]
 8005d02:	2702      	movs	r7, #2
 8005d04:	f44f 6340 	mov.w	r3, #3072	; 0xc00
 8005d08:	2600      	movs	r6, #0
 8005d0a:	e9cd 3707 	strd	r3, r7, [sp, #28]
 8005d0e:	2303      	movs	r3, #3
 8005d10:	e9cd 6309 	strd	r6, r3, [sp, #36]	; 0x24
 8005d14:	a907      	add	r1, sp, #28
 8005d16:	2307      	movs	r3, #7
 8005d18:	930b      	str	r3, [sp, #44]	; 0x2c
 8005d1a:	f000 fa5d 	bl	80061d8 <HAL_GPIO_Init>
 8005d1e:	4b18      	ldr	r3, [pc, #96]	; (8005d80 <HAL_UART_MspInit+0x1e4>)
 8005d20:	61a6      	str	r6, [r4, #24]
 8005d22:	e9c4 3700 	strd	r3, r7, [r4]
 8005d26:	2380      	movs	r3, #128	; 0x80
 8005d28:	e9c4 3604 	strd	r3, r6, [r4, #16]
 8005d2c:	2220      	movs	r2, #32
 8005d2e:	f44f 5300 	mov.w	r3, #8192	; 0x2000
 8005d32:	4620      	mov	r0, r4
 8005d34:	e9c4 6602 	strd	r6, r6, [r4, #8]
 8005d38:	e9c4 2307 	strd	r2, r3, [r4, #28]
 8005d3c:	f000 f910 	bl	8005f60 <HAL_DMA_Init>
 8005d40:	b108      	cbz	r0, 8005d46 <HAL_UART_MspInit+0x1aa>
 8005d42:	f7ff fd27 	bl	8005794 <Error_Handler>
 8005d46:	2027      	movs	r0, #39	; 0x27
 8005d48:	672c      	str	r4, [r5, #112]	; 0x70
 8005d4a:	2200      	movs	r2, #0
 8005d4c:	2101      	movs	r1, #1
 8005d4e:	62a5      	str	r5, [r4, #40]	; 0x28
 8005d50:	f000 f8b0 	bl	8005eb4 <HAL_NVIC_SetPriority>
 8005d54:	2027      	movs	r0, #39	; 0x27
 8005d56:	e76b      	b.n	8005c30 <HAL_UART_MspInit+0x94>
 8005d58:	40013800 	.word	0x40013800
 8005d5c:	40021000 	.word	0x40021000
 8005d60:	20002524 	.word	0x20002524
 8005d64:	40020058 	.word	0x40020058
 8005d68:	40004400 	.word	0x40004400
 8005d6c:	20002740 	.word	0x20002740
 8005d70:	4002006c 	.word	0x4002006c
 8005d74:	40004800 	.word	0x40004800
 8005d78:	48000400 	.word	0x48000400
 8005d7c:	2000256c 	.word	0x2000256c
 8005d80:	40020030 	.word	0x40020030

08005d84 <Reset_Handler>:
 8005d84:	f8df d034 	ldr.w	sp, [pc, #52]	; 8005dbc <LoopForever+0x2>
 8005d88:	f7ff fdb4 	bl	80058f4 <SystemInit>
 8005d8c:	2100      	movs	r1, #0
 8005d8e:	e003      	b.n	8005d98 <LoopCopyDataInit>

08005d90 <CopyDataInit>:
 8005d90:	4b0b      	ldr	r3, [pc, #44]	; (8005dc0 <LoopForever+0x6>)
 8005d92:	585b      	ldr	r3, [r3, r1]
 8005d94:	5043      	str	r3, [r0, r1]
 8005d96:	3104      	adds	r1, #4

08005d98 <LoopCopyDataInit>:
 8005d98:	480a      	ldr	r0, [pc, #40]	; (8005dc4 <LoopForever+0xa>)
 8005d9a:	4b0b      	ldr	r3, [pc, #44]	; (8005dc8 <LoopForever+0xe>)
 8005d9c:	1842      	adds	r2, r0, r1
 8005d9e:	429a      	cmp	r2, r3
 8005da0:	d3f6      	bcc.n	8005d90 <CopyDataInit>
 8005da2:	4a0a      	ldr	r2, [pc, #40]	; (8005dcc <LoopForever+0x12>)
 8005da4:	e002      	b.n	8005dac <LoopFillZerobss>

08005da6 <FillZerobss>:
 8005da6:	2300      	movs	r3, #0
 8005da8:	f842 3b04 	str.w	r3, [r2], #4

08005dac <LoopFillZerobss>:
 8005dac:	4b08      	ldr	r3, [pc, #32]	; (8005dd0 <LoopForever+0x16>)
 8005dae:	429a      	cmp	r2, r3
 8005db0:	d3f9      	bcc.n	8005da6 <FillZerobss>
 8005db2:	f005 fb7f 	bl	800b4b4 <__libc_init_array>
 8005db6:	f7ff f94d 	bl	8005054 <main>

08005dba <LoopForever>:
 8005dba:	e7fe      	b.n	8005dba <LoopForever>
 8005dbc:	20010000 	.word	0x20010000
 8005dc0:	08010280 	.word	0x08010280
 8005dc4:	20000000 	.word	0x20000000
 8005dc8:	2000090c 	.word	0x2000090c
 8005dcc:	2000090c 	.word	0x2000090c
 8005dd0:	20002f60 	.word	0x20002f60

08005dd4 <ADC1_IRQHandler>:
 8005dd4:	e7fe      	b.n	8005dd4 <ADC1_IRQHandler>
	...

08005dd8 <HAL_InitTick>:
 8005dd8:	b538      	push	{r3, r4, r5, lr}
 8005dda:	4b0f      	ldr	r3, [pc, #60]	; (8005e18 <HAL_InitTick+0x40>)
 8005ddc:	4605      	mov	r5, r0
 8005dde:	7818      	ldrb	r0, [r3, #0]
 8005de0:	b908      	cbnz	r0, 8005de6 <HAL_InitTick+0xe>
 8005de2:	2001      	movs	r0, #1
 8005de4:	bd38      	pop	{r3, r4, r5, pc}
 8005de6:	4a0d      	ldr	r2, [pc, #52]	; (8005e1c <HAL_InitTick+0x44>)
 8005de8:	f44f 737a 	mov.w	r3, #1000	; 0x3e8
 8005dec:	fbb3 f3f0 	udiv	r3, r3, r0
 8005df0:	6810      	ldr	r0, [r2, #0]
 8005df2:	fbb0 f0f3 	udiv	r0, r0, r3
 8005df6:	f000 f89d 	bl	8005f34 <HAL_SYSTICK_Config>
 8005dfa:	4604      	mov	r4, r0
 8005dfc:	2800      	cmp	r0, #0
 8005dfe:	d1f0      	bne.n	8005de2 <HAL_InitTick+0xa>
 8005e00:	2d0f      	cmp	r5, #15
 8005e02:	d8ee      	bhi.n	8005de2 <HAL_InitTick+0xa>
 8005e04:	4602      	mov	r2, r0
 8005e06:	4629      	mov	r1, r5
 8005e08:	f04f 30ff 	mov.w	r0, #4294967295
 8005e0c:	f000 f852 	bl	8005eb4 <HAL_NVIC_SetPriority>
 8005e10:	4b03      	ldr	r3, [pc, #12]	; (8005e20 <HAL_InitTick+0x48>)
 8005e12:	4620      	mov	r0, r4
 8005e14:	601d      	str	r5, [r3, #0]
 8005e16:	e7e5      	b.n	8005de4 <HAL_InitTick+0xc>
 8005e18:	20000650 	.word	0x20000650
 8005e1c:	2000064c 	.word	0x2000064c
 8005e20:	20000654 	.word	0x20000654

08005e24 <HAL_Init>:
 8005e24:	b510      	push	{r4, lr}
 8005e26:	2003      	movs	r0, #3
 8005e28:	f000 f832 	bl	8005e90 <HAL_NVIC_SetPriorityGrouping>
 8005e2c:	2000      	movs	r0, #0
 8005e2e:	f7ff ffd3 	bl	8005dd8 <HAL_InitTick>
 8005e32:	4604      	mov	r4, r0
 8005e34:	b918      	cbnz	r0, 8005e3e <HAL_Init+0x1a>
 8005e36:	f7ff fcaf 	bl	8005798 <HAL_MspInit>
 8005e3a:	4620      	mov	r0, r4
 8005e3c:	bd10      	pop	{r4, pc}
 8005e3e:	2401      	movs	r4, #1
 8005e40:	e7fb      	b.n	8005e3a <HAL_Init+0x16>
	...

08005e44 <HAL_IncTick>:
 8005e44:	4a03      	ldr	r2, [pc, #12]	; (8005e54 <HAL_IncTick+0x10>)
 8005e46:	4b04      	ldr	r3, [pc, #16]	; (8005e58 <HAL_IncTick+0x14>)
 8005e48:	6811      	ldr	r1, [r2, #0]
 8005e4a:	781b      	ldrb	r3, [r3, #0]
 8005e4c:	440b      	add	r3, r1
 8005e4e:	6013      	str	r3, [r2, #0]
 8005e50:	4770      	bx	lr
 8005e52:	bf00      	nop
 8005e54:	20002788 	.word	0x20002788
 8005e58:	20000650 	.word	0x20000650

08005e5c <HAL_GetTick>:
 8005e5c:	4b01      	ldr	r3, [pc, #4]	; (8005e64 <HAL_GetTick+0x8>)
 8005e5e:	6818      	ldr	r0, [r3, #0]
 8005e60:	4770      	bx	lr
 8005e62:	bf00      	nop
 8005e64:	20002788 	.word	0x20002788

08005e68 <HAL_Delay>:
 8005e68:	b538      	push	{r3, r4, r5, lr}
 8005e6a:	4604      	mov	r4, r0
 8005e6c:	f7ff fff6 	bl	8005e5c <HAL_GetTick>
 8005e70:	1c63      	adds	r3, r4, #1
 8005e72:	bf1c      	itt	ne
 8005e74:	4b05      	ldrne	r3, [pc, #20]	; (8005e8c <HAL_Delay+0x24>)
 8005e76:	781b      	ldrbne	r3, [r3, #0]
 8005e78:	4605      	mov	r5, r0
 8005e7a:	bf18      	it	ne
 8005e7c:	18e4      	addne	r4, r4, r3
 8005e7e:	f7ff ffed 	bl	8005e5c <HAL_GetTick>
 8005e82:	1b43      	subs	r3, r0, r5
 8005e84:	42a3      	cmp	r3, r4
 8005e86:	d3fa      	bcc.n	8005e7e <HAL_Delay+0x16>
 8005e88:	bd38      	pop	{r3, r4, r5, pc}
 8005e8a:	bf00      	nop
 8005e8c:	20000650 	.word	0x20000650

08005e90 <HAL_NVIC_SetPriorityGrouping>:
 8005e90:	4907      	ldr	r1, [pc, #28]	; (8005eb0 <HAL_NVIC_SetPriorityGrouping+0x20>)
 8005e92:	68ca      	ldr	r2, [r1, #12]
 8005e94:	f422 62e0 	bic.w	r2, r2, #1792	; 0x700
 8005e98:	0203      	lsls	r3, r0, #8
 8005e9a:	0412      	lsls	r2, r2, #16
 8005e9c:	f403 63e0 	and.w	r3, r3, #1792	; 0x700
 8005ea0:	0c12      	lsrs	r2, r2, #16
 8005ea2:	4313      	orrs	r3, r2
 8005ea4:	f043 63bf 	orr.w	r3, r3, #100139008	; 0x5f80000
 8005ea8:	f443 3300 	orr.w	r3, r3, #131072	; 0x20000
 8005eac:	60cb      	str	r3, [r1, #12]
 8005eae:	4770      	bx	lr
 8005eb0:	e000ed00 	.word	0xe000ed00

08005eb4 <HAL_NVIC_SetPriority>:
 8005eb4:	4b16      	ldr	r3, [pc, #88]	; (8005f10 <HAL_NVIC_SetPriority+0x5c>)
 8005eb6:	b530      	push	{r4, r5, lr}
 8005eb8:	68dc      	ldr	r4, [r3, #12]
 8005eba:	f3c4 2402 	ubfx	r4, r4, #8, #3
 8005ebe:	f1c4 0507 	rsb	r5, r4, #7
 8005ec2:	1d23      	adds	r3, r4, #4
 8005ec4:	2d04      	cmp	r5, #4
 8005ec6:	bf28      	it	cs
 8005ec8:	2504      	movcs	r5, #4
 8005eca:	2b06      	cmp	r3, #6
 8005ecc:	f04f 33ff 	mov.w	r3, #4294967295
 8005ed0:	bf8c      	ite	hi
 8005ed2:	3c03      	subhi	r4, #3
 8005ed4:	2400      	movls	r4, #0
 8005ed6:	fa03 f505 	lsl.w	r5, r3, r5
 8005eda:	ea21 0105 	bic.w	r1, r1, r5
 8005ede:	40a3      	lsls	r3, r4
 8005ee0:	ea22 0203 	bic.w	r2, r2, r3
 8005ee4:	40a1      	lsls	r1, r4
 8005ee6:	2800      	cmp	r0, #0
 8005ee8:	ea41 0302 	orr.w	r3, r1, r2
 8005eec:	bfac      	ite	ge
 8005eee:	f100 4060 	addge.w	r0, r0, #3758096384	; 0xe0000000
 8005ef2:	4a08      	ldrlt	r2, [pc, #32]	; (8005f14 <HAL_NVIC_SetPriority+0x60>)
 8005ef4:	ea4f 1303 	mov.w	r3, r3, lsl #4
 8005ef8:	bfb8      	it	lt
 8005efa:	f000 000f 	andlt.w	r0, r0, #15
 8005efe:	b2db      	uxtb	r3, r3
 8005f00:	bfaa      	itet	ge
 8005f02:	f500 4061 	addge.w	r0, r0, #57600	; 0xe100
 8005f06:	5413      	strblt	r3, [r2, r0]
 8005f08:	f880 3300 	strbge.w	r3, [r0, #768]	; 0x300
 8005f0c:	bd30      	pop	{r4, r5, pc}
 8005f0e:	bf00      	nop
 8005f10:	e000ed00 	.word	0xe000ed00
 8005f14:	e000ed14 	.word	0xe000ed14

08005f18 <HAL_NVIC_EnableIRQ>:
 8005f18:	2800      	cmp	r0, #0
 8005f1a:	db08      	blt.n	8005f2e <HAL_NVIC_EnableIRQ+0x16>
 8005f1c:	2301      	movs	r3, #1
 8005f1e:	0942      	lsrs	r2, r0, #5
 8005f20:	f000 001f 	and.w	r0, r0, #31
 8005f24:	fa03 f000 	lsl.w	r0, r3, r0
 8005f28:	4b01      	ldr	r3, [pc, #4]	; (8005f30 <HAL_NVIC_EnableIRQ+0x18>)
 8005f2a:	f843 0022 	str.w	r0, [r3, r2, lsl #2]
 8005f2e:	4770      	bx	lr
 8005f30:	e000e100 	.word	0xe000e100

08005f34 <HAL_SYSTICK_Config>:
 8005f34:	3801      	subs	r0, #1
 8005f36:	f1b0 7f80 	cmp.w	r0, #16777216	; 0x1000000
 8005f3a:	d20a      	bcs.n	8005f52 <HAL_SYSTICK_Config+0x1e>
 8005f3c:	4b06      	ldr	r3, [pc, #24]	; (8005f58 <HAL_SYSTICK_Config+0x24>)
 8005f3e:	4a07      	ldr	r2, [pc, #28]	; (8005f5c <HAL_SYSTICK_Config+0x28>)
 8005f40:	6058      	str	r0, [r3, #4]
 8005f42:	21f0      	movs	r1, #240	; 0xf0
 8005f44:	f882 1023 	strb.w	r1, [r2, #35]	; 0x23
 8005f48:	2000      	movs	r0, #0
 8005f4a:	2207      	movs	r2, #7
 8005f4c:	6098      	str	r0, [r3, #8]
 8005f4e:	601a      	str	r2, [r3, #0]
 8005f50:	4770      	bx	lr
 8005f52:	2001      	movs	r0, #1
 8005f54:	4770      	bx	lr
 8005f56:	bf00      	nop
 8005f58:	e000e010 	.word	0xe000e010
 8005f5c:	e000ed00 	.word	0xe000ed00

08005f60 <HAL_DMA_Init>:
 8005f60:	b530      	push	{r4, r5, lr}
 8005f62:	2800      	cmp	r0, #0
 8005f64:	d058      	beq.n	8006018 <HAL_DMA_Init+0xb8>
 8005f66:	6801      	ldr	r1, [r0, #0]
 8005f68:	4b2c      	ldr	r3, [pc, #176]	; (800601c <HAL_DMA_Init+0xbc>)
 8005f6a:	4299      	cmp	r1, r3
 8005f6c:	f04f 0414 	mov.w	r4, #20
 8005f70:	d842      	bhi.n	8005ff8 <HAL_DMA_Init+0x98>
 8005f72:	4a2b      	ldr	r2, [pc, #172]	; (8006020 <HAL_DMA_Init+0xc0>)
 8005f74:	440a      	add	r2, r1
 8005f76:	fbb2 f2f4 	udiv	r2, r2, r4
 8005f7a:	0092      	lsls	r2, r2, #2
 8005f7c:	6442      	str	r2, [r0, #68]	; 0x44
 8005f7e:	f2a3 4307 	subw	r3, r3, #1031	; 0x407
 8005f82:	6403      	str	r3, [r0, #64]	; 0x40
 8005f84:	2302      	movs	r3, #2
 8005f86:	f880 3025 	strb.w	r3, [r0, #37]	; 0x25
 8005f8a:	e9d0 4302 	ldrd	r4, r3, [r0, #8]
 8005f8e:	6905      	ldr	r5, [r0, #16]
 8005f90:	680a      	ldr	r2, [r1, #0]
 8005f92:	4323      	orrs	r3, r4
 8005f94:	432b      	orrs	r3, r5
 8005f96:	6945      	ldr	r5, [r0, #20]
 8005f98:	432b      	orrs	r3, r5
 8005f9a:	6985      	ldr	r5, [r0, #24]
 8005f9c:	432b      	orrs	r3, r5
 8005f9e:	69c5      	ldr	r5, [r0, #28]
 8005fa0:	432b      	orrs	r3, r5
 8005fa2:	6a05      	ldr	r5, [r0, #32]
 8005fa4:	f422 42ff 	bic.w	r2, r2, #32640	; 0x7f80
 8005fa8:	f022 0270 	bic.w	r2, r2, #112	; 0x70
 8005fac:	432b      	orrs	r3, r5
 8005fae:	4313      	orrs	r3, r2
 8005fb0:	f5b4 4f80 	cmp.w	r4, #16384	; 0x4000
 8005fb4:	600b      	str	r3, [r1, #0]
 8005fb6:	d016      	beq.n	8005fe6 <HAL_DMA_Init+0x86>
 8005fb8:	6c41      	ldr	r1, [r0, #68]	; 0x44
 8005fba:	6c04      	ldr	r4, [r0, #64]	; 0x40
 8005fbc:	f001 021c 	and.w	r2, r1, #28
 8005fc0:	6841      	ldr	r1, [r0, #4]
 8005fc2:	230f      	movs	r3, #15
 8005fc4:	4093      	lsls	r3, r2
 8005fc6:	4091      	lsls	r1, r2
 8005fc8:	4a16      	ldr	r2, [pc, #88]	; (8006024 <HAL_DMA_Init+0xc4>)
 8005fca:	4294      	cmp	r4, r2
 8005fcc:	ea6f 0303 	mvn.w	r3, r3
 8005fd0:	d11a      	bne.n	8006008 <HAL_DMA_Init+0xa8>
 8005fd2:	f8d2 40a8 	ldr.w	r4, [r2, #168]	; 0xa8
 8005fd6:	4023      	ands	r3, r4
 8005fd8:	f8c2 30a8 	str.w	r3, [r2, #168]	; 0xa8
 8005fdc:	f8d2 30a8 	ldr.w	r3, [r2, #168]	; 0xa8
 8005fe0:	4319      	orrs	r1, r3
 8005fe2:	f8c2 10a8 	str.w	r1, [r2, #168]	; 0xa8
 8005fe6:	2300      	movs	r3, #0
 8005fe8:	2201      	movs	r2, #1
 8005fea:	63c3      	str	r3, [r0, #60]	; 0x3c
 8005fec:	f880 3024 	strb.w	r3, [r0, #36]	; 0x24
 8005ff0:	f880 2025 	strb.w	r2, [r0, #37]	; 0x25
 8005ff4:	4618      	mov	r0, r3
 8005ff6:	bd30      	pop	{r4, r5, pc}
 8005ff8:	4b0b      	ldr	r3, [pc, #44]	; (8006028 <HAL_DMA_Init+0xc8>)
 8005ffa:	440b      	add	r3, r1
 8005ffc:	fbb3 f3f4 	udiv	r3, r3, r4
 8006000:	009b      	lsls	r3, r3, #2
 8006002:	6443      	str	r3, [r0, #68]	; 0x44
 8006004:	4b09      	ldr	r3, [pc, #36]	; (800602c <HAL_DMA_Init+0xcc>)
 8006006:	e7bc      	b.n	8005f82 <HAL_DMA_Init+0x22>
 8006008:	4a09      	ldr	r2, [pc, #36]	; (8006030 <HAL_DMA_Init+0xd0>)
 800600a:	6814      	ldr	r4, [r2, #0]
 800600c:	4023      	ands	r3, r4
 800600e:	6013      	str	r3, [r2, #0]
 8006010:	6813      	ldr	r3, [r2, #0]
 8006012:	4319      	orrs	r1, r3
 8006014:	6011      	str	r1, [r2, #0]
 8006016:	e7e6      	b.n	8005fe6 <HAL_DMA_Init+0x86>
 8006018:	2001      	movs	r0, #1
 800601a:	e7ec      	b.n	8005ff6 <HAL_DMA_Init+0x96>
 800601c:	40020407 	.word	0x40020407
 8006020:	bffdfff8 	.word	0xbffdfff8
 8006024:	40020000 	.word	0x40020000
 8006028:	bffdfbf8 	.word	0xbffdfbf8
 800602c:	40020400 	.word	0x40020400
 8006030:	400204a8 	.word	0x400204a8

08006034 <HAL_DMA_Start_IT>:
 8006034:	b5f0      	push	{r4, r5, r6, r7, lr}
 8006036:	f890 4024 	ldrb.w	r4, [r0, #36]	; 0x24
 800603a:	2c01      	cmp	r4, #1
 800603c:	d037      	beq.n	80060ae <HAL_DMA_Start_IT+0x7a>
 800603e:	2401      	movs	r4, #1
 8006040:	f880 4024 	strb.w	r4, [r0, #36]	; 0x24
 8006044:	f890 4025 	ldrb.w	r4, [r0, #37]	; 0x25
 8006048:	2c01      	cmp	r4, #1
 800604a:	b2e5      	uxtb	r5, r4
 800604c:	f04f 0600 	mov.w	r6, #0
 8006050:	f04f 0402 	mov.w	r4, #2
 8006054:	d129      	bne.n	80060aa <HAL_DMA_Start_IT+0x76>
 8006056:	f880 4025 	strb.w	r4, [r0, #37]	; 0x25
 800605a:	6804      	ldr	r4, [r0, #0]
 800605c:	63c6      	str	r6, [r0, #60]	; 0x3c
 800605e:	6826      	ldr	r6, [r4, #0]
 8006060:	f026 0601 	bic.w	r6, r6, #1
 8006064:	6026      	str	r6, [r4, #0]
 8006066:	e9d0 6710 	ldrd	r6, r7, [r0, #64]	; 0x40
 800606a:	f007 071c 	and.w	r7, r7, #28
 800606e:	40bd      	lsls	r5, r7
 8006070:	6075      	str	r5, [r6, #4]
 8006072:	6063      	str	r3, [r4, #4]
 8006074:	6883      	ldr	r3, [r0, #8]
 8006076:	2b10      	cmp	r3, #16
 8006078:	6b03      	ldr	r3, [r0, #48]	; 0x30
 800607a:	bf0b      	itete	eq
 800607c:	60a2      	streq	r2, [r4, #8]
 800607e:	60a1      	strne	r1, [r4, #8]
 8006080:	60e1      	streq	r1, [r4, #12]
 8006082:	60e2      	strne	r2, [r4, #12]
 8006084:	b14b      	cbz	r3, 800609a <HAL_DMA_Start_IT+0x66>
 8006086:	6823      	ldr	r3, [r4, #0]
 8006088:	f043 030e 	orr.w	r3, r3, #14
 800608c:	6023      	str	r3, [r4, #0]
 800608e:	6823      	ldr	r3, [r4, #0]
 8006090:	f043 0301 	orr.w	r3, r3, #1
 8006094:	6023      	str	r3, [r4, #0]
 8006096:	2000      	movs	r0, #0
 8006098:	bdf0      	pop	{r4, r5, r6, r7, pc}
 800609a:	6823      	ldr	r3, [r4, #0]
 800609c:	f023 0304 	bic.w	r3, r3, #4
 80060a0:	6023      	str	r3, [r4, #0]
 80060a2:	6823      	ldr	r3, [r4, #0]
 80060a4:	f043 030a 	orr.w	r3, r3, #10
 80060a8:	e7f0      	b.n	800608c <HAL_DMA_Start_IT+0x58>
 80060aa:	f880 6024 	strb.w	r6, [r0, #36]	; 0x24
 80060ae:	2002      	movs	r0, #2
 80060b0:	e7f2      	b.n	8006098 <HAL_DMA_Start_IT+0x64>

080060b2 <HAL_DMA_Abort>:
 80060b2:	f890 3025 	ldrb.w	r3, [r0, #37]	; 0x25
 80060b6:	2b02      	cmp	r3, #2
 80060b8:	d006      	beq.n	80060c8 <HAL_DMA_Abort+0x16>
 80060ba:	2304      	movs	r3, #4
 80060bc:	63c3      	str	r3, [r0, #60]	; 0x3c
 80060be:	2300      	movs	r3, #0
 80060c0:	f880 3024 	strb.w	r3, [r0, #36]	; 0x24
 80060c4:	2001      	movs	r0, #1
 80060c6:	4770      	bx	lr
 80060c8:	6803      	ldr	r3, [r0, #0]
 80060ca:	681a      	ldr	r2, [r3, #0]
 80060cc:	f022 020e 	bic.w	r2, r2, #14
 80060d0:	601a      	str	r2, [r3, #0]
 80060d2:	681a      	ldr	r2, [r3, #0]
 80060d4:	f022 0201 	bic.w	r2, r2, #1
 80060d8:	601a      	str	r2, [r3, #0]
 80060da:	e9d0 1310 	ldrd	r1, r3, [r0, #64]	; 0x40
 80060de:	2201      	movs	r2, #1
 80060e0:	f003 031c 	and.w	r3, r3, #28
 80060e4:	fa02 f303 	lsl.w	r3, r2, r3
 80060e8:	604b      	str	r3, [r1, #4]
 80060ea:	2300      	movs	r3, #0
 80060ec:	f880 2025 	strb.w	r2, [r0, #37]	; 0x25
 80060f0:	f880 3024 	strb.w	r3, [r0, #36]	; 0x24
 80060f4:	4618      	mov	r0, r3
 80060f6:	4770      	bx	lr

080060f8 <HAL_DMA_Abort_IT>:
 80060f8:	b510      	push	{r4, lr}
 80060fa:	f890 2025 	ldrb.w	r2, [r0, #37]	; 0x25
 80060fe:	2a02      	cmp	r2, #2
 8006100:	d003      	beq.n	800610a <HAL_DMA_Abort_IT+0x12>
 8006102:	2204      	movs	r2, #4
 8006104:	63c2      	str	r2, [r0, #60]	; 0x3c
 8006106:	2001      	movs	r0, #1
 8006108:	bd10      	pop	{r4, pc}
 800610a:	6802      	ldr	r2, [r0, #0]
 800610c:	6b83      	ldr	r3, [r0, #56]	; 0x38
 800610e:	6811      	ldr	r1, [r2, #0]
 8006110:	f021 010e 	bic.w	r1, r1, #14
 8006114:	6011      	str	r1, [r2, #0]
 8006116:	6811      	ldr	r1, [r2, #0]
 8006118:	f021 0101 	bic.w	r1, r1, #1
 800611c:	6011      	str	r1, [r2, #0]
 800611e:	e9d0 4210 	ldrd	r4, r2, [r0, #64]	; 0x40
 8006122:	2101      	movs	r1, #1
 8006124:	f002 021c 	and.w	r2, r2, #28
 8006128:	fa01 f202 	lsl.w	r2, r1, r2
 800612c:	6062      	str	r2, [r4, #4]
 800612e:	2400      	movs	r4, #0
 8006130:	f880 1025 	strb.w	r1, [r0, #37]	; 0x25
 8006134:	f880 4024 	strb.w	r4, [r0, #36]	; 0x24
 8006138:	b113      	cbz	r3, 8006140 <HAL_DMA_Abort_IT+0x48>
 800613a:	4798      	blx	r3
 800613c:	4620      	mov	r0, r4
 800613e:	e7e3      	b.n	8006108 <HAL_DMA_Abort_IT+0x10>
 8006140:	4618      	mov	r0, r3
 8006142:	e7e1      	b.n	8006108 <HAL_DMA_Abort_IT+0x10>

08006144 <HAL_DMA_IRQHandler>:
 8006144:	6c01      	ldr	r1, [r0, #64]	; 0x40
 8006146:	6c42      	ldr	r2, [r0, #68]	; 0x44
 8006148:	6803      	ldr	r3, [r0, #0]
 800614a:	b470      	push	{r4, r5, r6}
 800614c:	f002 021c 	and.w	r2, r2, #28
 8006150:	680e      	ldr	r6, [r1, #0]
 8006152:	681d      	ldr	r5, [r3, #0]
 8006154:	2404      	movs	r4, #4
 8006156:	4094      	lsls	r4, r2
 8006158:	4234      	tst	r4, r6
 800615a:	d00e      	beq.n	800617a <HAL_DMA_IRQHandler+0x36>
 800615c:	f015 0f04 	tst.w	r5, #4
 8006160:	d00b      	beq.n	800617a <HAL_DMA_IRQHandler+0x36>
 8006162:	681a      	ldr	r2, [r3, #0]
 8006164:	0692      	lsls	r2, r2, #26
 8006166:	bf5e      	ittt	pl
 8006168:	681a      	ldrpl	r2, [r3, #0]
 800616a:	f022 0204 	bicpl.w	r2, r2, #4
 800616e:	601a      	strpl	r2, [r3, #0]
 8006170:	6b03      	ldr	r3, [r0, #48]	; 0x30
 8006172:	604c      	str	r4, [r1, #4]
 8006174:	b373      	cbz	r3, 80061d4 <HAL_DMA_IRQHandler+0x90>
 8006176:	bc70      	pop	{r4, r5, r6}
 8006178:	4718      	bx	r3
 800617a:	2402      	movs	r4, #2
 800617c:	4094      	lsls	r4, r2
 800617e:	4234      	tst	r4, r6
 8006180:	d012      	beq.n	80061a8 <HAL_DMA_IRQHandler+0x64>
 8006182:	f015 0f02 	tst.w	r5, #2
 8006186:	d00f      	beq.n	80061a8 <HAL_DMA_IRQHandler+0x64>
 8006188:	681a      	ldr	r2, [r3, #0]
 800618a:	0695      	lsls	r5, r2, #26
 800618c:	d406      	bmi.n	800619c <HAL_DMA_IRQHandler+0x58>
 800618e:	681a      	ldr	r2, [r3, #0]
 8006190:	f022 020a 	bic.w	r2, r2, #10
 8006194:	601a      	str	r2, [r3, #0]
 8006196:	2301      	movs	r3, #1
 8006198:	f880 3025 	strb.w	r3, [r0, #37]	; 0x25
 800619c:	2300      	movs	r3, #0
 800619e:	604c      	str	r4, [r1, #4]
 80061a0:	f880 3024 	strb.w	r3, [r0, #36]	; 0x24
 80061a4:	6ac3      	ldr	r3, [r0, #44]	; 0x2c
 80061a6:	e7e5      	b.n	8006174 <HAL_DMA_IRQHandler+0x30>
 80061a8:	2408      	movs	r4, #8
 80061aa:	4094      	lsls	r4, r2
 80061ac:	4234      	tst	r4, r6
 80061ae:	d011      	beq.n	80061d4 <HAL_DMA_IRQHandler+0x90>
 80061b0:	072c      	lsls	r4, r5, #28
 80061b2:	d50f      	bpl.n	80061d4 <HAL_DMA_IRQHandler+0x90>
 80061b4:	681c      	ldr	r4, [r3, #0]
 80061b6:	f024 040e 	bic.w	r4, r4, #14
 80061ba:	601c      	str	r4, [r3, #0]
 80061bc:	2301      	movs	r3, #1
 80061be:	fa03 f202 	lsl.w	r2, r3, r2
 80061c2:	604a      	str	r2, [r1, #4]
 80061c4:	63c3      	str	r3, [r0, #60]	; 0x3c
 80061c6:	f880 3025 	strb.w	r3, [r0, #37]	; 0x25
 80061ca:	2300      	movs	r3, #0
 80061cc:	f880 3024 	strb.w	r3, [r0, #36]	; 0x24
 80061d0:	6b43      	ldr	r3, [r0, #52]	; 0x34
 80061d2:	e7cf      	b.n	8006174 <HAL_DMA_IRQHandler+0x30>
 80061d4:	bc70      	pop	{r4, r5, r6}
 80061d6:	4770      	bx	lr

080061d8 <HAL_GPIO_Init>:
 80061d8:	e92d 4ff7 	stmdb	sp!, {r0, r1, r2, r4, r5, r6, r7, r8, r9, sl, fp, lr}
 80061dc:	f8df 8180 	ldr.w	r8, [pc, #384]	; 8006360 <HAL_GPIO_Init+0x188>
 80061e0:	4c5d      	ldr	r4, [pc, #372]	; (8006358 <HAL_GPIO_Init+0x180>)
 80061e2:	2300      	movs	r3, #0
 80061e4:	f04f 0901 	mov.w	r9, #1
 80061e8:	680a      	ldr	r2, [r1, #0]
 80061ea:	fa32 f503 	lsrs.w	r5, r2, r3
 80061ee:	d102      	bne.n	80061f6 <HAL_GPIO_Init+0x1e>
 80061f0:	b003      	add	sp, #12
 80061f2:	e8bd 8ff0 	ldmia.w	sp!, {r4, r5, r6, r7, r8, r9, sl, fp, pc}
 80061f6:	fa09 fc03 	lsl.w	ip, r9, r3
 80061fa:	ea1c 0202 	ands.w	r2, ip, r2
 80061fe:	f000 80a0 	beq.w	8006342 <HAL_GPIO_Init+0x16a>
 8006202:	684d      	ldr	r5, [r1, #4]
 8006204:	f025 0a10 	bic.w	sl, r5, #16
 8006208:	ea4f 0e43 	mov.w	lr, r3, lsl #1
 800620c:	2603      	movs	r6, #3
 800620e:	f10a 37ff 	add.w	r7, sl, #4294967295
 8006212:	fa06 f60e 	lsl.w	r6, r6, lr
 8006216:	2f01      	cmp	r7, #1
 8006218:	ea6f 0606 	mvn.w	r6, r6
 800621c:	d811      	bhi.n	8006242 <HAL_GPIO_Init+0x6a>
 800621e:	6887      	ldr	r7, [r0, #8]
 8006220:	ea07 0b06 	and.w	fp, r7, r6
 8006224:	68cf      	ldr	r7, [r1, #12]
 8006226:	fa07 f70e 	lsl.w	r7, r7, lr
 800622a:	ea47 070b 	orr.w	r7, r7, fp
 800622e:	6087      	str	r7, [r0, #8]
 8006230:	6847      	ldr	r7, [r0, #4]
 8006232:	ea27 0c0c 	bic.w	ip, r7, ip
 8006236:	f3c5 1700 	ubfx	r7, r5, #4, #1
 800623a:	409f      	lsls	r7, r3
 800623c:	ea47 070c 	orr.w	r7, r7, ip
 8006240:	6047      	str	r7, [r0, #4]
 8006242:	68c7      	ldr	r7, [r0, #12]
 8006244:	ea07 0c06 	and.w	ip, r7, r6
 8006248:	688f      	ldr	r7, [r1, #8]
 800624a:	fa07 f70e 	lsl.w	r7, r7, lr
 800624e:	ea47 070c 	orr.w	r7, r7, ip
 8006252:	f1ba 0f02 	cmp.w	sl, #2
 8006256:	60c7      	str	r7, [r0, #12]
 8006258:	d116      	bne.n	8006288 <HAL_GPIO_Init+0xb0>
 800625a:	ea4f 0ad3 	mov.w	sl, r3, lsr #3
 800625e:	eb00 0a8a 	add.w	sl, r0, sl, lsl #2
 8006262:	f003 0b07 	and.w	fp, r3, #7
 8006266:	f8da 7020 	ldr.w	r7, [sl, #32]
 800626a:	ea4f 0b8b 	mov.w	fp, fp, lsl #2
 800626e:	f04f 0c0f 	mov.w	ip, #15
 8006272:	fa0c fc0b 	lsl.w	ip, ip, fp
 8006276:	ea27 0c0c 	bic.w	ip, r7, ip
 800627a:	690f      	ldr	r7, [r1, #16]
 800627c:	fa07 f70b 	lsl.w	r7, r7, fp
 8006280:	ea47 070c 	orr.w	r7, r7, ip
 8006284:	f8ca 7020 	str.w	r7, [sl, #32]
 8006288:	6807      	ldr	r7, [r0, #0]
 800628a:	403e      	ands	r6, r7
 800628c:	f005 0703 	and.w	r7, r5, #3
 8006290:	fa07 fe0e 	lsl.w	lr, r7, lr
 8006294:	ea4e 0606 	orr.w	r6, lr, r6
 8006298:	6006      	str	r6, [r0, #0]
 800629a:	00ee      	lsls	r6, r5, #3
 800629c:	d551      	bpl.n	8006342 <HAL_GPIO_Init+0x16a>
 800629e:	f8d8 6060 	ldr.w	r6, [r8, #96]	; 0x60
 80062a2:	f046 0601 	orr.w	r6, r6, #1
 80062a6:	f8c8 6060 	str.w	r6, [r8, #96]	; 0x60
 80062aa:	f8d8 6060 	ldr.w	r6, [r8, #96]	; 0x60
 80062ae:	f023 0703 	bic.w	r7, r3, #3
 80062b2:	f107 4780 	add.w	r7, r7, #1073741824	; 0x40000000
 80062b6:	f006 0601 	and.w	r6, r6, #1
 80062ba:	f507 3780 	add.w	r7, r7, #65536	; 0x10000
 80062be:	9601      	str	r6, [sp, #4]
 80062c0:	f003 0e03 	and.w	lr, r3, #3
 80062c4:	9e01      	ldr	r6, [sp, #4]
 80062c6:	68be      	ldr	r6, [r7, #8]
 80062c8:	ea4f 0e8e 	mov.w	lr, lr, lsl #2
 80062cc:	f04f 0c0f 	mov.w	ip, #15
 80062d0:	fa0c fc0e 	lsl.w	ip, ip, lr
 80062d4:	f1b0 4f90 	cmp.w	r0, #1207959552	; 0x48000000
 80062d8:	ea26 0c0c 	bic.w	ip, r6, ip
 80062dc:	d033      	beq.n	8006346 <HAL_GPIO_Init+0x16e>
 80062de:	4e1f      	ldr	r6, [pc, #124]	; (800635c <HAL_GPIO_Init+0x184>)
 80062e0:	42b0      	cmp	r0, r6
 80062e2:	d032      	beq.n	800634a <HAL_GPIO_Init+0x172>
 80062e4:	f506 6680 	add.w	r6, r6, #1024	; 0x400
 80062e8:	42b0      	cmp	r0, r6
 80062ea:	d030      	beq.n	800634e <HAL_GPIO_Init+0x176>
 80062ec:	f506 6680 	add.w	r6, r6, #1024	; 0x400
 80062f0:	42b0      	cmp	r0, r6
 80062f2:	d02e      	beq.n	8006352 <HAL_GPIO_Init+0x17a>
 80062f4:	f506 6680 	add.w	r6, r6, #1024	; 0x400
 80062f8:	42b0      	cmp	r0, r6
 80062fa:	bf0c      	ite	eq
 80062fc:	2604      	moveq	r6, #4
 80062fe:	2607      	movne	r6, #7
 8006300:	fa06 f60e 	lsl.w	r6, r6, lr
 8006304:	ea46 060c 	orr.w	r6, r6, ip
 8006308:	60be      	str	r6, [r7, #8]
 800630a:	6826      	ldr	r6, [r4, #0]
 800630c:	43d7      	mvns	r7, r2
 800630e:	f415 3f80 	tst.w	r5, #65536	; 0x10000
 8006312:	bf0c      	ite	eq
 8006314:	403e      	andeq	r6, r7
 8006316:	4316      	orrne	r6, r2
 8006318:	6026      	str	r6, [r4, #0]
 800631a:	6866      	ldr	r6, [r4, #4]
 800631c:	f415 3f00 	tst.w	r5, #131072	; 0x20000
 8006320:	bf0c      	ite	eq
 8006322:	403e      	andeq	r6, r7
 8006324:	4316      	orrne	r6, r2
 8006326:	6066      	str	r6, [r4, #4]
 8006328:	68a6      	ldr	r6, [r4, #8]
 800632a:	f415 1f80 	tst.w	r5, #1048576	; 0x100000
 800632e:	bf0c      	ite	eq
 8006330:	403e      	andeq	r6, r7
 8006332:	4316      	orrne	r6, r2
 8006334:	60a6      	str	r6, [r4, #8]
 8006336:	68e6      	ldr	r6, [r4, #12]
 8006338:	02ad      	lsls	r5, r5, #10
 800633a:	bf54      	ite	pl
 800633c:	403e      	andpl	r6, r7
 800633e:	4316      	orrmi	r6, r2
 8006340:	60e6      	str	r6, [r4, #12]
 8006342:	3301      	adds	r3, #1
 8006344:	e750      	b.n	80061e8 <HAL_GPIO_Init+0x10>
 8006346:	2600      	movs	r6, #0
 8006348:	e7da      	b.n	8006300 <HAL_GPIO_Init+0x128>
 800634a:	2601      	movs	r6, #1
 800634c:	e7d8      	b.n	8006300 <HAL_GPIO_Init+0x128>
 800634e:	2602      	movs	r6, #2
 8006350:	e7d6      	b.n	8006300 <HAL_GPIO_Init+0x128>
 8006352:	2603      	movs	r6, #3
 8006354:	e7d4      	b.n	8006300 <HAL_GPIO_Init+0x128>
 8006356:	bf00      	nop
 8006358:	40010400 	.word	0x40010400
 800635c:	48000400 	.word	0x48000400
 8006360:	40021000 	.word	0x40021000

08006364 <HAL_GPIO_DeInit>:
 8006364:	4a3a      	ldr	r2, [pc, #232]	; (8006450 <HAL_GPIO_DeInit+0xec>)
 8006366:	e92d 4ff0 	stmdb	sp!, {r4, r5, r6, r7, r8, r9, sl, fp, lr}
 800636a:	2300      	movs	r3, #0
 800636c:	f04f 0a01 	mov.w	sl, #1
 8006370:	f04f 080f 	mov.w	r8, #15
 8006374:	f04f 0b03 	mov.w	fp, #3
 8006378:	fa31 f403 	lsrs.w	r4, r1, r3
 800637c:	d101      	bne.n	8006382 <HAL_GPIO_DeInit+0x1e>
 800637e:	e8bd 8ff0 	ldmia.w	sp!, {r4, r5, r6, r7, r8, r9, sl, fp, pc}
 8006382:	fa0a fc03 	lsl.w	ip, sl, r3
 8006386:	ea1c 0601 	ands.w	r6, ip, r1
 800638a:	d056      	beq.n	800643a <HAL_GPIO_DeInit+0xd6>
 800638c:	f023 0403 	bic.w	r4, r3, #3
 8006390:	f104 4480 	add.w	r4, r4, #1073741824	; 0x40000000
 8006394:	f504 3480 	add.w	r4, r4, #65536	; 0x10000
 8006398:	f003 0703 	and.w	r7, r3, #3
 800639c:	68a5      	ldr	r5, [r4, #8]
 800639e:	00bf      	lsls	r7, r7, #2
 80063a0:	fa08 f907 	lsl.w	r9, r8, r7
 80063a4:	f1b0 4f90 	cmp.w	r0, #1207959552	; 0x48000000
 80063a8:	ea09 0e05 	and.w	lr, r9, r5
 80063ac:	d047      	beq.n	800643e <HAL_GPIO_DeInit+0xda>
 80063ae:	4d29      	ldr	r5, [pc, #164]	; (8006454 <HAL_GPIO_DeInit+0xf0>)
 80063b0:	42a8      	cmp	r0, r5
 80063b2:	d046      	beq.n	8006442 <HAL_GPIO_DeInit+0xde>
 80063b4:	f505 6580 	add.w	r5, r5, #1024	; 0x400
 80063b8:	42a8      	cmp	r0, r5
 80063ba:	d044      	beq.n	8006446 <HAL_GPIO_DeInit+0xe2>
 80063bc:	f505 6580 	add.w	r5, r5, #1024	; 0x400
 80063c0:	42a8      	cmp	r0, r5
 80063c2:	d042      	beq.n	800644a <HAL_GPIO_DeInit+0xe6>
 80063c4:	f505 6580 	add.w	r5, r5, #1024	; 0x400
 80063c8:	42a8      	cmp	r0, r5
 80063ca:	bf0c      	ite	eq
 80063cc:	2504      	moveq	r5, #4
 80063ce:	2507      	movne	r5, #7
 80063d0:	40bd      	lsls	r5, r7
 80063d2:	4575      	cmp	r5, lr
 80063d4:	d113      	bne.n	80063fe <HAL_GPIO_DeInit+0x9a>
 80063d6:	6815      	ldr	r5, [r2, #0]
 80063d8:	ea25 0506 	bic.w	r5, r5, r6
 80063dc:	6015      	str	r5, [r2, #0]
 80063de:	6855      	ldr	r5, [r2, #4]
 80063e0:	ea25 0506 	bic.w	r5, r5, r6
 80063e4:	6055      	str	r5, [r2, #4]
 80063e6:	6895      	ldr	r5, [r2, #8]
 80063e8:	ea25 0506 	bic.w	r5, r5, r6
 80063ec:	6095      	str	r5, [r2, #8]
 80063ee:	68d5      	ldr	r5, [r2, #12]
 80063f0:	ea25 0606 	bic.w	r6, r5, r6
 80063f4:	60d6      	str	r6, [r2, #12]
 80063f6:	68a5      	ldr	r5, [r4, #8]
 80063f8:	ea25 0509 	bic.w	r5, r5, r9
 80063fc:	60a5      	str	r5, [r4, #8]
 80063fe:	6805      	ldr	r5, [r0, #0]
 8006400:	005c      	lsls	r4, r3, #1
 8006402:	fa0b f404 	lsl.w	r4, fp, r4
 8006406:	08de      	lsrs	r6, r3, #3
 8006408:	4325      	orrs	r5, r4
 800640a:	eb00 0686 	add.w	r6, r0, r6, lsl #2
 800640e:	6005      	str	r5, [r0, #0]
 8006410:	f003 0507 	and.w	r5, r3, #7
 8006414:	6a37      	ldr	r7, [r6, #32]
 8006416:	00ad      	lsls	r5, r5, #2
 8006418:	fa08 f505 	lsl.w	r5, r8, r5
 800641c:	ea27 0505 	bic.w	r5, r7, r5
 8006420:	6235      	str	r5, [r6, #32]
 8006422:	6885      	ldr	r5, [r0, #8]
 8006424:	ea25 0504 	bic.w	r5, r5, r4
 8006428:	6085      	str	r5, [r0, #8]
 800642a:	6845      	ldr	r5, [r0, #4]
 800642c:	ea25 050c 	bic.w	r5, r5, ip
 8006430:	6045      	str	r5, [r0, #4]
 8006432:	68c5      	ldr	r5, [r0, #12]
 8006434:	ea25 0404 	bic.w	r4, r5, r4
 8006438:	60c4      	str	r4, [r0, #12]
 800643a:	3301      	adds	r3, #1
 800643c:	e79c      	b.n	8006378 <HAL_GPIO_DeInit+0x14>
 800643e:	2500      	movs	r5, #0
 8006440:	e7c6      	b.n	80063d0 <HAL_GPIO_DeInit+0x6c>
 8006442:	2501      	movs	r5, #1
 8006444:	e7c4      	b.n	80063d0 <HAL_GPIO_DeInit+0x6c>
 8006446:	2502      	movs	r5, #2
 8006448:	e7c2      	b.n	80063d0 <HAL_GPIO_DeInit+0x6c>
 800644a:	2503      	movs	r5, #3
 800644c:	e7c0      	b.n	80063d0 <HAL_GPIO_DeInit+0x6c>
 800644e:	bf00      	nop
 8006450:	40010400 	.word	0x40010400
 8006454:	48000400 	.word	0x48000400

08006458 <HAL_GPIO_ReadPin>:
 8006458:	6903      	ldr	r3, [r0, #16]
 800645a:	4219      	tst	r1, r3
 800645c:	bf14      	ite	ne
 800645e:	2001      	movne	r0, #1
 8006460:	2000      	moveq	r0, #0
 8006462:	4770      	bx	lr

08006464 <HAL_GPIO_WritePin>:
 8006464:	b10a      	cbz	r2, 800646a <HAL_GPIO_WritePin+0x6>
 8006466:	6181      	str	r1, [r0, #24]
 8006468:	4770      	bx	lr
 800646a:	6281      	str	r1, [r0, #40]	; 0x28
 800646c:	4770      	bx	lr

0800646e <I2C_Flush_TXDR>:
 800646e:	6803      	ldr	r3, [r0, #0]
 8006470:	699a      	ldr	r2, [r3, #24]
 8006472:	0791      	lsls	r1, r2, #30
 8006474:	bf44      	itt	mi
 8006476:	2200      	movmi	r2, #0
 8006478:	629a      	strmi	r2, [r3, #40]	; 0x28
 800647a:	699a      	ldr	r2, [r3, #24]
 800647c:	07d2      	lsls	r2, r2, #31
 800647e:	bf5e      	ittt	pl
 8006480:	699a      	ldrpl	r2, [r3, #24]
 8006482:	f042 0201 	orrpl.w	r2, r2, #1
 8006486:	619a      	strpl	r2, [r3, #24]
 8006488:	4770      	bx	lr
	...

0800648c <I2C_TransferConfig>:
 800648c:	b530      	push	{r4, r5, lr}
 800648e:	9d03      	ldr	r5, [sp, #12]
 8006490:	6804      	ldr	r4, [r0, #0]
 8006492:	ea45 4202 	orr.w	r2, r5, r2, lsl #16
 8006496:	431a      	orrs	r2, r3
 8006498:	4b05      	ldr	r3, [pc, #20]	; (80064b0 <I2C_TransferConfig+0x24>)
 800649a:	6860      	ldr	r0, [r4, #4]
 800649c:	f3c1 0109 	ubfx	r1, r1, #0, #10
 80064a0:	ea43 5355 	orr.w	r3, r3, r5, lsr #21
 80064a4:	430a      	orrs	r2, r1
 80064a6:	ea20 0003 	bic.w	r0, r0, r3
 80064aa:	4302      	orrs	r2, r0
 80064ac:	6062      	str	r2, [r4, #4]
 80064ae:	bd30      	pop	{r4, r5, pc}
 80064b0:	03ff63ff 	.word	0x03ff63ff

080064b4 <I2C_IsAcknowledgeFailed>:
 80064b4:	6803      	ldr	r3, [r0, #0]
 80064b6:	b570      	push	{r4, r5, r6, lr}
 80064b8:	4604      	mov	r4, r0
 80064ba:	6998      	ldr	r0, [r3, #24]
 80064bc:	f010 0010 	ands.w	r0, r0, #16
 80064c0:	460d      	mov	r5, r1
 80064c2:	4616      	mov	r6, r2
 80064c4:	d116      	bne.n	80064f4 <I2C_IsAcknowledgeFailed+0x40>
 80064c6:	bd70      	pop	{r4, r5, r6, pc}
 80064c8:	1c69      	adds	r1, r5, #1
 80064ca:	d014      	beq.n	80064f6 <I2C_IsAcknowledgeFailed+0x42>
 80064cc:	f7ff fcc6 	bl	8005e5c <HAL_GetTick>
 80064d0:	1b80      	subs	r0, r0, r6
 80064d2:	42a8      	cmp	r0, r5
 80064d4:	d800      	bhi.n	80064d8 <I2C_IsAcknowledgeFailed+0x24>
 80064d6:	b96d      	cbnz	r5, 80064f4 <I2C_IsAcknowledgeFailed+0x40>
 80064d8:	6c63      	ldr	r3, [r4, #68]	; 0x44
 80064da:	f043 0320 	orr.w	r3, r3, #32
 80064de:	6463      	str	r3, [r4, #68]	; 0x44
 80064e0:	2320      	movs	r3, #32
 80064e2:	f884 3041 	strb.w	r3, [r4, #65]	; 0x41
 80064e6:	2300      	movs	r3, #0
 80064e8:	f884 3042 	strb.w	r3, [r4, #66]	; 0x42
 80064ec:	f884 3040 	strb.w	r3, [r4, #64]	; 0x40
 80064f0:	2001      	movs	r0, #1
 80064f2:	e7e8      	b.n	80064c6 <I2C_IsAcknowledgeFailed+0x12>
 80064f4:	6823      	ldr	r3, [r4, #0]
 80064f6:	699a      	ldr	r2, [r3, #24]
 80064f8:	0692      	lsls	r2, r2, #26
 80064fa:	d5e5      	bpl.n	80064c8 <I2C_IsAcknowledgeFailed+0x14>
 80064fc:	2210      	movs	r2, #16
 80064fe:	2520      	movs	r5, #32
 8006500:	61da      	str	r2, [r3, #28]
 8006502:	4620      	mov	r0, r4
 8006504:	61dd      	str	r5, [r3, #28]
 8006506:	f7ff ffb2 	bl	800646e <I2C_Flush_TXDR>
 800650a:	6822      	ldr	r2, [r4, #0]
 800650c:	6853      	ldr	r3, [r2, #4]
 800650e:	f023 73ff 	bic.w	r3, r3, #33423360	; 0x1fe0000
 8006512:	f423 338b 	bic.w	r3, r3, #71168	; 0x11600
 8006516:	f423 73ff 	bic.w	r3, r3, #510	; 0x1fe
 800651a:	f023 0301 	bic.w	r3, r3, #1
 800651e:	6053      	str	r3, [r2, #4]
 8006520:	6c63      	ldr	r3, [r4, #68]	; 0x44
 8006522:	f043 0304 	orr.w	r3, r3, #4
 8006526:	6463      	str	r3, [r4, #68]	; 0x44
 8006528:	f884 5041 	strb.w	r5, [r4, #65]	; 0x41
 800652c:	e7db      	b.n	80064e6 <I2C_IsAcknowledgeFailed+0x32>

0800652e <I2C_WaitOnSTOPFlagUntilTimeout>:
 800652e:	b570      	push	{r4, r5, r6, lr}
 8006530:	4604      	mov	r4, r0
 8006532:	460d      	mov	r5, r1
 8006534:	4616      	mov	r6, r2
 8006536:	6823      	ldr	r3, [r4, #0]
 8006538:	699b      	ldr	r3, [r3, #24]
 800653a:	069b      	lsls	r3, r3, #26
 800653c:	d501      	bpl.n	8006542 <I2C_WaitOnSTOPFlagUntilTimeout+0x14>
 800653e:	2000      	movs	r0, #0
 8006540:	bd70      	pop	{r4, r5, r6, pc}
 8006542:	4632      	mov	r2, r6
 8006544:	4629      	mov	r1, r5
 8006546:	4620      	mov	r0, r4
 8006548:	f7ff ffb4 	bl	80064b4 <I2C_IsAcknowledgeFailed>
 800654c:	b990      	cbnz	r0, 8006574 <I2C_WaitOnSTOPFlagUntilTimeout+0x46>
 800654e:	f7ff fc85 	bl	8005e5c <HAL_GetTick>
 8006552:	1b80      	subs	r0, r0, r6
 8006554:	42a8      	cmp	r0, r5
 8006556:	d801      	bhi.n	800655c <I2C_WaitOnSTOPFlagUntilTimeout+0x2e>
 8006558:	2d00      	cmp	r5, #0
 800655a:	d1ec      	bne.n	8006536 <I2C_WaitOnSTOPFlagUntilTimeout+0x8>
 800655c:	6c63      	ldr	r3, [r4, #68]	; 0x44
 800655e:	f043 0320 	orr.w	r3, r3, #32
 8006562:	6463      	str	r3, [r4, #68]	; 0x44
 8006564:	2320      	movs	r3, #32
 8006566:	f884 3041 	strb.w	r3, [r4, #65]	; 0x41
 800656a:	2300      	movs	r3, #0
 800656c:	f884 3042 	strb.w	r3, [r4, #66]	; 0x42
 8006570:	f884 3040 	strb.w	r3, [r4, #64]	; 0x40
 8006574:	2001      	movs	r0, #1
 8006576:	e7e3      	b.n	8006540 <I2C_WaitOnSTOPFlagUntilTimeout+0x12>

08006578 <I2C_WaitOnFlagUntilTimeout>:
 8006578:	e92d 41f0 	stmdb	sp!, {r4, r5, r6, r7, r8, lr}
 800657c:	9f06      	ldr	r7, [sp, #24]
 800657e:	4604      	mov	r4, r0
 8006580:	4688      	mov	r8, r1
 8006582:	4616      	mov	r6, r2
 8006584:	461d      	mov	r5, r3
 8006586:	6822      	ldr	r2, [r4, #0]
 8006588:	6993      	ldr	r3, [r2, #24]
 800658a:	ea38 0303 	bics.w	r3, r8, r3
 800658e:	bf0c      	ite	eq
 8006590:	2301      	moveq	r3, #1
 8006592:	2300      	movne	r3, #0
 8006594:	42b3      	cmp	r3, r6
 8006596:	d001      	beq.n	800659c <I2C_WaitOnFlagUntilTimeout+0x24>
 8006598:	2000      	movs	r0, #0
 800659a:	e015      	b.n	80065c8 <I2C_WaitOnFlagUntilTimeout+0x50>
 800659c:	1c6b      	adds	r3, r5, #1
 800659e:	d0f3      	beq.n	8006588 <I2C_WaitOnFlagUntilTimeout+0x10>
 80065a0:	f7ff fc5c 	bl	8005e5c <HAL_GetTick>
 80065a4:	1bc0      	subs	r0, r0, r7
 80065a6:	42a8      	cmp	r0, r5
 80065a8:	d801      	bhi.n	80065ae <I2C_WaitOnFlagUntilTimeout+0x36>
 80065aa:	2d00      	cmp	r5, #0
 80065ac:	d1eb      	bne.n	8006586 <I2C_WaitOnFlagUntilTimeout+0xe>
 80065ae:	6c63      	ldr	r3, [r4, #68]	; 0x44
 80065b0:	f043 0320 	orr.w	r3, r3, #32
 80065b4:	6463      	str	r3, [r4, #68]	; 0x44
 80065b6:	2320      	movs	r3, #32
 80065b8:	f884 3041 	strb.w	r3, [r4, #65]	; 0x41
 80065bc:	2300      	movs	r3, #0
 80065be:	f884 3042 	strb.w	r3, [r4, #66]	; 0x42
 80065c2:	f884 3040 	strb.w	r3, [r4, #64]	; 0x40
 80065c6:	2001      	movs	r0, #1
 80065c8:	e8bd 81f0 	ldmia.w	sp!, {r4, r5, r6, r7, r8, pc}

080065cc <I2C_WaitOnTXISFlagUntilTimeout>:
 80065cc:	b570      	push	{r4, r5, r6, lr}
 80065ce:	4604      	mov	r4, r0
 80065d0:	460d      	mov	r5, r1
 80065d2:	4616      	mov	r6, r2
 80065d4:	6823      	ldr	r3, [r4, #0]
 80065d6:	699b      	ldr	r3, [r3, #24]
 80065d8:	079b      	lsls	r3, r3, #30
 80065da:	d501      	bpl.n	80065e0 <I2C_WaitOnTXISFlagUntilTimeout+0x14>
 80065dc:	2000      	movs	r0, #0
 80065de:	bd70      	pop	{r4, r5, r6, pc}
 80065e0:	4632      	mov	r2, r6
 80065e2:	4629      	mov	r1, r5
 80065e4:	4620      	mov	r0, r4
 80065e6:	f7ff ff65 	bl	80064b4 <I2C_IsAcknowledgeFailed>
 80065ea:	b9a0      	cbnz	r0, 8006616 <I2C_WaitOnTXISFlagUntilTimeout+0x4a>
 80065ec:	1c6a      	adds	r2, r5, #1
 80065ee:	d0f1      	beq.n	80065d4 <I2C_WaitOnTXISFlagUntilTimeout+0x8>
 80065f0:	f7ff fc34 	bl	8005e5c <HAL_GetTick>
 80065f4:	1b80      	subs	r0, r0, r6
 80065f6:	42a8      	cmp	r0, r5
 80065f8:	d801      	bhi.n	80065fe <I2C_WaitOnTXISFlagUntilTimeout+0x32>
 80065fa:	2d00      	cmp	r5, #0
 80065fc:	d1ea      	bne.n	80065d4 <I2C_WaitOnTXISFlagUntilTimeout+0x8>
 80065fe:	6c63      	ldr	r3, [r4, #68]	; 0x44
 8006600:	f043 0320 	orr.w	r3, r3, #32
 8006604:	6463      	str	r3, [r4, #68]	; 0x44
 8006606:	2320      	movs	r3, #32
 8006608:	f884 3041 	strb.w	r3, [r4, #65]	; 0x41
 800660c:	2300      	movs	r3, #0
 800660e:	f884 3042 	strb.w	r3, [r4, #66]	; 0x42
 8006612:	f884 3040 	strb.w	r3, [r4, #64]	; 0x40
 8006616:	2001      	movs	r0, #1
 8006618:	e7e1      	b.n	80065de <I2C_WaitOnTXISFlagUntilTimeout+0x12>
	...

0800661c <I2C_RequestMemoryRead>:
 800661c:	e92d 41f3 	stmdb	sp!, {r0, r1, r4, r5, r6, r7, r8, lr}
 8006620:	e9dd 7808 	ldrd	r7, r8, [sp, #32]
 8006624:	461e      	mov	r6, r3
 8006626:	4b17      	ldr	r3, [pc, #92]	; (8006684 <I2C_RequestMemoryRead+0x68>)
 8006628:	9300      	str	r3, [sp, #0]
 800662a:	4605      	mov	r5, r0
 800662c:	4614      	mov	r4, r2
 800662e:	2300      	movs	r3, #0
 8006630:	b2f2      	uxtb	r2, r6
 8006632:	f7ff ff2b 	bl	800648c <I2C_TransferConfig>
 8006636:	4642      	mov	r2, r8
 8006638:	4639      	mov	r1, r7
 800663a:	4628      	mov	r0, r5
 800663c:	f7ff ffc6 	bl	80065cc <I2C_WaitOnTXISFlagUntilTimeout>
 8006640:	b118      	cbz	r0, 800664a <I2C_RequestMemoryRead+0x2e>
 8006642:	2001      	movs	r0, #1
 8006644:	b002      	add	sp, #8
 8006646:	e8bd 81f0 	ldmia.w	sp!, {r4, r5, r6, r7, r8, pc}
 800664a:	2e01      	cmp	r6, #1
 800664c:	682b      	ldr	r3, [r5, #0]
 800664e:	d10d      	bne.n	800666c <I2C_RequestMemoryRead+0x50>
 8006650:	b2e4      	uxtb	r4, r4
 8006652:	629c      	str	r4, [r3, #40]	; 0x28
 8006654:	2200      	movs	r2, #0
 8006656:	f8cd 8000 	str.w	r8, [sp]
 800665a:	463b      	mov	r3, r7
 800665c:	2140      	movs	r1, #64	; 0x40
 800665e:	4628      	mov	r0, r5
 8006660:	f7ff ff8a 	bl	8006578 <I2C_WaitOnFlagUntilTimeout>
 8006664:	3800      	subs	r0, #0
 8006666:	bf18      	it	ne
 8006668:	2001      	movne	r0, #1
 800666a:	e7eb      	b.n	8006644 <I2C_RequestMemoryRead+0x28>
 800666c:	0a22      	lsrs	r2, r4, #8
 800666e:	629a      	str	r2, [r3, #40]	; 0x28
 8006670:	4639      	mov	r1, r7
 8006672:	4642      	mov	r2, r8
 8006674:	4628      	mov	r0, r5
 8006676:	f7ff ffa9 	bl	80065cc <I2C_WaitOnTXISFlagUntilTimeout>
 800667a:	2800      	cmp	r0, #0
 800667c:	d1e1      	bne.n	8006642 <I2C_RequestMemoryRead+0x26>
 800667e:	682b      	ldr	r3, [r5, #0]
 8006680:	e7e6      	b.n	8006650 <I2C_RequestMemoryRead+0x34>
 8006682:	bf00      	nop
 8006684:	80002000 	.word	0x80002000

08006688 <HAL_I2C_Init>:
 8006688:	b510      	push	{r4, lr}
 800668a:	4604      	mov	r4, r0
 800668c:	2800      	cmp	r0, #0
 800668e:	d04a      	beq.n	8006726 <HAL_I2C_Init+0x9e>
 8006690:	f890 3041 	ldrb.w	r3, [r0, #65]	; 0x41
 8006694:	f003 02ff 	and.w	r2, r3, #255	; 0xff
 8006698:	b91b      	cbnz	r3, 80066a2 <HAL_I2C_Init+0x1a>
 800669a:	f880 2040 	strb.w	r2, [r0, #64]	; 0x40
 800669e:	f7fe fb8f 	bl	8004dc0 <HAL_I2C_MspInit>
 80066a2:	2324      	movs	r3, #36	; 0x24
 80066a4:	f884 3041 	strb.w	r3, [r4, #65]	; 0x41
 80066a8:	6823      	ldr	r3, [r4, #0]
 80066aa:	681a      	ldr	r2, [r3, #0]
 80066ac:	f022 0201 	bic.w	r2, r2, #1
 80066b0:	601a      	str	r2, [r3, #0]
 80066b2:	6862      	ldr	r2, [r4, #4]
 80066b4:	f022 6270 	bic.w	r2, r2, #251658240	; 0xf000000
 80066b8:	611a      	str	r2, [r3, #16]
 80066ba:	689a      	ldr	r2, [r3, #8]
 80066bc:	f422 4200 	bic.w	r2, r2, #32768	; 0x8000
 80066c0:	609a      	str	r2, [r3, #8]
 80066c2:	e9d4 2102 	ldrd	r2, r1, [r4, #8]
 80066c6:	2901      	cmp	r1, #1
 80066c8:	d124      	bne.n	8006714 <HAL_I2C_Init+0x8c>
 80066ca:	f442 4200 	orr.w	r2, r2, #32768	; 0x8000
 80066ce:	609a      	str	r2, [r3, #8]
 80066d0:	685a      	ldr	r2, [r3, #4]
 80066d2:	f042 7200 	orr.w	r2, r2, #33554432	; 0x2000000
 80066d6:	f442 4200 	orr.w	r2, r2, #32768	; 0x8000
 80066da:	605a      	str	r2, [r3, #4]
 80066dc:	68da      	ldr	r2, [r3, #12]
 80066de:	f422 4200 	bic.w	r2, r2, #32768	; 0x8000
 80066e2:	60da      	str	r2, [r3, #12]
 80066e4:	e9d4 2104 	ldrd	r2, r1, [r4, #16]
 80066e8:	430a      	orrs	r2, r1
 80066ea:	69a1      	ldr	r1, [r4, #24]
 80066ec:	ea42 2201 	orr.w	r2, r2, r1, lsl #8
 80066f0:	60da      	str	r2, [r3, #12]
 80066f2:	e9d4 2107 	ldrd	r2, r1, [r4, #28]
 80066f6:	430a      	orrs	r2, r1
 80066f8:	601a      	str	r2, [r3, #0]
 80066fa:	681a      	ldr	r2, [r3, #0]
 80066fc:	f042 0201 	orr.w	r2, r2, #1
 8006700:	601a      	str	r2, [r3, #0]
 8006702:	2000      	movs	r0, #0
 8006704:	2320      	movs	r3, #32
 8006706:	6460      	str	r0, [r4, #68]	; 0x44
 8006708:	f884 3041 	strb.w	r3, [r4, #65]	; 0x41
 800670c:	6320      	str	r0, [r4, #48]	; 0x30
 800670e:	f884 0042 	strb.w	r0, [r4, #66]	; 0x42
 8006712:	bd10      	pop	{r4, pc}
 8006714:	f442 4204 	orr.w	r2, r2, #33792	; 0x8400
 8006718:	2902      	cmp	r1, #2
 800671a:	609a      	str	r2, [r3, #8]
 800671c:	bf04      	itt	eq
 800671e:	f44f 6200 	moveq.w	r2, #2048	; 0x800
 8006722:	605a      	streq	r2, [r3, #4]
 8006724:	e7d4      	b.n	80066d0 <HAL_I2C_Init+0x48>
 8006726:	2001      	movs	r0, #1
 8006728:	e7f3      	b.n	8006712 <HAL_I2C_Init+0x8a>
	...

0800672c <HAL_I2C_Master_Transmit>:
 800672c:	e92d 47f3 	stmdb	sp!, {r0, r1, r4, r5, r6, r7, r8, r9, sl, lr}
 8006730:	4698      	mov	r8, r3
 8006732:	f890 3041 	ldrb.w	r3, [r0, #65]	; 0x41
 8006736:	9f0a      	ldr	r7, [sp, #40]	; 0x28
 8006738:	2b20      	cmp	r3, #32
 800673a:	4604      	mov	r4, r0
 800673c:	460e      	mov	r6, r1
 800673e:	4691      	mov	r9, r2
 8006740:	f040 8086 	bne.w	8006850 <HAL_I2C_Master_Transmit+0x124>
 8006744:	f890 3040 	ldrb.w	r3, [r0, #64]	; 0x40
 8006748:	2b01      	cmp	r3, #1
 800674a:	f000 8081 	beq.w	8006850 <HAL_I2C_Master_Transmit+0x124>
 800674e:	f04f 0a01 	mov.w	sl, #1
 8006752:	f880 a040 	strb.w	sl, [r0, #64]	; 0x40
 8006756:	f7ff fb81 	bl	8005e5c <HAL_GetTick>
 800675a:	2319      	movs	r3, #25
 800675c:	4605      	mov	r5, r0
 800675e:	9000      	str	r0, [sp, #0]
 8006760:	4652      	mov	r2, sl
 8006762:	f44f 4100 	mov.w	r1, #32768	; 0x8000
 8006766:	4620      	mov	r0, r4
 8006768:	f7ff ff06 	bl	8006578 <I2C_WaitOnFlagUntilTimeout>
 800676c:	b118      	cbz	r0, 8006776 <HAL_I2C_Master_Transmit+0x4a>
 800676e:	2001      	movs	r0, #1
 8006770:	b002      	add	sp, #8
 8006772:	e8bd 87f0 	ldmia.w	sp!, {r4, r5, r6, r7, r8, r9, sl, pc}
 8006776:	2321      	movs	r3, #33	; 0x21
 8006778:	f884 3041 	strb.w	r3, [r4, #65]	; 0x41
 800677c:	2310      	movs	r3, #16
 800677e:	f884 3042 	strb.w	r3, [r4, #66]	; 0x42
 8006782:	6460      	str	r0, [r4, #68]	; 0x44
 8006784:	f8a4 802a 	strh.w	r8, [r4, #42]	; 0x2a
 8006788:	8d63      	ldrh	r3, [r4, #42]	; 0x2a
 800678a:	f8c4 9024 	str.w	r9, [r4, #36]	; 0x24
 800678e:	b29b      	uxth	r3, r3
 8006790:	2bff      	cmp	r3, #255	; 0xff
 8006792:	6360      	str	r0, [r4, #52]	; 0x34
 8006794:	4b2f      	ldr	r3, [pc, #188]	; (8006854 <HAL_I2C_Master_Transmit+0x128>)
 8006796:	d926      	bls.n	80067e6 <HAL_I2C_Master_Transmit+0xba>
 8006798:	22ff      	movs	r2, #255	; 0xff
 800679a:	8522      	strh	r2, [r4, #40]	; 0x28
 800679c:	9300      	str	r3, [sp, #0]
 800679e:	f04f 7380 	mov.w	r3, #16777216	; 0x1000000
 80067a2:	4631      	mov	r1, r6
 80067a4:	4620      	mov	r0, r4
 80067a6:	f7ff fe71 	bl	800648c <I2C_TransferConfig>
 80067aa:	8d63      	ldrh	r3, [r4, #42]	; 0x2a
 80067ac:	b29b      	uxth	r3, r3
 80067ae:	462a      	mov	r2, r5
 80067b0:	4639      	mov	r1, r7
 80067b2:	4620      	mov	r0, r4
 80067b4:	b9fb      	cbnz	r3, 80067f6 <HAL_I2C_Master_Transmit+0xca>
 80067b6:	f7ff feba 	bl	800652e <I2C_WaitOnSTOPFlagUntilTimeout>
 80067ba:	2800      	cmp	r0, #0
 80067bc:	d1d7      	bne.n	800676e <HAL_I2C_Master_Transmit+0x42>
 80067be:	6823      	ldr	r3, [r4, #0]
 80067c0:	2120      	movs	r1, #32
 80067c2:	61d9      	str	r1, [r3, #28]
 80067c4:	685a      	ldr	r2, [r3, #4]
 80067c6:	f022 72ff 	bic.w	r2, r2, #33423360	; 0x1fe0000
 80067ca:	f422 328b 	bic.w	r2, r2, #71168	; 0x11600
 80067ce:	f422 72ff 	bic.w	r2, r2, #510	; 0x1fe
 80067d2:	f022 0201 	bic.w	r2, r2, #1
 80067d6:	605a      	str	r2, [r3, #4]
 80067d8:	f884 1041 	strb.w	r1, [r4, #65]	; 0x41
 80067dc:	f884 0040 	strb.w	r0, [r4, #64]	; 0x40
 80067e0:	f884 0042 	strb.w	r0, [r4, #66]	; 0x42
 80067e4:	e7c4      	b.n	8006770 <HAL_I2C_Master_Transmit+0x44>
 80067e6:	8d62      	ldrh	r2, [r4, #42]	; 0x2a
 80067e8:	9300      	str	r3, [sp, #0]
 80067ea:	b292      	uxth	r2, r2
 80067ec:	8522      	strh	r2, [r4, #40]	; 0x28
 80067ee:	f04f 7300 	mov.w	r3, #33554432	; 0x2000000
 80067f2:	b2d2      	uxtb	r2, r2
 80067f4:	e7d5      	b.n	80067a2 <HAL_I2C_Master_Transmit+0x76>
 80067f6:	f7ff fee9 	bl	80065cc <I2C_WaitOnTXISFlagUntilTimeout>
 80067fa:	2800      	cmp	r0, #0
 80067fc:	d1b7      	bne.n	800676e <HAL_I2C_Master_Transmit+0x42>
 80067fe:	6a63      	ldr	r3, [r4, #36]	; 0x24
 8006800:	6822      	ldr	r2, [r4, #0]
 8006802:	f813 1b01 	ldrb.w	r1, [r3], #1
 8006806:	6291      	str	r1, [r2, #40]	; 0x28
 8006808:	6263      	str	r3, [r4, #36]	; 0x24
 800680a:	8d63      	ldrh	r3, [r4, #42]	; 0x2a
 800680c:	8d22      	ldrh	r2, [r4, #40]	; 0x28
 800680e:	3b01      	subs	r3, #1
 8006810:	b29b      	uxth	r3, r3
 8006812:	8563      	strh	r3, [r4, #42]	; 0x2a
 8006814:	8d63      	ldrh	r3, [r4, #42]	; 0x2a
 8006816:	3a01      	subs	r2, #1
 8006818:	b292      	uxth	r2, r2
 800681a:	b29b      	uxth	r3, r3
 800681c:	8522      	strh	r2, [r4, #40]	; 0x28
 800681e:	2b00      	cmp	r3, #0
 8006820:	d0c3      	beq.n	80067aa <HAL_I2C_Master_Transmit+0x7e>
 8006822:	2a00      	cmp	r2, #0
 8006824:	d1c1      	bne.n	80067aa <HAL_I2C_Master_Transmit+0x7e>
 8006826:	9500      	str	r5, [sp, #0]
 8006828:	463b      	mov	r3, r7
 800682a:	2180      	movs	r1, #128	; 0x80
 800682c:	4620      	mov	r0, r4
 800682e:	f7ff fea3 	bl	8006578 <I2C_WaitOnFlagUntilTimeout>
 8006832:	2800      	cmp	r0, #0
 8006834:	d19b      	bne.n	800676e <HAL_I2C_Master_Transmit+0x42>
 8006836:	8d63      	ldrh	r3, [r4, #42]	; 0x2a
 8006838:	b29b      	uxth	r3, r3
 800683a:	2bff      	cmp	r3, #255	; 0xff
 800683c:	d903      	bls.n	8006846 <HAL_I2C_Master_Transmit+0x11a>
 800683e:	22ff      	movs	r2, #255	; 0xff
 8006840:	8522      	strh	r2, [r4, #40]	; 0x28
 8006842:	9000      	str	r0, [sp, #0]
 8006844:	e7ab      	b.n	800679e <HAL_I2C_Master_Transmit+0x72>
 8006846:	8d62      	ldrh	r2, [r4, #42]	; 0x2a
 8006848:	9000      	str	r0, [sp, #0]
 800684a:	b292      	uxth	r2, r2
 800684c:	8522      	strh	r2, [r4, #40]	; 0x28
 800684e:	e7ce      	b.n	80067ee <HAL_I2C_Master_Transmit+0xc2>
 8006850:	2002      	movs	r0, #2
 8006852:	e78d      	b.n	8006770 <HAL_I2C_Master_Transmit+0x44>
 8006854:	80002000 	.word	0x80002000

08006858 <HAL_I2C_Mem_Read>:
 8006858:	e92d 4ff0 	stmdb	sp!, {r4, r5, r6, r7, r8, r9, sl, fp, lr}
 800685c:	b085      	sub	sp, #20
 800685e:	469b      	mov	fp, r3
 8006860:	f8bd 303c 	ldrh.w	r3, [sp, #60]	; 0x3c
 8006864:	9303      	str	r3, [sp, #12]
 8006866:	f890 3041 	ldrb.w	r3, [r0, #65]	; 0x41
 800686a:	f8dd 9040 	ldr.w	r9, [sp, #64]	; 0x40
 800686e:	2b20      	cmp	r3, #32
 8006870:	4604      	mov	r4, r0
 8006872:	460f      	mov	r7, r1
 8006874:	4692      	mov	sl, r2
 8006876:	f040 80a7 	bne.w	80069c8 <HAL_I2C_Mem_Read+0x170>
 800687a:	9b0e      	ldr	r3, [sp, #56]	; 0x38
 800687c:	b10b      	cbz	r3, 8006882 <HAL_I2C_Mem_Read+0x2a>
 800687e:	9b03      	ldr	r3, [sp, #12]
 8006880:	b933      	cbnz	r3, 8006890 <HAL_I2C_Mem_Read+0x38>
 8006882:	f44f 7300 	mov.w	r3, #512	; 0x200
 8006886:	6463      	str	r3, [r4, #68]	; 0x44
 8006888:	2001      	movs	r0, #1
 800688a:	b005      	add	sp, #20
 800688c:	e8bd 8ff0 	ldmia.w	sp!, {r4, r5, r6, r7, r8, r9, sl, fp, pc}
 8006890:	f890 3040 	ldrb.w	r3, [r0, #64]	; 0x40
 8006894:	2b01      	cmp	r3, #1
 8006896:	f000 8097 	beq.w	80069c8 <HAL_I2C_Mem_Read+0x170>
 800689a:	2501      	movs	r5, #1
 800689c:	f880 5040 	strb.w	r5, [r0, #64]	; 0x40
 80068a0:	f7ff fadc 	bl	8005e5c <HAL_GetTick>
 80068a4:	2319      	movs	r3, #25
 80068a6:	9000      	str	r0, [sp, #0]
 80068a8:	4606      	mov	r6, r0
 80068aa:	462a      	mov	r2, r5
 80068ac:	f44f 4100 	mov.w	r1, #32768	; 0x8000
 80068b0:	4620      	mov	r0, r4
 80068b2:	f7ff fe61 	bl	8006578 <I2C_WaitOnFlagUntilTimeout>
 80068b6:	4680      	mov	r8, r0
 80068b8:	2800      	cmp	r0, #0
 80068ba:	d1e5      	bne.n	8006888 <HAL_I2C_Mem_Read+0x30>
 80068bc:	2322      	movs	r3, #34	; 0x22
 80068be:	f884 3041 	strb.w	r3, [r4, #65]	; 0x41
 80068c2:	2340      	movs	r3, #64	; 0x40
 80068c4:	f884 3042 	strb.w	r3, [r4, #66]	; 0x42
 80068c8:	9b0e      	ldr	r3, [sp, #56]	; 0x38
 80068ca:	6263      	str	r3, [r4, #36]	; 0x24
 80068cc:	9b03      	ldr	r3, [sp, #12]
 80068ce:	6460      	str	r0, [r4, #68]	; 0x44
 80068d0:	6360      	str	r0, [r4, #52]	; 0x34
 80068d2:	8563      	strh	r3, [r4, #42]	; 0x2a
 80068d4:	e9cd 9600 	strd	r9, r6, [sp]
 80068d8:	465b      	mov	r3, fp
 80068da:	4652      	mov	r2, sl
 80068dc:	4639      	mov	r1, r7
 80068de:	4620      	mov	r0, r4
 80068e0:	f7ff fe9c 	bl	800661c <I2C_RequestMemoryRead>
 80068e4:	b110      	cbz	r0, 80068ec <HAL_I2C_Mem_Read+0x94>
 80068e6:	f884 8040 	strb.w	r8, [r4, #64]	; 0x40
 80068ea:	e7cd      	b.n	8006888 <HAL_I2C_Mem_Read+0x30>
 80068ec:	8d63      	ldrh	r3, [r4, #42]	; 0x2a
 80068ee:	b29b      	uxth	r3, r3
 80068f0:	2bff      	cmp	r3, #255	; 0xff
 80068f2:	4b36      	ldr	r3, [pc, #216]	; (80069cc <HAL_I2C_Mem_Read+0x174>)
 80068f4:	d958      	bls.n	80069a8 <HAL_I2C_Mem_Read+0x150>
 80068f6:	22ff      	movs	r2, #255	; 0xff
 80068f8:	9300      	str	r3, [sp, #0]
 80068fa:	8522      	strh	r2, [r4, #40]	; 0x28
 80068fc:	f04f 7380 	mov.w	r3, #16777216	; 0x1000000
 8006900:	4639      	mov	r1, r7
 8006902:	4620      	mov	r0, r4
 8006904:	f7ff fdc2 	bl	800648c <I2C_TransferConfig>
 8006908:	9600      	str	r6, [sp, #0]
 800690a:	464b      	mov	r3, r9
 800690c:	2200      	movs	r2, #0
 800690e:	2104      	movs	r1, #4
 8006910:	4620      	mov	r0, r4
 8006912:	f7ff fe31 	bl	8006578 <I2C_WaitOnFlagUntilTimeout>
 8006916:	2800      	cmp	r0, #0
 8006918:	d1b6      	bne.n	8006888 <HAL_I2C_Mem_Read+0x30>
 800691a:	6823      	ldr	r3, [r4, #0]
 800691c:	6a5a      	ldr	r2, [r3, #36]	; 0x24
 800691e:	6a63      	ldr	r3, [r4, #36]	; 0x24
 8006920:	701a      	strb	r2, [r3, #0]
 8006922:	6a63      	ldr	r3, [r4, #36]	; 0x24
 8006924:	8d22      	ldrh	r2, [r4, #40]	; 0x28
 8006926:	3301      	adds	r3, #1
 8006928:	6263      	str	r3, [r4, #36]	; 0x24
 800692a:	8d63      	ldrh	r3, [r4, #42]	; 0x2a
 800692c:	3b01      	subs	r3, #1
 800692e:	b29b      	uxth	r3, r3
 8006930:	8563      	strh	r3, [r4, #42]	; 0x2a
 8006932:	8d63      	ldrh	r3, [r4, #42]	; 0x2a
 8006934:	3a01      	subs	r2, #1
 8006936:	b292      	uxth	r2, r2
 8006938:	b29b      	uxth	r3, r3
 800693a:	8522      	strh	r2, [r4, #40]	; 0x28
 800693c:	b1ab      	cbz	r3, 800696a <HAL_I2C_Mem_Read+0x112>
 800693e:	b9a2      	cbnz	r2, 800696a <HAL_I2C_Mem_Read+0x112>
 8006940:	9600      	str	r6, [sp, #0]
 8006942:	464b      	mov	r3, r9
 8006944:	2180      	movs	r1, #128	; 0x80
 8006946:	4620      	mov	r0, r4
 8006948:	f7ff fe16 	bl	8006578 <I2C_WaitOnFlagUntilTimeout>
 800694c:	2800      	cmp	r0, #0
 800694e:	d19b      	bne.n	8006888 <HAL_I2C_Mem_Read+0x30>
 8006950:	8d63      	ldrh	r3, [r4, #42]	; 0x2a
 8006952:	b29b      	uxth	r3, r3
 8006954:	2bff      	cmp	r3, #255	; 0xff
 8006956:	d92f      	bls.n	80069b8 <HAL_I2C_Mem_Read+0x160>
 8006958:	22ff      	movs	r2, #255	; 0xff
 800695a:	8522      	strh	r2, [r4, #40]	; 0x28
 800695c:	9000      	str	r0, [sp, #0]
 800695e:	f04f 7380 	mov.w	r3, #16777216	; 0x1000000
 8006962:	4639      	mov	r1, r7
 8006964:	4620      	mov	r0, r4
 8006966:	f7ff fd91 	bl	800648c <I2C_TransferConfig>
 800696a:	8d63      	ldrh	r3, [r4, #42]	; 0x2a
 800696c:	b29b      	uxth	r3, r3
 800696e:	2b00      	cmp	r3, #0
 8006970:	d1ca      	bne.n	8006908 <HAL_I2C_Mem_Read+0xb0>
 8006972:	4632      	mov	r2, r6
 8006974:	4649      	mov	r1, r9
 8006976:	4620      	mov	r0, r4
 8006978:	f7ff fdd9 	bl	800652e <I2C_WaitOnSTOPFlagUntilTimeout>
 800697c:	2800      	cmp	r0, #0
 800697e:	d183      	bne.n	8006888 <HAL_I2C_Mem_Read+0x30>
 8006980:	6823      	ldr	r3, [r4, #0]
 8006982:	2120      	movs	r1, #32
 8006984:	61d9      	str	r1, [r3, #28]
 8006986:	685a      	ldr	r2, [r3, #4]
 8006988:	f022 72ff 	bic.w	r2, r2, #33423360	; 0x1fe0000
 800698c:	f422 328b 	bic.w	r2, r2, #71168	; 0x11600
 8006990:	f422 72ff 	bic.w	r2, r2, #510	; 0x1fe
 8006994:	f022 0201 	bic.w	r2, r2, #1
 8006998:	605a      	str	r2, [r3, #4]
 800699a:	f884 1041 	strb.w	r1, [r4, #65]	; 0x41
 800699e:	f884 0040 	strb.w	r0, [r4, #64]	; 0x40
 80069a2:	f884 0042 	strb.w	r0, [r4, #66]	; 0x42
 80069a6:	e770      	b.n	800688a <HAL_I2C_Mem_Read+0x32>
 80069a8:	8d62      	ldrh	r2, [r4, #42]	; 0x2a
 80069aa:	9300      	str	r3, [sp, #0]
 80069ac:	b292      	uxth	r2, r2
 80069ae:	8522      	strh	r2, [r4, #40]	; 0x28
 80069b0:	f04f 7300 	mov.w	r3, #33554432	; 0x2000000
 80069b4:	b2d2      	uxtb	r2, r2
 80069b6:	e7a3      	b.n	8006900 <HAL_I2C_Mem_Read+0xa8>
 80069b8:	8d62      	ldrh	r2, [r4, #42]	; 0x2a
 80069ba:	9000      	str	r0, [sp, #0]
 80069bc:	b292      	uxth	r2, r2
 80069be:	8522      	strh	r2, [r4, #40]	; 0x28
 80069c0:	f04f 7300 	mov.w	r3, #33554432	; 0x2000000
 80069c4:	b2d2      	uxtb	r2, r2
 80069c6:	e7cc      	b.n	8006962 <HAL_I2C_Mem_Read+0x10a>
 80069c8:	2002      	movs	r0, #2
 80069ca:	e75e      	b.n	800688a <HAL_I2C_Mem_Read+0x32>
 80069cc:	80002400 	.word	0x80002400

080069d0 <HAL_I2CEx_ConfigAnalogFilter>:
 80069d0:	b510      	push	{r4, lr}
 80069d2:	f890 3041 	ldrb.w	r3, [r0, #65]	; 0x41
 80069d6:	2b20      	cmp	r3, #32
 80069d8:	b2dc      	uxtb	r4, r3
 80069da:	d11d      	bne.n	8006a18 <HAL_I2CEx_ConfigAnalogFilter+0x48>
 80069dc:	f890 3040 	ldrb.w	r3, [r0, #64]	; 0x40
 80069e0:	2b01      	cmp	r3, #1
 80069e2:	d019      	beq.n	8006a18 <HAL_I2CEx_ConfigAnalogFilter+0x48>
 80069e4:	2324      	movs	r3, #36	; 0x24
 80069e6:	f880 3041 	strb.w	r3, [r0, #65]	; 0x41
 80069ea:	6803      	ldr	r3, [r0, #0]
 80069ec:	681a      	ldr	r2, [r3, #0]
 80069ee:	f022 0201 	bic.w	r2, r2, #1
 80069f2:	601a      	str	r2, [r3, #0]
 80069f4:	681a      	ldr	r2, [r3, #0]
 80069f6:	f422 5280 	bic.w	r2, r2, #4096	; 0x1000
 80069fa:	601a      	str	r2, [r3, #0]
 80069fc:	681a      	ldr	r2, [r3, #0]
 80069fe:	4311      	orrs	r1, r2
 8006a00:	6019      	str	r1, [r3, #0]
 8006a02:	681a      	ldr	r2, [r3, #0]
 8006a04:	f042 0201 	orr.w	r2, r2, #1
 8006a08:	601a      	str	r2, [r3, #0]
 8006a0a:	2300      	movs	r3, #0
 8006a0c:	f880 4041 	strb.w	r4, [r0, #65]	; 0x41
 8006a10:	f880 3040 	strb.w	r3, [r0, #64]	; 0x40
 8006a14:	4618      	mov	r0, r3
 8006a16:	bd10      	pop	{r4, pc}
 8006a18:	2002      	movs	r0, #2
 8006a1a:	e7fc      	b.n	8006a16 <HAL_I2CEx_ConfigAnalogFilter+0x46>

08006a1c <HAL_I2CEx_ConfigDigitalFilter>:
 8006a1c:	b510      	push	{r4, lr}
 8006a1e:	f890 3041 	ldrb.w	r3, [r0, #65]	; 0x41
 8006a22:	2b20      	cmp	r3, #32
 8006a24:	b2dc      	uxtb	r4, r3
 8006a26:	d11c      	bne.n	8006a62 <HAL_I2CEx_ConfigDigitalFilter+0x46>
 8006a28:	f890 3040 	ldrb.w	r3, [r0, #64]	; 0x40
 8006a2c:	2b01      	cmp	r3, #1
 8006a2e:	d018      	beq.n	8006a62 <HAL_I2CEx_ConfigDigitalFilter+0x46>
 8006a30:	2324      	movs	r3, #36	; 0x24
 8006a32:	f880 3041 	strb.w	r3, [r0, #65]	; 0x41
 8006a36:	6803      	ldr	r3, [r0, #0]
 8006a38:	681a      	ldr	r2, [r3, #0]
 8006a3a:	f022 0201 	bic.w	r2, r2, #1
 8006a3e:	601a      	str	r2, [r3, #0]
 8006a40:	681a      	ldr	r2, [r3, #0]
 8006a42:	f422 6270 	bic.w	r2, r2, #3840	; 0xf00
 8006a46:	ea42 2101 	orr.w	r1, r2, r1, lsl #8
 8006a4a:	6019      	str	r1, [r3, #0]
 8006a4c:	681a      	ldr	r2, [r3, #0]
 8006a4e:	f042 0201 	orr.w	r2, r2, #1
 8006a52:	601a      	str	r2, [r3, #0]
 8006a54:	2300      	movs	r3, #0
 8006a56:	f880 4041 	strb.w	r4, [r0, #65]	; 0x41
 8006a5a:	f880 3040 	strb.w	r3, [r0, #64]	; 0x40
 8006a5e:	4618      	mov	r0, r3
 8006a60:	bd10      	pop	{r4, pc}
 8006a62:	2002      	movs	r0, #2
 8006a64:	e7fc      	b.n	8006a60 <HAL_I2CEx_ConfigDigitalFilter+0x44>

08006a66 <HAL_IWDG_Init>:
 8006a66:	b538      	push	{r3, r4, r5, lr}
 8006a68:	4604      	mov	r4, r0
 8006a6a:	b308      	cbz	r0, 8006ab0 <HAL_IWDG_Init+0x4a>
 8006a6c:	6803      	ldr	r3, [r0, #0]
 8006a6e:	f64c 42cc 	movw	r2, #52428	; 0xcccc
 8006a72:	601a      	str	r2, [r3, #0]
 8006a74:	f245 5255 	movw	r2, #21845	; 0x5555
 8006a78:	601a      	str	r2, [r3, #0]
 8006a7a:	6842      	ldr	r2, [r0, #4]
 8006a7c:	605a      	str	r2, [r3, #4]
 8006a7e:	6882      	ldr	r2, [r0, #8]
 8006a80:	609a      	str	r2, [r3, #8]
 8006a82:	f7ff f9eb 	bl	8005e5c <HAL_GetTick>
 8006a86:	4605      	mov	r5, r0
 8006a88:	6822      	ldr	r2, [r4, #0]
 8006a8a:	68d3      	ldr	r3, [r2, #12]
 8006a8c:	b94b      	cbnz	r3, 8006aa2 <HAL_IWDG_Init+0x3c>
 8006a8e:	6910      	ldr	r0, [r2, #16]
 8006a90:	68e1      	ldr	r1, [r4, #12]
 8006a92:	4288      	cmp	r0, r1
 8006a94:	bf0a      	itet	eq
 8006a96:	f64a 21aa 	movweq	r1, #43690	; 0xaaaa
 8006a9a:	6111      	strne	r1, [r2, #16]
 8006a9c:	6011      	streq	r1, [r2, #0]
 8006a9e:	4618      	mov	r0, r3
 8006aa0:	bd38      	pop	{r3, r4, r5, pc}
 8006aa2:	f7ff f9db 	bl	8005e5c <HAL_GetTick>
 8006aa6:	1b40      	subs	r0, r0, r5
 8006aa8:	2830      	cmp	r0, #48	; 0x30
 8006aaa:	d9ed      	bls.n	8006a88 <HAL_IWDG_Init+0x22>
 8006aac:	2003      	movs	r0, #3
 8006aae:	e7f7      	b.n	8006aa0 <HAL_IWDG_Init+0x3a>
 8006ab0:	2001      	movs	r0, #1
 8006ab2:	e7f5      	b.n	8006aa0 <HAL_IWDG_Init+0x3a>

08006ab4 <HAL_IWDG_Refresh>:
 8006ab4:	6803      	ldr	r3, [r0, #0]
 8006ab6:	f64a 22aa 	movw	r2, #43690	; 0xaaaa
 8006aba:	601a      	str	r2, [r3, #0]
 8006abc:	2000      	movs	r0, #0
 8006abe:	4770      	bx	lr

08006ac0 <HAL_PCD_Init>:
 8006ac0:	b5f0      	push	{r4, r5, r6, r7, lr}
 8006ac2:	4604      	mov	r4, r0
 8006ac4:	b087      	sub	sp, #28
 8006ac6:	b310      	cbz	r0, 8006b0e <HAL_PCD_Init+0x4e>
 8006ac8:	f890 32a9 	ldrb.w	r3, [r0, #681]	; 0x2a9
 8006acc:	f003 02ff 	and.w	r2, r3, #255	; 0xff
 8006ad0:	b91b      	cbnz	r3, 8006ada <HAL_PCD_Init+0x1a>
 8006ad2:	f880 22a8 	strb.w	r2, [r0, #680]	; 0x2a8
 8006ad6:	f004 fb97 	bl	800b208 <HAL_PCD_MspInit>
 8006ada:	2303      	movs	r3, #3
 8006adc:	4625      	mov	r5, r4
 8006ade:	f884 32a9 	strb.w	r3, [r4, #681]	; 0x2a9
 8006ae2:	f855 0b10 	ldr.w	r0, [r5], #16
 8006ae6:	f002 fe88 	bl	80097fa <USB_DisableGlobalInt>
 8006aea:	cd0f      	ldmia	r5!, {r0, r1, r2, r3}
 8006aec:	466e      	mov	r6, sp
 8006aee:	c60f      	stmia	r6!, {r0, r1, r2, r3}
 8006af0:	682b      	ldr	r3, [r5, #0]
 8006af2:	6033      	str	r3, [r6, #0]
 8006af4:	4626      	mov	r6, r4
 8006af6:	1d27      	adds	r7, r4, #4
 8006af8:	e897 000e 	ldmia.w	r7, {r1, r2, r3}
 8006afc:	f856 0b10 	ldr.w	r0, [r6], #16
 8006b00:	f002 fe6b 	bl	80097da <USB_CoreInit>
 8006b04:	4605      	mov	r5, r0
 8006b06:	b120      	cbz	r0, 8006b12 <HAL_PCD_Init+0x52>
 8006b08:	2302      	movs	r3, #2
 8006b0a:	f884 32a9 	strb.w	r3, [r4, #681]	; 0x2a9
 8006b0e:	2501      	movs	r5, #1
 8006b10:	e052      	b.n	8006bb8 <HAL_PCD_Init+0xf8>
 8006b12:	4601      	mov	r1, r0
 8006b14:	6820      	ldr	r0, [r4, #0]
 8006b16:	f002 fe7a 	bl	800980e <USB_SetCurrentMode>
 8006b1a:	4628      	mov	r0, r5
 8006b1c:	f8d4 c004 	ldr.w	ip, [r4, #4]
 8006b20:	2528      	movs	r5, #40	; 0x28
 8006b22:	f04f 0e01 	mov.w	lr, #1
 8006b26:	4601      	mov	r1, r0
 8006b28:	b2c2      	uxtb	r2, r0
 8006b2a:	4594      	cmp	ip, r2
 8006b2c:	f100 0001 	add.w	r0, r0, #1
 8006b30:	d81b      	bhi.n	8006b6a <HAL_PCD_Init+0xaa>
 8006b32:	2300      	movs	r3, #0
 8006b34:	2528      	movs	r5, #40	; 0x28
 8006b36:	4619      	mov	r1, r3
 8006b38:	b2d8      	uxtb	r0, r3
 8006b3a:	4584      	cmp	ip, r0
 8006b3c:	f103 0301 	add.w	r3, r3, #1
 8006b40:	d820      	bhi.n	8006b84 <HAL_PCD_Init+0xc4>
 8006b42:	4635      	mov	r5, r6
 8006b44:	cd0f      	ldmia	r5!, {r0, r1, r2, r3}
 8006b46:	46ec      	mov	ip, sp
 8006b48:	e8ac 000f 	stmia.w	ip!, {r0, r1, r2, r3}
 8006b4c:	682b      	ldr	r3, [r5, #0]
 8006b4e:	f8cc 3000 	str.w	r3, [ip]
 8006b52:	e897 000e 	ldmia.w	r7, {r1, r2, r3}
 8006b56:	6820      	ldr	r0, [r4, #0]
 8006b58:	f002 fe5b 	bl	8009812 <USB_DevInit>
 8006b5c:	2301      	movs	r3, #1
 8006b5e:	4605      	mov	r5, r0
 8006b60:	b1e8      	cbz	r0, 8006b9e <HAL_PCD_Init+0xde>
 8006b62:	2202      	movs	r2, #2
 8006b64:	f884 22a9 	strb.w	r2, [r4, #681]	; 0x2a9
 8006b68:	e7d1      	b.n	8006b0e <HAL_PCD_Init+0x4e>
 8006b6a:	fb05 4302 	mla	r3, r5, r2, r4
 8006b6e:	e9c3 110e 	strd	r1, r1, [r3, #56]	; 0x38
 8006b72:	f883 e029 	strb.w	lr, [r3, #41]	; 0x29
 8006b76:	f883 2028 	strb.w	r2, [r3, #40]	; 0x28
 8006b7a:	86da      	strh	r2, [r3, #54]	; 0x36
 8006b7c:	f883 102b 	strb.w	r1, [r3, #43]	; 0x2b
 8006b80:	6419      	str	r1, [r3, #64]	; 0x40
 8006b82:	e7d1      	b.n	8006b28 <HAL_PCD_Init+0x68>
 8006b84:	fb05 4200 	mla	r2, r5, r0, r4
 8006b88:	e9c2 115e 	strd	r1, r1, [r2, #376]	; 0x178
 8006b8c:	f882 1169 	strb.w	r1, [r2, #361]	; 0x169
 8006b90:	f882 0168 	strb.w	r0, [r2, #360]	; 0x168
 8006b94:	f882 116b 	strb.w	r1, [r2, #363]	; 0x16b
 8006b98:	f8c2 1180 	str.w	r1, [r2, #384]	; 0x180
 8006b9c:	e7cc      	b.n	8006b38 <HAL_PCD_Init+0x78>
 8006b9e:	f884 0024 	strb.w	r0, [r4, #36]	; 0x24
 8006ba2:	f884 32a9 	strb.w	r3, [r4, #681]	; 0x2a9
 8006ba6:	69e3      	ldr	r3, [r4, #28]
 8006ba8:	2b01      	cmp	r3, #1
 8006baa:	d102      	bne.n	8006bb2 <HAL_PCD_Init+0xf2>
 8006bac:	4620      	mov	r0, r4
 8006bae:	f000 fe0b 	bl	80077c8 <HAL_PCDEx_ActivateLPM>
 8006bb2:	6820      	ldr	r0, [r4, #0]
 8006bb4:	f003 f81a 	bl	8009bec <USB_DevDisconnect>
 8006bb8:	4628      	mov	r0, r5
 8006bba:	b007      	add	sp, #28
 8006bbc:	bdf0      	pop	{r4, r5, r6, r7, pc}

08006bbe <HAL_PCD_Start>:
 8006bbe:	b510      	push	{r4, lr}
 8006bc0:	f890 32a8 	ldrb.w	r3, [r0, #680]	; 0x2a8
 8006bc4:	2b01      	cmp	r3, #1
 8006bc6:	4604      	mov	r4, r0
 8006bc8:	d00c      	beq.n	8006be4 <HAL_PCD_Start+0x26>
 8006bca:	2301      	movs	r3, #1
 8006bcc:	f880 32a8 	strb.w	r3, [r0, #680]	; 0x2a8
 8006bd0:	6800      	ldr	r0, [r0, #0]
 8006bd2:	f002 fe09 	bl	80097e8 <USB_EnableGlobalInt>
 8006bd6:	6820      	ldr	r0, [r4, #0]
 8006bd8:	f002 fffd 	bl	8009bd6 <USB_DevConnect>
 8006bdc:	2000      	movs	r0, #0
 8006bde:	f884 02a8 	strb.w	r0, [r4, #680]	; 0x2a8
 8006be2:	bd10      	pop	{r4, pc}
 8006be4:	2002      	movs	r0, #2
 8006be6:	e7fc      	b.n	8006be2 <HAL_PCD_Start+0x24>

08006be8 <HAL_PCD_Stop>:
 8006be8:	b510      	push	{r4, lr}
 8006bea:	f890 32a8 	ldrb.w	r3, [r0, #680]	; 0x2a8
 8006bee:	2b01      	cmp	r3, #1
 8006bf0:	4604      	mov	r4, r0
 8006bf2:	d00c      	beq.n	8006c0e <HAL_PCD_Stop+0x26>
 8006bf4:	2301      	movs	r3, #1
 8006bf6:	f880 32a8 	strb.w	r3, [r0, #680]	; 0x2a8
 8006bfa:	6800      	ldr	r0, [r0, #0]
 8006bfc:	f002 fdfd 	bl	80097fa <USB_DisableGlobalInt>
 8006c00:	6820      	ldr	r0, [r4, #0]
 8006c02:	f002 fff3 	bl	8009bec <USB_DevDisconnect>
 8006c06:	2000      	movs	r0, #0
 8006c08:	f884 02a8 	strb.w	r0, [r4, #680]	; 0x2a8
 8006c0c:	bd10      	pop	{r4, pc}
 8006c0e:	2002      	movs	r0, #2
 8006c10:	e7fc      	b.n	8006c0c <HAL_PCD_Stop+0x24>

08006c12 <HAL_PCD_SetAddress>:
 8006c12:	b510      	push	{r4, lr}
 8006c14:	f890 22a8 	ldrb.w	r2, [r0, #680]	; 0x2a8
 8006c18:	2a01      	cmp	r2, #1
 8006c1a:	4604      	mov	r4, r0
 8006c1c:	d00b      	beq.n	8006c36 <HAL_PCD_SetAddress+0x24>
 8006c1e:	2201      	movs	r2, #1
 8006c20:	f880 22a8 	strb.w	r2, [r0, #680]	; 0x2a8
 8006c24:	f880 1024 	strb.w	r1, [r0, #36]	; 0x24
 8006c28:	6800      	ldr	r0, [r0, #0]
 8006c2a:	f002 ffce 	bl	8009bca <USB_SetDevAddress>
 8006c2e:	2000      	movs	r0, #0
 8006c30:	f884 02a8 	strb.w	r0, [r4, #680]	; 0x2a8
 8006c34:	bd10      	pop	{r4, pc}
 8006c36:	2002      	movs	r0, #2
 8006c38:	e7fc      	b.n	8006c34 <HAL_PCD_SetAddress+0x22>
	...

08006c3c <HAL_PCD_IRQHandler>:
 8006c3c:	e92d 4ff8 	stmdb	sp!, {r3, r4, r5, r6, r7, r8, r9, sl, fp, lr}
 8006c40:	4604      	mov	r4, r0
 8006c42:	6800      	ldr	r0, [r0, #0]
 8006c44:	f002 ffda 	bl	8009bfc <USB_ReadInterrupts>
 8006c48:	0401      	lsls	r1, r0, #16
 8006c4a:	d509      	bpl.n	8006c60 <HAL_PCD_IRQHandler+0x24>
 8006c4c:	f8df a9a0 	ldr.w	sl, [pc, #2464]	; 80075f0 <HAL_PCD_IRQHandler+0x9b4>
 8006c50:	f8df 99a0 	ldr.w	r9, [pc, #2464]	; 80075f4 <HAL_PCD_IRQHandler+0x9b8>
 8006c54:	6820      	ldr	r0, [r4, #0]
 8006c56:	f8b0 3044 	ldrh.w	r3, [r0, #68]	; 0x44
 8006c5a:	041b      	lsls	r3, r3, #16
 8006c5c:	f100 80cc 	bmi.w	8006df8 <HAL_PCD_IRQHandler+0x1bc>
 8006c60:	6820      	ldr	r0, [r4, #0]
 8006c62:	f002 ffcb 	bl	8009bfc <USB_ReadInterrupts>
 8006c66:	0542      	lsls	r2, r0, #21
 8006c68:	d50f      	bpl.n	8006c8a <HAL_PCD_IRQHandler+0x4e>
 8006c6a:	6822      	ldr	r2, [r4, #0]
 8006c6c:	f8b2 3044 	ldrh.w	r3, [r2, #68]	; 0x44
 8006c70:	f423 6380 	bic.w	r3, r3, #1024	; 0x400
 8006c74:	041b      	lsls	r3, r3, #16
 8006c76:	0c1b      	lsrs	r3, r3, #16
 8006c78:	4620      	mov	r0, r4
 8006c7a:	f8a2 3044 	strh.w	r3, [r2, #68]	; 0x44
 8006c7e:	f004 fafe 	bl	800b27e <HAL_PCD_ResetCallback>
 8006c82:	2100      	movs	r1, #0
 8006c84:	4620      	mov	r0, r4
 8006c86:	f7ff ffc4 	bl	8006c12 <HAL_PCD_SetAddress>
 8006c8a:	6820      	ldr	r0, [r4, #0]
 8006c8c:	f002 ffb6 	bl	8009bfc <USB_ReadInterrupts>
 8006c90:	0447      	lsls	r7, r0, #17
 8006c92:	d508      	bpl.n	8006ca6 <HAL_PCD_IRQHandler+0x6a>
 8006c94:	6822      	ldr	r2, [r4, #0]
 8006c96:	f8b2 3044 	ldrh.w	r3, [r2, #68]	; 0x44
 8006c9a:	f423 4380 	bic.w	r3, r3, #16384	; 0x4000
 8006c9e:	041b      	lsls	r3, r3, #16
 8006ca0:	0c1b      	lsrs	r3, r3, #16
 8006ca2:	f8a2 3044 	strh.w	r3, [r2, #68]	; 0x44
 8006ca6:	6820      	ldr	r0, [r4, #0]
 8006ca8:	f002 ffa8 	bl	8009bfc <USB_ReadInterrupts>
 8006cac:	0486      	lsls	r6, r0, #18
 8006cae:	d508      	bpl.n	8006cc2 <HAL_PCD_IRQHandler+0x86>
 8006cb0:	6822      	ldr	r2, [r4, #0]
 8006cb2:	f8b2 3044 	ldrh.w	r3, [r2, #68]	; 0x44
 8006cb6:	f423 5300 	bic.w	r3, r3, #8192	; 0x2000
 8006cba:	041b      	lsls	r3, r3, #16
 8006cbc:	0c1b      	lsrs	r3, r3, #16
 8006cbe:	f8a2 3044 	strh.w	r3, [r2, #68]	; 0x44
 8006cc2:	6820      	ldr	r0, [r4, #0]
 8006cc4:	f002 ff9a 	bl	8009bfc <USB_ReadInterrupts>
 8006cc8:	04c5      	lsls	r5, r0, #19
 8006cca:	d526      	bpl.n	8006d1a <HAL_PCD_IRQHandler+0xde>
 8006ccc:	6822      	ldr	r2, [r4, #0]
 8006cce:	f8b2 3040 	ldrh.w	r3, [r2, #64]	; 0x40
 8006cd2:	f023 0304 	bic.w	r3, r3, #4
 8006cd6:	041b      	lsls	r3, r3, #16
 8006cd8:	0c1b      	lsrs	r3, r3, #16
 8006cda:	f8a2 3040 	strh.w	r3, [r2, #64]	; 0x40
 8006cde:	f8b2 3040 	ldrh.w	r3, [r2, #64]	; 0x40
 8006ce2:	f023 0308 	bic.w	r3, r3, #8
 8006ce6:	041b      	lsls	r3, r3, #16
 8006ce8:	0c1b      	lsrs	r3, r3, #16
 8006cea:	f8a2 3040 	strh.w	r3, [r2, #64]	; 0x40
 8006cee:	f894 32e0 	ldrb.w	r3, [r4, #736]	; 0x2e0
 8006cf2:	2b01      	cmp	r3, #1
 8006cf4:	d105      	bne.n	8006d02 <HAL_PCD_IRQHandler+0xc6>
 8006cf6:	2100      	movs	r1, #0
 8006cf8:	f884 12e0 	strb.w	r1, [r4, #736]	; 0x2e0
 8006cfc:	4620      	mov	r0, r4
 8006cfe:	f004 fba9 	bl	800b454 <HAL_PCDEx_LPM_Callback>
 8006d02:	4620      	mov	r0, r4
 8006d04:	f004 fade 	bl	800b2c4 <HAL_PCD_ResumeCallback>
 8006d08:	6822      	ldr	r2, [r4, #0]
 8006d0a:	f8b2 3044 	ldrh.w	r3, [r2, #68]	; 0x44
 8006d0e:	f423 5380 	bic.w	r3, r3, #4096	; 0x1000
 8006d12:	041b      	lsls	r3, r3, #16
 8006d14:	0c1b      	lsrs	r3, r3, #16
 8006d16:	f8a2 3044 	strh.w	r3, [r2, #68]	; 0x44
 8006d1a:	6820      	ldr	r0, [r4, #0]
 8006d1c:	f002 ff6e 	bl	8009bfc <USB_ReadInterrupts>
 8006d20:	0500      	lsls	r0, r0, #20
 8006d22:	d519      	bpl.n	8006d58 <HAL_PCD_IRQHandler+0x11c>
 8006d24:	6822      	ldr	r2, [r4, #0]
 8006d26:	f8b2 3040 	ldrh.w	r3, [r2, #64]	; 0x40
 8006d2a:	b29b      	uxth	r3, r3
 8006d2c:	f043 0308 	orr.w	r3, r3, #8
 8006d30:	f8a2 3040 	strh.w	r3, [r2, #64]	; 0x40
 8006d34:	f8b2 3044 	ldrh.w	r3, [r2, #68]	; 0x44
 8006d38:	f423 6300 	bic.w	r3, r3, #2048	; 0x800
 8006d3c:	041b      	lsls	r3, r3, #16
 8006d3e:	0c1b      	lsrs	r3, r3, #16
 8006d40:	f8a2 3044 	strh.w	r3, [r2, #68]	; 0x44
 8006d44:	f8b2 3040 	ldrh.w	r3, [r2, #64]	; 0x40
 8006d48:	b29b      	uxth	r3, r3
 8006d4a:	f043 0304 	orr.w	r3, r3, #4
 8006d4e:	f8a2 3040 	strh.w	r3, [r2, #64]	; 0x40
 8006d52:	4620      	mov	r0, r4
 8006d54:	f004 faa6 	bl	800b2a4 <HAL_PCD_SuspendCallback>
 8006d58:	6820      	ldr	r0, [r4, #0]
 8006d5a:	f002 ff4f 	bl	8009bfc <USB_ReadInterrupts>
 8006d5e:	0601      	lsls	r1, r0, #24
 8006d60:	d529      	bpl.n	8006db6 <HAL_PCD_IRQHandler+0x17a>
 8006d62:	6823      	ldr	r3, [r4, #0]
 8006d64:	f8b3 2044 	ldrh.w	r2, [r3, #68]	; 0x44
 8006d68:	f022 0280 	bic.w	r2, r2, #128	; 0x80
 8006d6c:	0412      	lsls	r2, r2, #16
 8006d6e:	0c12      	lsrs	r2, r2, #16
 8006d70:	f8a3 2044 	strh.w	r2, [r3, #68]	; 0x44
 8006d74:	f894 22e0 	ldrb.w	r2, [r4, #736]	; 0x2e0
 8006d78:	2a00      	cmp	r2, #0
 8006d7a:	f040 8433 	bne.w	80075e4 <HAL_PCD_IRQHandler+0x9a8>
 8006d7e:	f8b3 2040 	ldrh.w	r2, [r3, #64]	; 0x40
 8006d82:	b292      	uxth	r2, r2
 8006d84:	f042 0204 	orr.w	r2, r2, #4
 8006d88:	f8a3 2040 	strh.w	r2, [r3, #64]	; 0x40
 8006d8c:	f8b3 2040 	ldrh.w	r2, [r3, #64]	; 0x40
 8006d90:	b292      	uxth	r2, r2
 8006d92:	f042 0208 	orr.w	r2, r2, #8
 8006d96:	2101      	movs	r1, #1
 8006d98:	f8a3 2040 	strh.w	r2, [r3, #64]	; 0x40
 8006d9c:	f884 12e0 	strb.w	r1, [r4, #736]	; 0x2e0
 8006da0:	f8b3 3054 	ldrh.w	r3, [r3, #84]	; 0x54
 8006da4:	f3c3 038d 	ubfx	r3, r3, #2, #14
 8006da8:	f003 033c 	and.w	r3, r3, #60	; 0x3c
 8006dac:	f8c4 32e4 	str.w	r3, [r4, #740]	; 0x2e4
 8006db0:	4620      	mov	r0, r4
 8006db2:	f004 fb4f 	bl	800b454 <HAL_PCDEx_LPM_Callback>
 8006db6:	6820      	ldr	r0, [r4, #0]
 8006db8:	f002 ff20 	bl	8009bfc <USB_ReadInterrupts>
 8006dbc:	0582      	lsls	r2, r0, #22
 8006dbe:	d50b      	bpl.n	8006dd8 <HAL_PCD_IRQHandler+0x19c>
 8006dc0:	6822      	ldr	r2, [r4, #0]
 8006dc2:	f8b2 3044 	ldrh.w	r3, [r2, #68]	; 0x44
 8006dc6:	f423 7300 	bic.w	r3, r3, #512	; 0x200
 8006dca:	041b      	lsls	r3, r3, #16
 8006dcc:	0c1b      	lsrs	r3, r3, #16
 8006dce:	f8a2 3044 	strh.w	r3, [r2, #68]	; 0x44
 8006dd2:	4620      	mov	r0, r4
 8006dd4:	f004 fa4f 	bl	800b276 <HAL_PCD_SOFCallback>
 8006dd8:	6820      	ldr	r0, [r4, #0]
 8006dda:	f002 ff0f 	bl	8009bfc <USB_ReadInterrupts>
 8006dde:	05c3      	lsls	r3, r0, #23
 8006de0:	d508      	bpl.n	8006df4 <HAL_PCD_IRQHandler+0x1b8>
 8006de2:	6822      	ldr	r2, [r4, #0]
 8006de4:	f8b2 3044 	ldrh.w	r3, [r2, #68]	; 0x44
 8006de8:	f423 7380 	bic.w	r3, r3, #256	; 0x100
 8006dec:	041b      	lsls	r3, r3, #16
 8006dee:	0c1b      	lsrs	r3, r3, #16
 8006df0:	f8a2 3044 	strh.w	r3, [r2, #68]	; 0x44
 8006df4:	e8bd 8ff8 	ldmia.w	sp!, {r3, r4, r5, r6, r7, r8, r9, sl, fp, pc}
 8006df8:	f8b0 7044 	ldrh.w	r7, [r0, #68]	; 0x44
 8006dfc:	b2b9      	uxth	r1, r7
 8006dfe:	f017 070f 	ands.w	r7, r7, #15
 8006e02:	f040 80ba 	bne.w	8006f7a <HAL_PCD_IRQHandler+0x33e>
 8006e06:	f011 0110 	ands.w	r1, r1, #16
 8006e0a:	d12c      	bne.n	8006e66 <HAL_PCD_IRQHandler+0x22a>
 8006e0c:	8803      	ldrh	r3, [r0, #0]
 8006e0e:	b29b      	uxth	r3, r3
 8006e10:	ea03 030a 	and.w	r3, r3, sl
 8006e14:	f443 4300 	orr.w	r3, r3, #32768	; 0x8000
 8006e18:	8003      	strh	r3, [r0, #0]
 8006e1a:	f8b0 3050 	ldrh.w	r3, [r0, #80]	; 0x50
 8006e1e:	f894 2028 	ldrb.w	r2, [r4, #40]	; 0x28
 8006e22:	f200 4002 	addw	r0, r0, #1026	; 0x402
 8006e26:	fa10 f383 	uxtah	r3, r0, r3
 8006e2a:	4620      	mov	r0, r4
 8006e2c:	f833 3032 	ldrh.w	r3, [r3, r2, lsl #3]
 8006e30:	6be2      	ldr	r2, [r4, #60]	; 0x3c
 8006e32:	f3c3 0309 	ubfx	r3, r3, #0, #10
 8006e36:	6463      	str	r3, [r4, #68]	; 0x44
 8006e38:	4413      	add	r3, r2
 8006e3a:	63e3      	str	r3, [r4, #60]	; 0x3c
 8006e3c:	f004 fa13 	bl	800b266 <HAL_PCD_DataInStageCallback>
 8006e40:	f894 3024 	ldrb.w	r3, [r4, #36]	; 0x24
 8006e44:	2b00      	cmp	r3, #0
 8006e46:	f43f af05 	beq.w	8006c54 <HAL_PCD_IRQHandler+0x18>
 8006e4a:	6c22      	ldr	r2, [r4, #64]	; 0x40
 8006e4c:	2a00      	cmp	r2, #0
 8006e4e:	f47f af01 	bne.w	8006c54 <HAL_PCD_IRQHandler+0x18>
 8006e52:	f894 3024 	ldrb.w	r3, [r4, #36]	; 0x24
 8006e56:	6821      	ldr	r1, [r4, #0]
 8006e58:	f043 0380 	orr.w	r3, r3, #128	; 0x80
 8006e5c:	f8a1 304c 	strh.w	r3, [r1, #76]	; 0x4c
 8006e60:	f884 2024 	strb.w	r2, [r4, #36]	; 0x24
 8006e64:	e6f6      	b.n	8006c54 <HAL_PCD_IRQHandler+0x18>
 8006e66:	8805      	ldrh	r5, [r0, #0]
 8006e68:	b2ab      	uxth	r3, r5
 8006e6a:	f415 6500 	ands.w	r5, r5, #2048	; 0x800
 8006e6e:	d020      	beq.n	8006eb2 <HAL_PCD_IRQHandler+0x276>
 8006e70:	f8b0 3050 	ldrh.w	r3, [r0, #80]	; 0x50
 8006e74:	f894 2168 	ldrb.w	r2, [r4, #360]	; 0x168
 8006e78:	f200 4106 	addw	r1, r0, #1030	; 0x406
 8006e7c:	fa11 f383 	uxtah	r3, r1, r3
 8006e80:	f504 712c 	add.w	r1, r4, #688	; 0x2b0
 8006e84:	f833 3032 	ldrh.w	r3, [r3, r2, lsl #3]
 8006e88:	f8b4 216e 	ldrh.w	r2, [r4, #366]	; 0x16e
 8006e8c:	f3c3 0309 	ubfx	r3, r3, #0, #10
 8006e90:	f8c4 3184 	str.w	r3, [r4, #388]	; 0x184
 8006e94:	f003 fa68 	bl	800a368 <USB_ReadPMA>
 8006e98:	6822      	ldr	r2, [r4, #0]
 8006e9a:	8813      	ldrh	r3, [r2, #0]
 8006e9c:	f023 0370 	bic.w	r3, r3, #112	; 0x70
 8006ea0:	051b      	lsls	r3, r3, #20
 8006ea2:	0d1b      	lsrs	r3, r3, #20
 8006ea4:	f043 0380 	orr.w	r3, r3, #128	; 0x80
 8006ea8:	8013      	strh	r3, [r2, #0]
 8006eaa:	4620      	mov	r0, r4
 8006eac:	f004 f9cc 	bl	800b248 <HAL_PCD_SetupStageCallback>
 8006eb0:	e6d0      	b.n	8006c54 <HAL_PCD_IRQHandler+0x18>
 8006eb2:	041b      	lsls	r3, r3, #16
 8006eb4:	f57f aece 	bpl.w	8006c54 <HAL_PCD_IRQHandler+0x18>
 8006eb8:	8803      	ldrh	r3, [r0, #0]
 8006eba:	f023 0370 	bic.w	r3, r3, #112	; 0x70
 8006ebe:	051b      	lsls	r3, r3, #20
 8006ec0:	0d1b      	lsrs	r3, r3, #20
 8006ec2:	f043 0380 	orr.w	r3, r3, #128	; 0x80
 8006ec6:	8003      	strh	r3, [r0, #0]
 8006ec8:	f8b0 3050 	ldrh.w	r3, [r0, #80]	; 0x50
 8006ecc:	f894 2168 	ldrb.w	r2, [r4, #360]	; 0x168
 8006ed0:	f200 4106 	addw	r1, r0, #1030	; 0x406
 8006ed4:	fa11 f383 	uxtah	r3, r1, r3
 8006ed8:	f833 3032 	ldrh.w	r3, [r3, r2, lsl #3]
 8006edc:	f3c3 0309 	ubfx	r3, r3, #0, #10
 8006ee0:	f8c4 3184 	str.w	r3, [r4, #388]	; 0x184
 8006ee4:	b18b      	cbz	r3, 8006f0a <HAL_PCD_IRQHandler+0x2ce>
 8006ee6:	f8d4 117c 	ldr.w	r1, [r4, #380]	; 0x17c
 8006eea:	b171      	cbz	r1, 8006f0a <HAL_PCD_IRQHandler+0x2ce>
 8006eec:	f8b4 216e 	ldrh.w	r2, [r4, #366]	; 0x16e
 8006ef0:	f003 fa3a 	bl	800a368 <USB_ReadPMA>
 8006ef4:	f8d4 317c 	ldr.w	r3, [r4, #380]	; 0x17c
 8006ef8:	f8d4 2184 	ldr.w	r2, [r4, #388]	; 0x184
 8006efc:	4413      	add	r3, r2
 8006efe:	f8c4 317c 	str.w	r3, [r4, #380]	; 0x17c
 8006f02:	4629      	mov	r1, r5
 8006f04:	4620      	mov	r0, r4
 8006f06:	f004 f9a5 	bl	800b254 <HAL_PCD_DataOutStageCallback>
 8006f0a:	6821      	ldr	r1, [r4, #0]
 8006f0c:	880b      	ldrh	r3, [r1, #0]
 8006f0e:	051f      	lsls	r7, r3, #20
 8006f10:	f53f aea0 	bmi.w	8006c54 <HAL_PCD_IRQHandler+0x18>
 8006f14:	f8b1 3050 	ldrh.w	r3, [r1, #80]	; 0x50
 8006f18:	f8d4 5178 	ldr.w	r5, [r4, #376]	; 0x178
 8006f1c:	b29b      	uxth	r3, r3
 8006f1e:	f201 4006 	addw	r0, r1, #1030	; 0x406
 8006f22:	b9cd      	cbnz	r5, 8006f58 <HAL_PCD_IRQHandler+0x31c>
 8006f24:	5ac2      	ldrh	r2, [r0, r3]
 8006f26:	f422 42f8 	bic.w	r2, r2, #31744	; 0x7c00
 8006f2a:	0412      	lsls	r2, r2, #16
 8006f2c:	0c12      	lsrs	r2, r2, #16
 8006f2e:	52c2      	strh	r2, [r0, r3]
 8006f30:	5ac2      	ldrh	r2, [r0, r3]
 8006f32:	b292      	uxth	r2, r2
 8006f34:	f442 4200 	orr.w	r2, r2, #32768	; 0x8000
 8006f38:	52c2      	strh	r2, [r0, r3]
 8006f3a:	880b      	ldrh	r3, [r1, #0]
 8006f3c:	f423 4380 	bic.w	r3, r3, #16384	; 0x4000
 8006f40:	f023 0370 	bic.w	r3, r3, #112	; 0x70
 8006f44:	041b      	lsls	r3, r3, #16
 8006f46:	0c1b      	lsrs	r3, r3, #16
 8006f48:	f483 5340 	eor.w	r3, r3, #12288	; 0x3000
 8006f4c:	f443 4300 	orr.w	r3, r3, #32768	; 0x8000
 8006f50:	f043 0380 	orr.w	r3, r3, #128	; 0x80
 8006f54:	800b      	strh	r3, [r1, #0]
 8006f56:	e67d      	b.n	8006c54 <HAL_PCD_IRQHandler+0x18>
 8006f58:	2d3e      	cmp	r5, #62	; 0x3e
 8006f5a:	d806      	bhi.n	8006f6a <HAL_PCD_IRQHandler+0x32e>
 8006f5c:	086a      	lsrs	r2, r5, #1
 8006f5e:	07ee      	lsls	r6, r5, #31
 8006f60:	bf48      	it	mi
 8006f62:	3201      	addmi	r2, #1
 8006f64:	0292      	lsls	r2, r2, #10
 8006f66:	b292      	uxth	r2, r2
 8006f68:	e7e6      	b.n	8006f38 <HAL_PCD_IRQHandler+0x2fc>
 8006f6a:	096a      	lsrs	r2, r5, #5
 8006f6c:	06ed      	lsls	r5, r5, #27
 8006f6e:	bf08      	it	eq
 8006f70:	f102 32ff 	addeq.w	r2, r2, #4294967295
 8006f74:	ea49 2282 	orr.w	r2, r9, r2, lsl #10
 8006f78:	e7f5      	b.n	8006f66 <HAL_PCD_IRQHandler+0x32a>
 8006f7a:	b23e      	sxth	r6, r7
 8006f7c:	f830 3026 	ldrh.w	r3, [r0, r6, lsl #2]
 8006f80:	fa1f f883 	uxth.w	r8, r3
 8006f84:	041b      	lsls	r3, r3, #16
 8006f86:	f140 80f6 	bpl.w	8007176 <HAL_PCD_IRQHandler+0x53a>
 8006f8a:	f830 3026 	ldrh.w	r3, [r0, r6, lsl #2]
 8006f8e:	f023 0370 	bic.w	r3, r3, #112	; 0x70
 8006f92:	051b      	lsls	r3, r3, #20
 8006f94:	0d1b      	lsrs	r3, r3, #20
 8006f96:	f043 0380 	orr.w	r3, r3, #128	; 0x80
 8006f9a:	2128      	movs	r1, #40	; 0x28
 8006f9c:	f820 3026 	strh.w	r3, [r0, r6, lsl #2]
 8006fa0:	fb01 4107 	mla	r1, r1, r7, r4
 8006fa4:	f891 3174 	ldrb.w	r3, [r1, #372]	; 0x174
 8006fa8:	b9b3      	cbnz	r3, 8006fd8 <HAL_PCD_IRQHandler+0x39c>
 8006faa:	f8b0 3050 	ldrh.w	r3, [r0, #80]	; 0x50
 8006fae:	f891 2168 	ldrb.w	r2, [r1, #360]	; 0x168
 8006fb2:	f200 4506 	addw	r5, r0, #1030	; 0x406
 8006fb6:	fa15 f383 	uxtah	r3, r5, r3
 8006fba:	f833 5032 	ldrh.w	r5, [r3, r2, lsl #3]
 8006fbe:	f3c5 0509 	ubfx	r5, r5, #0, #10
 8006fc2:	2d00      	cmp	r5, #0
 8006fc4:	f000 80bb 	beq.w	800713e <HAL_PCD_IRQHandler+0x502>
 8006fc8:	f8b1 216e 	ldrh.w	r2, [r1, #366]	; 0x16e
 8006fcc:	462b      	mov	r3, r5
 8006fce:	f8d1 117c 	ldr.w	r1, [r1, #380]	; 0x17c
 8006fd2:	f003 f9c9 	bl	800a368 <USB_ReadPMA>
 8006fd6:	e0b2      	b.n	800713e <HAL_PCD_IRQHandler+0x502>
 8006fd8:	f891 316b 	ldrb.w	r3, [r1, #363]	; 0x16b
 8006fdc:	f891 c168 	ldrb.w	ip, [r1, #360]	; 0x168
 8006fe0:	2b02      	cmp	r3, #2
 8006fe2:	f040 808b 	bne.w	80070fc <HAL_PCD_IRQHandler+0x4c0>
 8006fe6:	f418 4b80 	ands.w	fp, r8, #16384	; 0x4000
 8006fea:	f8d1 2180 	ldr.w	r2, [r1, #384]	; 0x180
 8006fee:	f8b0 3050 	ldrh.w	r3, [r0, #80]	; 0x50
 8006ff2:	ea4f 05cc 	mov.w	r5, ip, lsl #3
 8006ff6:	f008 0e40 	and.w	lr, r8, #64	; 0x40
 8006ffa:	d040      	beq.n	800707e <HAL_PCD_IRQHandler+0x442>
 8006ffc:	fa15 f583 	uxtah	r5, r5, r3
 8007000:	4405      	add	r5, r0
 8007002:	f8b5 5402 	ldrh.w	r5, [r5, #1026]	; 0x402
 8007006:	f3c5 0509 	ubfx	r5, r5, #0, #10
 800700a:	4295      	cmp	r5, r2
 800700c:	d913      	bls.n	8007036 <HAL_PCD_IRQHandler+0x3fa>
 800700e:	2300      	movs	r3, #0
 8007010:	f8c1 3180 	str.w	r3, [r1, #384]	; 0x180
 8007014:	f830 302c 	ldrh.w	r3, [r0, ip, lsl #2]
 8007018:	f423 4380 	bic.w	r3, r3, #16384	; 0x4000
 800701c:	f023 0370 	bic.w	r3, r3, #112	; 0x70
 8007020:	041b      	lsls	r3, r3, #16
 8007022:	0c1b      	lsrs	r3, r3, #16
 8007024:	f483 5300 	eor.w	r3, r3, #8192	; 0x2000
 8007028:	f443 4300 	orr.w	r3, r3, #32768	; 0x8000
 800702c:	f043 0380 	orr.w	r3, r3, #128	; 0x80
 8007030:	f820 302c 	strh.w	r3, [r0, ip, lsl #2]
 8007034:	e004      	b.n	8007040 <HAL_PCD_IRQHandler+0x404>
 8007036:	1b52      	subs	r2, r2, r5
 8007038:	f8c1 2180 	str.w	r2, [r1, #384]	; 0x180
 800703c:	2a00      	cmp	r2, #0
 800703e:	d0e9      	beq.n	8007014 <HAL_PCD_IRQHandler+0x3d8>
 8007040:	f1be 0f00 	cmp.w	lr, #0
 8007044:	d012      	beq.n	800706c <HAL_PCD_IRQHandler+0x430>
 8007046:	2328      	movs	r3, #40	; 0x28
 8007048:	fb03 4307 	mla	r3, r3, r7, r4
 800704c:	f893 2168 	ldrb.w	r2, [r3, #360]	; 0x168
 8007050:	f830 3022 	ldrh.w	r3, [r0, r2, lsl #2]
 8007054:	f423 43e0 	bic.w	r3, r3, #28672	; 0x7000
 8007058:	f023 0370 	bic.w	r3, r3, #112	; 0x70
 800705c:	041b      	lsls	r3, r3, #16
 800705e:	0c1b      	lsrs	r3, r3, #16
 8007060:	f443 4300 	orr.w	r3, r3, #32768	; 0x8000
 8007064:	f043 03c0 	orr.w	r3, r3, #192	; 0xc0
 8007068:	f820 3022 	strh.w	r3, [r0, r2, lsl #2]
 800706c:	2d00      	cmp	r5, #0
 800706e:	d066      	beq.n	800713e <HAL_PCD_IRQHandler+0x502>
 8007070:	2128      	movs	r1, #40	; 0x28
 8007072:	fb01 4107 	mla	r1, r1, r7, r4
 8007076:	f8b1 2170 	ldrh.w	r2, [r1, #368]	; 0x170
 800707a:	462b      	mov	r3, r5
 800707c:	e7a7      	b.n	8006fce <HAL_PCD_IRQHandler+0x392>
 800707e:	fa15 f383 	uxtah	r3, r5, r3
 8007082:	4403      	add	r3, r0
 8007084:	f8b3 5406 	ldrh.w	r5, [r3, #1030]	; 0x406
 8007088:	f3c5 0509 	ubfx	r5, r5, #0, #10
 800708c:	4295      	cmp	r5, r2
 800708e:	d912      	bls.n	80070b6 <HAL_PCD_IRQHandler+0x47a>
 8007090:	f8c1 b180 	str.w	fp, [r1, #384]	; 0x180
 8007094:	f830 302c 	ldrh.w	r3, [r0, ip, lsl #2]
 8007098:	f423 4380 	bic.w	r3, r3, #16384	; 0x4000
 800709c:	f023 0370 	bic.w	r3, r3, #112	; 0x70
 80070a0:	041b      	lsls	r3, r3, #16
 80070a2:	0c1b      	lsrs	r3, r3, #16
 80070a4:	f483 5300 	eor.w	r3, r3, #8192	; 0x2000
 80070a8:	f443 4300 	orr.w	r3, r3, #32768	; 0x8000
 80070ac:	f043 0380 	orr.w	r3, r3, #128	; 0x80
 80070b0:	f820 302c 	strh.w	r3, [r0, ip, lsl #2]
 80070b4:	e004      	b.n	80070c0 <HAL_PCD_IRQHandler+0x484>
 80070b6:	1b52      	subs	r2, r2, r5
 80070b8:	f8c1 2180 	str.w	r2, [r1, #384]	; 0x180
 80070bc:	2a00      	cmp	r2, #0
 80070be:	d0e9      	beq.n	8007094 <HAL_PCD_IRQHandler+0x458>
 80070c0:	f1be 0f00 	cmp.w	lr, #0
 80070c4:	d112      	bne.n	80070ec <HAL_PCD_IRQHandler+0x4b0>
 80070c6:	2328      	movs	r3, #40	; 0x28
 80070c8:	fb03 4307 	mla	r3, r3, r7, r4
 80070cc:	f893 2168 	ldrb.w	r2, [r3, #360]	; 0x168
 80070d0:	f830 3022 	ldrh.w	r3, [r0, r2, lsl #2]
 80070d4:	f423 43e0 	bic.w	r3, r3, #28672	; 0x7000
 80070d8:	f023 0370 	bic.w	r3, r3, #112	; 0x70
 80070dc:	041b      	lsls	r3, r3, #16
 80070de:	0c1b      	lsrs	r3, r3, #16
 80070e0:	f443 4300 	orr.w	r3, r3, #32768	; 0x8000
 80070e4:	f043 03c0 	orr.w	r3, r3, #192	; 0xc0
 80070e8:	f820 3022 	strh.w	r3, [r0, r2, lsl #2]
 80070ec:	b33d      	cbz	r5, 800713e <HAL_PCD_IRQHandler+0x502>
 80070ee:	2128      	movs	r1, #40	; 0x28
 80070f0:	fb01 4107 	mla	r1, r1, r7, r4
 80070f4:	f8b1 2172 	ldrh.w	r2, [r1, #370]	; 0x172
 80070f8:	462b      	mov	r3, r5
 80070fa:	e768      	b.n	8006fce <HAL_PCD_IRQHandler+0x392>
 80070fc:	f830 302c 	ldrh.w	r3, [r0, ip, lsl #2]
 8007100:	f423 43e0 	bic.w	r3, r3, #28672	; 0x7000
 8007104:	f023 0370 	bic.w	r3, r3, #112	; 0x70
 8007108:	041b      	lsls	r3, r3, #16
 800710a:	0c1b      	lsrs	r3, r3, #16
 800710c:	f443 4300 	orr.w	r3, r3, #32768	; 0x8000
 8007110:	f043 03c0 	orr.w	r3, r3, #192	; 0xc0
 8007114:	f820 302c 	strh.w	r3, [r0, ip, lsl #2]
 8007118:	f891 2168 	ldrb.w	r2, [r1, #360]	; 0x168
 800711c:	f830 3022 	ldrh.w	r3, [r0, r2, lsl #2]
 8007120:	f413 4f80 	tst.w	r3, #16384	; 0x4000
 8007124:	f8b0 3050 	ldrh.w	r3, [r0, #80]	; 0x50
 8007128:	d058      	beq.n	80071dc <HAL_PCD_IRQHandler+0x5a0>
 800712a:	f200 4502 	addw	r5, r0, #1026	; 0x402
 800712e:	fa15 f383 	uxtah	r3, r5, r3
 8007132:	f833 5032 	ldrh.w	r5, [r3, r2, lsl #3]
 8007136:	f3c5 0509 	ubfx	r5, r5, #0, #10
 800713a:	2d00      	cmp	r5, #0
 800713c:	d19b      	bne.n	8007076 <HAL_PCD_IRQHandler+0x43a>
 800713e:	2128      	movs	r1, #40	; 0x28
 8007140:	fb01 4307 	mla	r3, r1, r7, r4
 8007144:	f8d3 2184 	ldr.w	r2, [r3, #388]	; 0x184
 8007148:	442a      	add	r2, r5
 800714a:	f8c3 2184 	str.w	r2, [r3, #388]	; 0x184
 800714e:	f8d3 217c 	ldr.w	r2, [r3, #380]	; 0x17c
 8007152:	442a      	add	r2, r5
 8007154:	f8c3 217c 	str.w	r2, [r3, #380]	; 0x17c
 8007158:	f8d3 2180 	ldr.w	r2, [r3, #384]	; 0x180
 800715c:	b11a      	cbz	r2, 8007166 <HAL_PCD_IRQHandler+0x52a>
 800715e:	f8d3 3178 	ldr.w	r3, [r3, #376]	; 0x178
 8007162:	429d      	cmp	r5, r3
 8007164:	d245      	bcs.n	80071f2 <HAL_PCD_IRQHandler+0x5b6>
 8007166:	2328      	movs	r3, #40	; 0x28
 8007168:	fb03 4307 	mla	r3, r3, r7, r4
 800716c:	4620      	mov	r0, r4
 800716e:	f893 1168 	ldrb.w	r1, [r3, #360]	; 0x168
 8007172:	f004 f86f 	bl	800b254 <HAL_PCD_DataOutStageCallback>
 8007176:	f018 0f80 	tst.w	r8, #128	; 0x80
 800717a:	f43f ad6b 	beq.w	8006c54 <HAL_PCD_IRQHandler+0x18>
 800717e:	6820      	ldr	r0, [r4, #0]
 8007180:	f830 3026 	ldrh.w	r3, [r0, r6, lsl #2]
 8007184:	b29b      	uxth	r3, r3
 8007186:	ea03 030a 	and.w	r3, r3, sl
 800718a:	f443 4300 	orr.w	r3, r3, #32768	; 0x8000
 800718e:	f820 3026 	strh.w	r3, [r0, r6, lsl #2]
 8007192:	eb06 0686 	add.w	r6, r6, r6, lsl #2
 8007196:	eb04 06c6 	add.w	r6, r4, r6, lsl #3
 800719a:	f896 302b 	ldrb.w	r3, [r6, #43]	; 0x2b
 800719e:	2b02      	cmp	r3, #2
 80071a0:	f896 3028 	ldrb.w	r3, [r6, #40]	; 0x28
 80071a4:	d13b      	bne.n	800721e <HAL_PCD_IRQHandler+0x5e2>
 80071a6:	f418 7e80 	ands.w	lr, r8, #256	; 0x100
 80071aa:	d138      	bne.n	800721e <HAL_PCD_IRQHandler+0x5e2>
 80071ac:	f8b0 c050 	ldrh.w	ip, [r0, #80]	; 0x50
 80071b0:	f200 4802 	addw	r8, r0, #1026	; 0x402
 80071b4:	2128      	movs	r1, #40	; 0x28
 80071b6:	fa18 fc8c 	uxtah	ip, r8, ip
 80071ba:	fb01 4207 	mla	r2, r1, r7, r4
 80071be:	f83c 3033 	ldrh.w	r3, [ip, r3, lsl #3]
 80071c2:	6c15      	ldr	r5, [r2, #64]	; 0x40
 80071c4:	f3c3 0309 	ubfx	r3, r3, #0, #10
 80071c8:	42ab      	cmp	r3, r5
 80071ca:	d31a      	bcc.n	8007202 <HAL_PCD_IRQHandler+0x5c6>
 80071cc:	f8c2 e040 	str.w	lr, [r2, #64]	; 0x40
 80071d0:	f896 1028 	ldrb.w	r1, [r6, #40]	; 0x28
 80071d4:	4620      	mov	r0, r4
 80071d6:	f004 f846 	bl	800b266 <HAL_PCD_DataInStageCallback>
 80071da:	e53b      	b.n	8006c54 <HAL_PCD_IRQHandler+0x18>
 80071dc:	f200 4506 	addw	r5, r0, #1030	; 0x406
 80071e0:	fa15 f383 	uxtah	r3, r5, r3
 80071e4:	f833 5032 	ldrh.w	r5, [r3, r2, lsl #3]
 80071e8:	f3c5 0509 	ubfx	r5, r5, #0, #10
 80071ec:	2d00      	cmp	r5, #0
 80071ee:	d0a6      	beq.n	800713e <HAL_PCD_IRQHandler+0x502>
 80071f0:	e780      	b.n	80070f4 <HAL_PCD_IRQHandler+0x4b8>
 80071f2:	fb01 4107 	mla	r1, r1, r7, r4
 80071f6:	6820      	ldr	r0, [r4, #0]
 80071f8:	f501 71b4 	add.w	r1, r1, #360	; 0x168
 80071fc:	f002 fd14 	bl	8009c28 <USB_EPStartXfer>
 8007200:	e7b9      	b.n	8007176 <HAL_PCD_IRQHandler+0x53a>
 8007202:	1aed      	subs	r5, r5, r3
 8007204:	6415      	str	r5, [r2, #64]	; 0x40
 8007206:	6bd5      	ldr	r5, [r2, #60]	; 0x3c
 8007208:	441d      	add	r5, r3
 800720a:	63d5      	str	r5, [r2, #60]	; 0x3c
 800720c:	6c55      	ldr	r5, [r2, #68]	; 0x44
 800720e:	fb07 1101 	mla	r1, r7, r1, r1
 8007212:	442b      	add	r3, r5
 8007214:	6453      	str	r3, [r2, #68]	; 0x44
 8007216:	4421      	add	r1, r4
 8007218:	f002 fd06 	bl	8009c28 <USB_EPStartXfer>
 800721c:	e51a      	b.n	8006c54 <HAL_PCD_IRQHandler+0x18>
 800721e:	2228      	movs	r2, #40	; 0x28
 8007220:	fb02 4207 	mla	r2, r2, r7, r4
 8007224:	f018 0e40 	ands.w	lr, r8, #64	; 0x40
 8007228:	6c11      	ldr	r1, [r2, #64]	; 0x40
 800722a:	f8b0 2050 	ldrh.w	r2, [r0, #80]	; 0x50
 800722e:	b21b      	sxth	r3, r3
 8007230:	f408 4580 	and.w	r5, r8, #16384	; 0x4000
 8007234:	f000 80e7 	beq.w	8007406 <HAL_PCD_IRQHandler+0x7ca>
 8007238:	f200 4c02 	addw	ip, r0, #1026	; 0x402
 800723c:	fa1c f282 	uxtah	r2, ip, r2
 8007240:	f04f 0e28 	mov.w	lr, #40	; 0x28
 8007244:	f832 2033 	ldrh.w	r2, [r2, r3, lsl #3]
 8007248:	f3c2 0209 	ubfx	r2, r2, #0, #10
 800724c:	428a      	cmp	r2, r1
 800724e:	fb0e 4e07 	mla	lr, lr, r7, r4
 8007252:	bf34      	ite	cc
 8007254:	1a89      	subcc	r1, r1, r2
 8007256:	2100      	movcs	r1, #0
 8007258:	f8ce 1040 	str.w	r1, [lr, #64]	; 0x40
 800725c:	b2ad      	uxth	r5, r5
 800725e:	2900      	cmp	r1, #0
 8007260:	d15d      	bne.n	800731e <HAL_PCD_IRQHandler+0x6e2>
 8007262:	f896 2029 	ldrb.w	r2, [r6, #41]	; 0x29
 8007266:	2a00      	cmp	r2, #0
 8007268:	d144      	bne.n	80072f4 <HAL_PCD_IRQHandler+0x6b8>
 800726a:	f8b0 2050 	ldrh.w	r2, [r0, #80]	; 0x50
 800726e:	fa1c fc82 	uxtah	ip, ip, r2
 8007272:	f83c 2033 	ldrh.w	r2, [ip, r3, lsl #3]
 8007276:	f422 42f8 	bic.w	r2, r2, #31744	; 0x7c00
 800727a:	0412      	lsls	r2, r2, #16
 800727c:	0c12      	lsrs	r2, r2, #16
 800727e:	f82c 2033 	strh.w	r2, [ip, r3, lsl #3]
 8007282:	f83c 2033 	ldrh.w	r2, [ip, r3, lsl #3]
 8007286:	b292      	uxth	r2, r2
 8007288:	f442 4200 	orr.w	r2, r2, #32768	; 0x8000
 800728c:	f82c 2033 	strh.w	r2, [ip, r3, lsl #3]
 8007290:	f896 3029 	ldrb.w	r3, [r6, #41]	; 0x29
 8007294:	f896 2028 	ldrb.w	r2, [r6, #40]	; 0x28
 8007298:	bbab      	cbnz	r3, 8007306 <HAL_PCD_IRQHandler+0x6ca>
 800729a:	f8b0 3050 	ldrh.w	r3, [r0, #80]	; 0x50
 800729e:	f200 4006 	addw	r0, r0, #1030	; 0x406
 80072a2:	fa10 f083 	uxtah	r0, r0, r3
 80072a6:	eb00 00c2 	add.w	r0, r0, r2, lsl #3
 80072aa:	8803      	ldrh	r3, [r0, #0]
 80072ac:	f423 43f8 	bic.w	r3, r3, #31744	; 0x7c00
 80072b0:	041b      	lsls	r3, r3, #16
 80072b2:	0c1b      	lsrs	r3, r3, #16
 80072b4:	8003      	strh	r3, [r0, #0]
 80072b6:	8803      	ldrh	r3, [r0, #0]
 80072b8:	b29b      	uxth	r3, r3
 80072ba:	f443 4300 	orr.w	r3, r3, #32768	; 0x8000
 80072be:	8003      	strh	r3, [r0, #0]
 80072c0:	f896 1028 	ldrb.w	r1, [r6, #40]	; 0x28
 80072c4:	4620      	mov	r0, r4
 80072c6:	f003 ffce 	bl	800b266 <HAL_PCD_DataInStageCallback>
 80072ca:	2d00      	cmp	r5, #0
 80072cc:	f000 80ed 	beq.w	80074aa <HAL_PCD_IRQHandler+0x86e>
 80072d0:	f896 1028 	ldrb.w	r1, [r6, #40]	; 0x28
 80072d4:	6822      	ldr	r2, [r4, #0]
 80072d6:	f832 3021 	ldrh.w	r3, [r2, r1, lsl #2]
 80072da:	f423 43e0 	bic.w	r3, r3, #28672	; 0x7000
 80072de:	f023 0370 	bic.w	r3, r3, #112	; 0x70
 80072e2:	041b      	lsls	r3, r3, #16
 80072e4:	0c1b      	lsrs	r3, r3, #16
 80072e6:	f443 4340 	orr.w	r3, r3, #49152	; 0xc000
 80072ea:	f043 0380 	orr.w	r3, r3, #128	; 0x80
 80072ee:	f822 3021 	strh.w	r3, [r2, r1, lsl #2]
 80072f2:	e0da      	b.n	80074aa <HAL_PCD_IRQHandler+0x86e>
 80072f4:	2a01      	cmp	r2, #1
 80072f6:	bf02      	ittt	eq
 80072f8:	f8b0 2050 	ldrheq.w	r2, [r0, #80]	; 0x50
 80072fc:	fa1c fc82 	uxtaheq	ip, ip, r2
 8007300:	f82c 1033 	strheq.w	r1, [ip, r3, lsl #3]
 8007304:	e7c4      	b.n	8007290 <HAL_PCD_IRQHandler+0x654>
 8007306:	2b01      	cmp	r3, #1
 8007308:	d1da      	bne.n	80072c0 <HAL_PCD_IRQHandler+0x684>
 800730a:	f8b0 3050 	ldrh.w	r3, [r0, #80]	; 0x50
 800730e:	f200 4006 	addw	r0, r0, #1030	; 0x406
 8007312:	fa10 f083 	uxtah	r0, r0, r3
 8007316:	eb00 00c2 	add.w	r0, r0, r2, lsl #3
 800731a:	2300      	movs	r3, #0
 800731c:	e7cf      	b.n	80072be <HAL_PCD_IRQHandler+0x682>
 800731e:	b16d      	cbz	r5, 800733c <HAL_PCD_IRQHandler+0x700>
 8007320:	f830 1023 	ldrh.w	r1, [r0, r3, lsl #2]
 8007324:	f421 41e0 	bic.w	r1, r1, #28672	; 0x7000
 8007328:	f021 0170 	bic.w	r1, r1, #112	; 0x70
 800732c:	0409      	lsls	r1, r1, #16
 800732e:	0c09      	lsrs	r1, r1, #16
 8007330:	f441 4140 	orr.w	r1, r1, #49152	; 0xc000
 8007334:	f041 0180 	orr.w	r1, r1, #128	; 0x80
 8007338:	f820 1023 	strh.w	r1, [r0, r3, lsl #2]
 800733c:	2328      	movs	r3, #40	; 0x28
 800733e:	fb03 4307 	mla	r3, r3, r7, r4
 8007342:	f893 104c 	ldrb.w	r1, [r3, #76]	; 0x4c
 8007346:	2901      	cmp	r1, #1
 8007348:	f040 80af 	bne.w	80074aa <HAL_PCD_IRQHandler+0x86e>
 800734c:	6c5d      	ldr	r5, [r3, #68]	; 0x44
 800734e:	6bd9      	ldr	r1, [r3, #60]	; 0x3c
 8007350:	f8d3 e048 	ldr.w	lr, [r3, #72]	; 0x48
 8007354:	4415      	add	r5, r2
 8007356:	645d      	str	r5, [r3, #68]	; 0x44
 8007358:	6b9d      	ldr	r5, [r3, #56]	; 0x38
 800735a:	4411      	add	r1, r2
 800735c:	45ae      	cmp	lr, r5
 800735e:	63d9      	str	r1, [r3, #60]	; 0x3c
 8007360:	d326      	bcc.n	80073b0 <HAL_PCD_IRQHandler+0x774>
 8007362:	ebae 0205 	sub.w	r2, lr, r5
 8007366:	649a      	str	r2, [r3, #72]	; 0x48
 8007368:	f896 2029 	ldrb.w	r2, [r6, #41]	; 0x29
 800736c:	b2ab      	uxth	r3, r5
 800736e:	2a00      	cmp	r2, #0
 8007370:	d13c      	bne.n	80073ec <HAL_PCD_IRQHandler+0x7b0>
 8007372:	f8b0 2050 	ldrh.w	r2, [r0, #80]	; 0x50
 8007376:	f896 e028 	ldrb.w	lr, [r6, #40]	; 0x28
 800737a:	fa1c fc82 	uxtah	ip, ip, r2
 800737e:	eb0c 0cce 	add.w	ip, ip, lr, lsl #3
 8007382:	bb15      	cbnz	r5, 80073ca <HAL_PCD_IRQHandler+0x78e>
 8007384:	f8bc 2000 	ldrh.w	r2, [ip]
 8007388:	f422 42f8 	bic.w	r2, r2, #31744	; 0x7c00
 800738c:	0412      	lsls	r2, r2, #16
 800738e:	0c12      	lsrs	r2, r2, #16
 8007390:	f8ac 2000 	strh.w	r2, [ip]
 8007394:	f8bc 2000 	ldrh.w	r2, [ip]
 8007398:	b292      	uxth	r2, r2
 800739a:	f442 4200 	orr.w	r2, r2, #32768	; 0x8000
 800739e:	f8ac 2000 	strh.w	r2, [ip]
 80073a2:	2228      	movs	r2, #40	; 0x28
 80073a4:	fb02 4707 	mla	r7, r2, r7, r4
 80073a8:	8e3a      	ldrh	r2, [r7, #48]	; 0x30
 80073aa:	f002 fc2d 	bl	8009c08 <USB_WritePMA>
 80073ae:	e07c      	b.n	80074aa <HAL_PCD_IRQHandler+0x86e>
 80073b0:	f1be 0f00 	cmp.w	lr, #0
 80073b4:	d103      	bne.n	80073be <HAL_PCD_IRQHandler+0x782>
 80073b6:	f883 e04c 	strb.w	lr, [r3, #76]	; 0x4c
 80073ba:	4615      	mov	r5, r2
 80073bc:	e7d4      	b.n	8007368 <HAL_PCD_IRQHandler+0x72c>
 80073be:	2200      	movs	r2, #0
 80073c0:	f883 204c 	strb.w	r2, [r3, #76]	; 0x4c
 80073c4:	649a      	str	r2, [r3, #72]	; 0x48
 80073c6:	4675      	mov	r5, lr
 80073c8:	e7ce      	b.n	8007368 <HAL_PCD_IRQHandler+0x72c>
 80073ca:	2d3e      	cmp	r5, #62	; 0x3e
 80073cc:	d806      	bhi.n	80073dc <HAL_PCD_IRQHandler+0x7a0>
 80073ce:	086a      	lsrs	r2, r5, #1
 80073d0:	07ed      	lsls	r5, r5, #31
 80073d2:	bf48      	it	mi
 80073d4:	3201      	addmi	r2, #1
 80073d6:	0292      	lsls	r2, r2, #10
 80073d8:	b292      	uxth	r2, r2
 80073da:	e7e0      	b.n	800739e <HAL_PCD_IRQHandler+0x762>
 80073dc:	096a      	lsrs	r2, r5, #5
 80073de:	06ed      	lsls	r5, r5, #27
 80073e0:	bf08      	it	eq
 80073e2:	f102 32ff 	addeq.w	r2, r2, #4294967295
 80073e6:	ea49 2282 	orr.w	r2, r9, r2, lsl #10
 80073ea:	e7f5      	b.n	80073d8 <HAL_PCD_IRQHandler+0x79c>
 80073ec:	2a01      	cmp	r2, #1
 80073ee:	d1d8      	bne.n	80073a2 <HAL_PCD_IRQHandler+0x766>
 80073f0:	f8b0 2050 	ldrh.w	r2, [r0, #80]	; 0x50
 80073f4:	f896 5028 	ldrb.w	r5, [r6, #40]	; 0x28
 80073f8:	fa1c fc82 	uxtah	ip, ip, r2
 80073fc:	eb0c 0cc5 	add.w	ip, ip, r5, lsl #3
 8007400:	f8ac 3000 	strh.w	r3, [ip]
 8007404:	e7cd      	b.n	80073a2 <HAL_PCD_IRQHandler+0x766>
 8007406:	f200 4c06 	addw	ip, r0, #1030	; 0x406
 800740a:	fa1c f282 	uxtah	r2, ip, r2
 800740e:	b2ad      	uxth	r5, r5
 8007410:	f832 2033 	ldrh.w	r2, [r2, r3, lsl #3]
 8007414:	f3c2 0209 	ubfx	r2, r2, #0, #10
 8007418:	428a      	cmp	r2, r1
 800741a:	bf88      	it	hi
 800741c:	4671      	movhi	r1, lr
 800741e:	f04f 0e28 	mov.w	lr, #40	; 0x28
 8007422:	fb0e 4e07 	mla	lr, lr, r7, r4
 8007426:	bf98      	it	ls
 8007428:	1a89      	subls	r1, r1, r2
 800742a:	f8ce 1040 	str.w	r1, [lr, #64]	; 0x40
 800742e:	2900      	cmp	r1, #0
 8007430:	d164      	bne.n	80074fc <HAL_PCD_IRQHandler+0x8c0>
 8007432:	f896 2029 	ldrb.w	r2, [r6, #41]	; 0x29
 8007436:	2a00      	cmp	r2, #0
 8007438:	d14b      	bne.n	80074d2 <HAL_PCD_IRQHandler+0x896>
 800743a:	f8b0 1050 	ldrh.w	r1, [r0, #80]	; 0x50
 800743e:	f200 4202 	addw	r2, r0, #1026	; 0x402
 8007442:	fa12 f181 	uxtah	r1, r2, r1
 8007446:	f831 2033 	ldrh.w	r2, [r1, r3, lsl #3]
 800744a:	f422 42f8 	bic.w	r2, r2, #31744	; 0x7c00
 800744e:	0412      	lsls	r2, r2, #16
 8007450:	0c12      	lsrs	r2, r2, #16
 8007452:	f821 2033 	strh.w	r2, [r1, r3, lsl #3]
 8007456:	f831 2033 	ldrh.w	r2, [r1, r3, lsl #3]
 800745a:	b292      	uxth	r2, r2
 800745c:	f442 4200 	orr.w	r2, r2, #32768	; 0x8000
 8007460:	f821 2033 	strh.w	r2, [r1, r3, lsl #3]
 8007464:	f896 3029 	ldrb.w	r3, [r6, #41]	; 0x29
 8007468:	f896 2028 	ldrb.w	r2, [r6, #40]	; 0x28
 800746c:	2b00      	cmp	r3, #0
 800746e:	d13b      	bne.n	80074e8 <HAL_PCD_IRQHandler+0x8ac>
 8007470:	f8b0 3050 	ldrh.w	r3, [r0, #80]	; 0x50
 8007474:	fa1c fc83 	uxtah	ip, ip, r3
 8007478:	eb0c 0cc2 	add.w	ip, ip, r2, lsl #3
 800747c:	f8bc 3000 	ldrh.w	r3, [ip]
 8007480:	f423 43f8 	bic.w	r3, r3, #31744	; 0x7c00
 8007484:	041b      	lsls	r3, r3, #16
 8007486:	0c1b      	lsrs	r3, r3, #16
 8007488:	f8ac 3000 	strh.w	r3, [ip]
 800748c:	f8bc 3000 	ldrh.w	r3, [ip]
 8007490:	b29b      	uxth	r3, r3
 8007492:	f443 4300 	orr.w	r3, r3, #32768	; 0x8000
 8007496:	f8ac 3000 	strh.w	r3, [ip]
 800749a:	f896 1028 	ldrb.w	r1, [r6, #40]	; 0x28
 800749e:	4620      	mov	r0, r4
 80074a0:	f003 fee1 	bl	800b266 <HAL_PCD_DataInStageCallback>
 80074a4:	2d00      	cmp	r5, #0
 80074a6:	f43f af13 	beq.w	80072d0 <HAL_PCD_IRQHandler+0x694>
 80074aa:	f896 1028 	ldrb.w	r1, [r6, #40]	; 0x28
 80074ae:	6822      	ldr	r2, [r4, #0]
 80074b0:	f832 3021 	ldrh.w	r3, [r2, r1, lsl #2]
 80074b4:	b29b      	uxth	r3, r3
 80074b6:	f423 43e0 	bic.w	r3, r3, #28672	; 0x7000
 80074ba:	f023 0340 	bic.w	r3, r3, #64	; 0x40
 80074be:	f083 0330 	eor.w	r3, r3, #48	; 0x30
 80074c2:	f443 4300 	orr.w	r3, r3, #32768	; 0x8000
 80074c6:	f043 0380 	orr.w	r3, r3, #128	; 0x80
 80074ca:	f822 3021 	strh.w	r3, [r2, r1, lsl #2]
 80074ce:	f7ff bbc1 	b.w	8006c54 <HAL_PCD_IRQHandler+0x18>
 80074d2:	2a01      	cmp	r2, #1
 80074d4:	bf01      	itttt	eq
 80074d6:	f8b0 2050 	ldrheq.w	r2, [r0, #80]	; 0x50
 80074da:	f200 4702 	addweq	r7, r0, #1026	; 0x402
 80074de:	fa17 f282 	uxtaheq	r2, r7, r2
 80074e2:	f822 1033 	strheq.w	r1, [r2, r3, lsl #3]
 80074e6:	e7bd      	b.n	8007464 <HAL_PCD_IRQHandler+0x828>
 80074e8:	2b01      	cmp	r3, #1
 80074ea:	d1d6      	bne.n	800749a <HAL_PCD_IRQHandler+0x85e>
 80074ec:	f8b0 3050 	ldrh.w	r3, [r0, #80]	; 0x50
 80074f0:	fa1c fc83 	uxtah	ip, ip, r3
 80074f4:	eb0c 0cc2 	add.w	ip, ip, r2, lsl #3
 80074f8:	2300      	movs	r3, #0
 80074fa:	e7cc      	b.n	8007496 <HAL_PCD_IRQHandler+0x85a>
 80074fc:	b96d      	cbnz	r5, 800751a <HAL_PCD_IRQHandler+0x8de>
 80074fe:	f830 1023 	ldrh.w	r1, [r0, r3, lsl #2]
 8007502:	f421 41e0 	bic.w	r1, r1, #28672	; 0x7000
 8007506:	f021 0170 	bic.w	r1, r1, #112	; 0x70
 800750a:	0409      	lsls	r1, r1, #16
 800750c:	0c09      	lsrs	r1, r1, #16
 800750e:	f441 4140 	orr.w	r1, r1, #49152	; 0xc000
 8007512:	f041 0180 	orr.w	r1, r1, #128	; 0x80
 8007516:	f820 1023 	strh.w	r1, [r0, r3, lsl #2]
 800751a:	2528      	movs	r5, #40	; 0x28
 800751c:	fb05 4507 	mla	r5, r5, r7, r4
 8007520:	f895 304c 	ldrb.w	r3, [r5, #76]	; 0x4c
 8007524:	2b01      	cmp	r3, #1
 8007526:	d1c0      	bne.n	80074aa <HAL_PCD_IRQHandler+0x86e>
 8007528:	6c6b      	ldr	r3, [r5, #68]	; 0x44
 800752a:	6be9      	ldr	r1, [r5, #60]	; 0x3c
 800752c:	f8d5 e048 	ldr.w	lr, [r5, #72]	; 0x48
 8007530:	4413      	add	r3, r2
 8007532:	646b      	str	r3, [r5, #68]	; 0x44
 8007534:	6bab      	ldr	r3, [r5, #56]	; 0x38
 8007536:	4411      	add	r1, r2
 8007538:	459e      	cmp	lr, r3
 800753a:	63e9      	str	r1, [r5, #60]	; 0x3c
 800753c:	d325      	bcc.n	800758a <HAL_PCD_IRQHandler+0x94e>
 800753e:	ebae 0203 	sub.w	r2, lr, r3
 8007542:	64aa      	str	r2, [r5, #72]	; 0x48
 8007544:	f896 2029 	ldrb.w	r2, [r6, #41]	; 0x29
 8007548:	b29d      	uxth	r5, r3
 800754a:	2a00      	cmp	r2, #0
 800754c:	d13d      	bne.n	80075ca <HAL_PCD_IRQHandler+0x98e>
 800754e:	f8b0 2050 	ldrh.w	r2, [r0, #80]	; 0x50
 8007552:	f896 e028 	ldrb.w	lr, [r6, #40]	; 0x28
 8007556:	fa1c fc82 	uxtah	ip, ip, r2
 800755a:	eb0c 0cce 	add.w	ip, ip, lr, lsl #3
 800755e:	bb0b      	cbnz	r3, 80075a4 <HAL_PCD_IRQHandler+0x968>
 8007560:	f8bc 3000 	ldrh.w	r3, [ip]
 8007564:	f423 43f8 	bic.w	r3, r3, #31744	; 0x7c00
 8007568:	041b      	lsls	r3, r3, #16
 800756a:	0c1b      	lsrs	r3, r3, #16
 800756c:	f8ac 3000 	strh.w	r3, [ip]
 8007570:	f8bc 3000 	ldrh.w	r3, [ip]
 8007574:	b29b      	uxth	r3, r3
 8007576:	f443 4300 	orr.w	r3, r3, #32768	; 0x8000
 800757a:	f8ac 3000 	strh.w	r3, [ip]
 800757e:	2328      	movs	r3, #40	; 0x28
 8007580:	fb03 4707 	mla	r7, r3, r7, r4
 8007584:	462b      	mov	r3, r5
 8007586:	8e7a      	ldrh	r2, [r7, #50]	; 0x32
 8007588:	e70f      	b.n	80073aa <HAL_PCD_IRQHandler+0x76e>
 800758a:	f1be 0f00 	cmp.w	lr, #0
 800758e:	d103      	bne.n	8007598 <HAL_PCD_IRQHandler+0x95c>
 8007590:	f885 e04c 	strb.w	lr, [r5, #76]	; 0x4c
 8007594:	4613      	mov	r3, r2
 8007596:	e7d5      	b.n	8007544 <HAL_PCD_IRQHandler+0x908>
 8007598:	2300      	movs	r3, #0
 800759a:	64ab      	str	r3, [r5, #72]	; 0x48
 800759c:	f885 304c 	strb.w	r3, [r5, #76]	; 0x4c
 80075a0:	4673      	mov	r3, lr
 80075a2:	e7cf      	b.n	8007544 <HAL_PCD_IRQHandler+0x908>
 80075a4:	2b3e      	cmp	r3, #62	; 0x3e
 80075a6:	d808      	bhi.n	80075ba <HAL_PCD_IRQHandler+0x97e>
 80075a8:	085a      	lsrs	r2, r3, #1
 80075aa:	07db      	lsls	r3, r3, #31
 80075ac:	bf48      	it	mi
 80075ae:	3201      	addmi	r2, #1
 80075b0:	0292      	lsls	r2, r2, #10
 80075b2:	b292      	uxth	r2, r2
 80075b4:	f8ac 2000 	strh.w	r2, [ip]
 80075b8:	e7e1      	b.n	800757e <HAL_PCD_IRQHandler+0x942>
 80075ba:	095a      	lsrs	r2, r3, #5
 80075bc:	06db      	lsls	r3, r3, #27
 80075be:	bf08      	it	eq
 80075c0:	f102 32ff 	addeq.w	r2, r2, #4294967295
 80075c4:	ea49 2282 	orr.w	r2, r9, r2, lsl #10
 80075c8:	e7f3      	b.n	80075b2 <HAL_PCD_IRQHandler+0x976>
 80075ca:	2a01      	cmp	r2, #1
 80075cc:	d1d7      	bne.n	800757e <HAL_PCD_IRQHandler+0x942>
 80075ce:	f8b0 3050 	ldrh.w	r3, [r0, #80]	; 0x50
 80075d2:	f896 2028 	ldrb.w	r2, [r6, #40]	; 0x28
 80075d6:	fa1c fc83 	uxtah	ip, ip, r3
 80075da:	eb0c 0cc2 	add.w	ip, ip, r2, lsl #3
 80075de:	f8ac 5000 	strh.w	r5, [ip]
 80075e2:	e7cc      	b.n	800757e <HAL_PCD_IRQHandler+0x942>
 80075e4:	4620      	mov	r0, r4
 80075e6:	f003 fe5d 	bl	800b2a4 <HAL_PCD_SuspendCallback>
 80075ea:	f7ff bbe4 	b.w	8006db6 <HAL_PCD_IRQHandler+0x17a>
 80075ee:	bf00      	nop
 80075f0:	ffff8f0f 	.word	0xffff8f0f
 80075f4:	ffff8000 	.word	0xffff8000

080075f8 <HAL_PCD_EP_Open>:
 80075f8:	f011 0f80 	tst.w	r1, #128	; 0x80
 80075fc:	b570      	push	{r4, r5, r6, lr}
 80075fe:	4604      	mov	r4, r0
 8007600:	f001 0507 	and.w	r5, r1, #7
 8007604:	f04f 0028 	mov.w	r0, #40	; 0x28
 8007608:	d01c      	beq.n	8007644 <HAL_PCD_EP_Open+0x4c>
 800760a:	fb05 0000 	mla	r0, r5, r0, r0
 800760e:	1821      	adds	r1, r4, r0
 8007610:	2001      	movs	r0, #1
 8007612:	7048      	strb	r0, [r1, #1]
 8007614:	610a      	str	r2, [r1, #16]
 8007616:	784a      	ldrb	r2, [r1, #1]
 8007618:	700d      	strb	r5, [r1, #0]
 800761a:	70cb      	strb	r3, [r1, #3]
 800761c:	b102      	cbz	r2, 8007620 <HAL_PCD_EP_Open+0x28>
 800761e:	81cd      	strh	r5, [r1, #14]
 8007620:	2b02      	cmp	r3, #2
 8007622:	bf04      	itt	eq
 8007624:	2300      	moveq	r3, #0
 8007626:	710b      	strbeq	r3, [r1, #4]
 8007628:	f894 32a8 	ldrb.w	r3, [r4, #680]	; 0x2a8
 800762c:	2b01      	cmp	r3, #1
 800762e:	d013      	beq.n	8007658 <HAL_PCD_EP_Open+0x60>
 8007630:	2301      	movs	r3, #1
 8007632:	6820      	ldr	r0, [r4, #0]
 8007634:	f884 32a8 	strb.w	r3, [r4, #680]	; 0x2a8
 8007638:	f002 f900 	bl	800983c <USB_ActivateEndpoint>
 800763c:	2000      	movs	r0, #0
 800763e:	f884 02a8 	strb.w	r0, [r4, #680]	; 0x2a8
 8007642:	bd70      	pop	{r4, r5, r6, pc}
 8007644:	fb00 4105 	mla	r1, r0, r5, r4
 8007648:	fb00 4005 	mla	r0, r0, r5, r4
 800764c:	2600      	movs	r6, #0
 800764e:	f501 71b4 	add.w	r1, r1, #360	; 0x168
 8007652:	f880 6169 	strb.w	r6, [r0, #361]	; 0x169
 8007656:	e7dd      	b.n	8007614 <HAL_PCD_EP_Open+0x1c>
 8007658:	2002      	movs	r0, #2
 800765a:	e7f2      	b.n	8007642 <HAL_PCD_EP_Open+0x4a>

0800765c <HAL_PCD_EP_Receive>:
 800765c:	b570      	push	{r4, r5, r6, lr}
 800765e:	f001 0107 	and.w	r1, r1, #7
 8007662:	2628      	movs	r6, #40	; 0x28
 8007664:	fb06 0401 	mla	r4, r6, r1, r0
 8007668:	2500      	movs	r5, #0
 800766a:	f884 1168 	strb.w	r1, [r4, #360]	; 0x168
 800766e:	e9c4 235f 	strd	r2, r3, [r4, #380]	; 0x17c
 8007672:	f8c4 5184 	str.w	r5, [r4, #388]	; 0x184
 8007676:	f884 5169 	strb.w	r5, [r4, #361]	; 0x169
 800767a:	f504 71b4 	add.w	r1, r4, #360	; 0x168
 800767e:	6800      	ldr	r0, [r0, #0]
 8007680:	f002 fad2 	bl	8009c28 <USB_EPStartXfer>
 8007684:	4628      	mov	r0, r5
 8007686:	bd70      	pop	{r4, r5, r6, pc}

08007688 <HAL_PCD_EP_Transmit>:
 8007688:	b570      	push	{r4, r5, r6, lr}
 800768a:	f001 0107 	and.w	r1, r1, #7
 800768e:	2428      	movs	r4, #40	; 0x28
 8007690:	fb04 0501 	mla	r5, r4, r1, r0
 8007694:	e9c5 230f 	strd	r2, r3, [r5, #60]	; 0x3c
 8007698:	64ab      	str	r3, [r5, #72]	; 0x48
 800769a:	eb01 0381 	add.w	r3, r1, r1, lsl #2
 800769e:	eb00 03c3 	add.w	r3, r0, r3, lsl #3
 80076a2:	2201      	movs	r2, #1
 80076a4:	2600      	movs	r6, #0
 80076a6:	f885 204c 	strb.w	r2, [r5, #76]	; 0x4c
 80076aa:	646e      	str	r6, [r5, #68]	; 0x44
 80076ac:	f883 1028 	strb.w	r1, [r3, #40]	; 0x28
 80076b0:	fb01 4104 	mla	r1, r1, r4, r4
 80076b4:	4401      	add	r1, r0
 80076b6:	f883 2029 	strb.w	r2, [r3, #41]	; 0x29
 80076ba:	6800      	ldr	r0, [r0, #0]
 80076bc:	f002 fab4 	bl	8009c28 <USB_EPStartXfer>
 80076c0:	4630      	mov	r0, r6
 80076c2:	bd70      	pop	{r4, r5, r6, pc}

080076c4 <HAL_PCD_EP_SetStall>:
 80076c4:	b538      	push	{r3, r4, r5, lr}
 80076c6:	6843      	ldr	r3, [r0, #4]
 80076c8:	f001 0507 	and.w	r5, r1, #7
 80076cc:	429d      	cmp	r5, r3
 80076ce:	4604      	mov	r4, r0
 80076d0:	d82a      	bhi.n	8007728 <HAL_PCD_EP_SetStall+0x64>
 80076d2:	f011 0f80 	tst.w	r1, #128	; 0x80
 80076d6:	f04f 0328 	mov.w	r3, #40	; 0x28
 80076da:	d01b      	beq.n	8007714 <HAL_PCD_EP_SetStall+0x50>
 80076dc:	fb05 3303 	mla	r3, r5, r3, r3
 80076e0:	18c2      	adds	r2, r0, r3
 80076e2:	2301      	movs	r3, #1
 80076e4:	7053      	strb	r3, [r2, #1]
 80076e6:	2301      	movs	r3, #1
 80076e8:	7093      	strb	r3, [r2, #2]
 80076ea:	7015      	strb	r5, [r2, #0]
 80076ec:	f894 12a8 	ldrb.w	r1, [r4, #680]	; 0x2a8
 80076f0:	4299      	cmp	r1, r3
 80076f2:	d01b      	beq.n	800772c <HAL_PCD_EP_SetStall+0x68>
 80076f4:	6820      	ldr	r0, [r4, #0]
 80076f6:	f884 32a8 	strb.w	r3, [r4, #680]	; 0x2a8
 80076fa:	4611      	mov	r1, r2
 80076fc:	f002 f9fa 	bl	8009af4 <USB_EPSetStall>
 8007700:	b925      	cbnz	r5, 800770c <HAL_PCD_EP_SetStall+0x48>
 8007702:	6820      	ldr	r0, [r4, #0]
 8007704:	f504 712c 	add.w	r1, r4, #688	; 0x2b0
 8007708:	f002 fa7c 	bl	8009c04 <USB_EP0_OutStart>
 800770c:	2000      	movs	r0, #0
 800770e:	f884 02a8 	strb.w	r0, [r4, #680]	; 0x2a8
 8007712:	bd38      	pop	{r3, r4, r5, pc}
 8007714:	fb03 0201 	mla	r2, r3, r1, r0
 8007718:	fb03 0301 	mla	r3, r3, r1, r0
 800771c:	2100      	movs	r1, #0
 800771e:	f502 72b4 	add.w	r2, r2, #360	; 0x168
 8007722:	f883 1169 	strb.w	r1, [r3, #361]	; 0x169
 8007726:	e7de      	b.n	80076e6 <HAL_PCD_EP_SetStall+0x22>
 8007728:	2001      	movs	r0, #1
 800772a:	e7f2      	b.n	8007712 <HAL_PCD_EP_SetStall+0x4e>
 800772c:	2002      	movs	r0, #2
 800772e:	e7f0      	b.n	8007712 <HAL_PCD_EP_SetStall+0x4e>

08007730 <HAL_PCD_EP_ClrStall>:
 8007730:	b538      	push	{r3, r4, r5, lr}
 8007732:	6843      	ldr	r3, [r0, #4]
 8007734:	f001 020f 	and.w	r2, r1, #15
 8007738:	429a      	cmp	r2, r3
 800773a:	4604      	mov	r4, r0
 800773c:	d826      	bhi.n	800778c <HAL_PCD_EP_ClrStall+0x5c>
 800773e:	f011 0f80 	tst.w	r1, #128	; 0x80
 8007742:	f001 0207 	and.w	r2, r1, #7
 8007746:	f04f 0328 	mov.w	r3, #40	; 0x28
 800774a:	d015      	beq.n	8007778 <HAL_PCD_EP_ClrStall+0x48>
 800774c:	fb02 3303 	mla	r3, r2, r3, r3
 8007750:	18c1      	adds	r1, r0, r3
 8007752:	2301      	movs	r3, #1
 8007754:	704b      	strb	r3, [r1, #1]
 8007756:	2500      	movs	r5, #0
 8007758:	708d      	strb	r5, [r1, #2]
 800775a:	700a      	strb	r2, [r1, #0]
 800775c:	f894 32a8 	ldrb.w	r3, [r4, #680]	; 0x2a8
 8007760:	2b01      	cmp	r3, #1
 8007762:	d015      	beq.n	8007790 <HAL_PCD_EP_ClrStall+0x60>
 8007764:	2301      	movs	r3, #1
 8007766:	6820      	ldr	r0, [r4, #0]
 8007768:	f884 32a8 	strb.w	r3, [r4, #680]	; 0x2a8
 800776c:	f002 f9e2 	bl	8009b34 <USB_EPClearStall>
 8007770:	f884 52a8 	strb.w	r5, [r4, #680]	; 0x2a8
 8007774:	4628      	mov	r0, r5
 8007776:	bd38      	pop	{r3, r4, r5, pc}
 8007778:	fb03 0102 	mla	r1, r3, r2, r0
 800777c:	fb03 0302 	mla	r3, r3, r2, r0
 8007780:	2000      	movs	r0, #0
 8007782:	f501 71b4 	add.w	r1, r1, #360	; 0x168
 8007786:	f883 0169 	strb.w	r0, [r3, #361]	; 0x169
 800778a:	e7e4      	b.n	8007756 <HAL_PCD_EP_ClrStall+0x26>
 800778c:	2001      	movs	r0, #1
 800778e:	e7f2      	b.n	8007776 <HAL_PCD_EP_ClrStall+0x46>
 8007790:	2002      	movs	r0, #2
 8007792:	e7f0      	b.n	8007776 <HAL_PCD_EP_ClrStall+0x46>

08007794 <HAL_PCDEx_PMAConfig>:
 8007794:	f011 0f80 	tst.w	r1, #128	; 0x80
 8007798:	b530      	push	{r4, r5, lr}
 800779a:	f04f 0528 	mov.w	r5, #40	; 0x28
 800779e:	bf17      	itett	ne
 80077a0:	f001 0407 	andne.w	r4, r1, #7
 80077a4:	fb05 0001 	mlaeq	r0, r5, r1, r0
 80077a8:	fb04 5505 	mlane	r5, r4, r5, r5
 80077ac:	1940      	addne	r0, r0, r5
 80077ae:	bf08      	it	eq
 80077b0:	f500 70b4 	addeq.w	r0, r0, #360	; 0x168
 80077b4:	b299      	uxth	r1, r3
 80077b6:	b91a      	cbnz	r2, 80077c0 <HAL_PCDEx_PMAConfig+0x2c>
 80077b8:	7302      	strb	r2, [r0, #12]
 80077ba:	80c1      	strh	r1, [r0, #6]
 80077bc:	2000      	movs	r0, #0
 80077be:	bd30      	pop	{r4, r5, pc}
 80077c0:	2201      	movs	r2, #1
 80077c2:	7302      	strb	r2, [r0, #12]
 80077c4:	6083      	str	r3, [r0, #8]
 80077c6:	e7f9      	b.n	80077bc <HAL_PCDEx_PMAConfig+0x28>

080077c8 <HAL_PCDEx_ActivateLPM>:
 80077c8:	6802      	ldr	r2, [r0, #0]
 80077ca:	2100      	movs	r1, #0
 80077cc:	f880 12e0 	strb.w	r1, [r0, #736]	; 0x2e0
 80077d0:	2301      	movs	r3, #1
 80077d2:	f8c0 32e8 	str.w	r3, [r0, #744]	; 0x2e8
 80077d6:	f8b2 3054 	ldrh.w	r3, [r2, #84]	; 0x54
 80077da:	b29b      	uxth	r3, r3
 80077dc:	f043 0301 	orr.w	r3, r3, #1
 80077e0:	f8a2 3054 	strh.w	r3, [r2, #84]	; 0x54
 80077e4:	f8b2 3054 	ldrh.w	r3, [r2, #84]	; 0x54
 80077e8:	b29b      	uxth	r3, r3
 80077ea:	f043 0302 	orr.w	r3, r3, #2
 80077ee:	f8a2 3054 	strh.w	r3, [r2, #84]	; 0x54
 80077f2:	4608      	mov	r0, r1
 80077f4:	4770      	bx	lr
	...

080077f8 <HAL_PWR_EnableBkUpAccess>:
 80077f8:	4a02      	ldr	r2, [pc, #8]	; (8007804 <HAL_PWR_EnableBkUpAccess+0xc>)
 80077fa:	6813      	ldr	r3, [r2, #0]
 80077fc:	f443 7380 	orr.w	r3, r3, #256	; 0x100
 8007800:	6013      	str	r3, [r2, #0]
 8007802:	4770      	bx	lr
 8007804:	40007000 	.word	0x40007000

08007808 <HAL_PWREx_GetVoltageRange>:
 8007808:	4b02      	ldr	r3, [pc, #8]	; (8007814 <HAL_PWREx_GetVoltageRange+0xc>)
 800780a:	6818      	ldr	r0, [r3, #0]
 800780c:	f400 60c0 	and.w	r0, r0, #1536	; 0x600
 8007810:	4770      	bx	lr
 8007812:	bf00      	nop
 8007814:	40007000 	.word	0x40007000

08007818 <HAL_PWREx_ControlVoltageScaling>:
 8007818:	4b17      	ldr	r3, [pc, #92]	; (8007878 <HAL_PWREx_ControlVoltageScaling+0x60>)
 800781a:	681a      	ldr	r2, [r3, #0]
 800781c:	f5b0 7f00 	cmp.w	r0, #512	; 0x200
 8007820:	f402 62c0 	and.w	r2, r2, #1536	; 0x600
 8007824:	d11e      	bne.n	8007864 <HAL_PWREx_ControlVoltageScaling+0x4c>
 8007826:	f5b2 7f00 	cmp.w	r2, #512	; 0x200
 800782a:	d101      	bne.n	8007830 <HAL_PWREx_ControlVoltageScaling+0x18>
 800782c:	2000      	movs	r0, #0
 800782e:	4770      	bx	lr
 8007830:	681a      	ldr	r2, [r3, #0]
 8007832:	f422 62c0 	bic.w	r2, r2, #1536	; 0x600
 8007836:	f442 7200 	orr.w	r2, r2, #512	; 0x200
 800783a:	601a      	str	r2, [r3, #0]
 800783c:	4a0f      	ldr	r2, [pc, #60]	; (800787c <HAL_PWREx_ControlVoltageScaling+0x64>)
 800783e:	6811      	ldr	r1, [r2, #0]
 8007840:	2232      	movs	r2, #50	; 0x32
 8007842:	434a      	muls	r2, r1
 8007844:	490e      	ldr	r1, [pc, #56]	; (8007880 <HAL_PWREx_ControlVoltageScaling+0x68>)
 8007846:	fbb2 f2f1 	udiv	r2, r2, r1
 800784a:	4619      	mov	r1, r3
 800784c:	3201      	adds	r2, #1
 800784e:	6958      	ldr	r0, [r3, #20]
 8007850:	0540      	lsls	r0, r0, #21
 8007852:	d500      	bpl.n	8007856 <HAL_PWREx_ControlVoltageScaling+0x3e>
 8007854:	b922      	cbnz	r2, 8007860 <HAL_PWREx_ControlVoltageScaling+0x48>
 8007856:	694b      	ldr	r3, [r1, #20]
 8007858:	055b      	lsls	r3, r3, #21
 800785a:	d5e7      	bpl.n	800782c <HAL_PWREx_ControlVoltageScaling+0x14>
 800785c:	2003      	movs	r0, #3
 800785e:	4770      	bx	lr
 8007860:	3a01      	subs	r2, #1
 8007862:	e7f4      	b.n	800784e <HAL_PWREx_ControlVoltageScaling+0x36>
 8007864:	f5b2 6f80 	cmp.w	r2, #1024	; 0x400
 8007868:	bf1f      	itttt	ne
 800786a:	681a      	ldrne	r2, [r3, #0]
 800786c:	f422 62c0 	bicne.w	r2, r2, #1536	; 0x600
 8007870:	f442 6280 	orrne.w	r2, r2, #1024	; 0x400
 8007874:	601a      	strne	r2, [r3, #0]
 8007876:	e7d9      	b.n	800782c <HAL_PWREx_ControlVoltageScaling+0x14>
 8007878:	40007000 	.word	0x40007000
 800787c:	2000064c 	.word	0x2000064c
 8007880:	000f4240 	.word	0x000f4240

08007884 <HAL_PWREx_EnableVddUSB>:
 8007884:	4a02      	ldr	r2, [pc, #8]	; (8007890 <HAL_PWREx_EnableVddUSB+0xc>)
 8007886:	6853      	ldr	r3, [r2, #4]
 8007888:	f443 6380 	orr.w	r3, r3, #1024	; 0x400
 800788c:	6053      	str	r3, [r2, #4]
 800788e:	4770      	bx	lr
 8007890:	40007000 	.word	0x40007000

08007894 <RCC_SetFlashLatencyFromMSIRange>:
 8007894:	b537      	push	{r0, r1, r2, r4, r5, lr}
 8007896:	4d1e      	ldr	r5, [pc, #120]	; (8007910 <RCC_SetFlashLatencyFromMSIRange+0x7c>)
 8007898:	6dab      	ldr	r3, [r5, #88]	; 0x58
 800789a:	00da      	lsls	r2, r3, #3
 800789c:	4604      	mov	r4, r0
 800789e:	d518      	bpl.n	80078d2 <RCC_SetFlashLatencyFromMSIRange+0x3e>
 80078a0:	f7ff ffb2 	bl	8007808 <HAL_PWREx_GetVoltageRange>
 80078a4:	f5b0 7f00 	cmp.w	r0, #512	; 0x200
 80078a8:	d123      	bne.n	80078f2 <RCC_SetFlashLatencyFromMSIRange+0x5e>
 80078aa:	2c80      	cmp	r4, #128	; 0x80
 80078ac:	d929      	bls.n	8007902 <RCC_SetFlashLatencyFromMSIRange+0x6e>
 80078ae:	2ca0      	cmp	r4, #160	; 0xa0
 80078b0:	bf8c      	ite	hi
 80078b2:	2402      	movhi	r4, #2
 80078b4:	2401      	movls	r4, #1
 80078b6:	4917      	ldr	r1, [pc, #92]	; (8007914 <RCC_SetFlashLatencyFromMSIRange+0x80>)
 80078b8:	680a      	ldr	r2, [r1, #0]
 80078ba:	f022 0207 	bic.w	r2, r2, #7
 80078be:	4322      	orrs	r2, r4
 80078c0:	600a      	str	r2, [r1, #0]
 80078c2:	6808      	ldr	r0, [r1, #0]
 80078c4:	f000 0007 	and.w	r0, r0, #7
 80078c8:	1b00      	subs	r0, r0, r4
 80078ca:	bf18      	it	ne
 80078cc:	2001      	movne	r0, #1
 80078ce:	b003      	add	sp, #12
 80078d0:	bd30      	pop	{r4, r5, pc}
 80078d2:	6dab      	ldr	r3, [r5, #88]	; 0x58
 80078d4:	f043 5380 	orr.w	r3, r3, #268435456	; 0x10000000
 80078d8:	65ab      	str	r3, [r5, #88]	; 0x58
 80078da:	6dab      	ldr	r3, [r5, #88]	; 0x58
 80078dc:	f003 5380 	and.w	r3, r3, #268435456	; 0x10000000
 80078e0:	9301      	str	r3, [sp, #4]
 80078e2:	9b01      	ldr	r3, [sp, #4]
 80078e4:	f7ff ff90 	bl	8007808 <HAL_PWREx_GetVoltageRange>
 80078e8:	6dab      	ldr	r3, [r5, #88]	; 0x58
 80078ea:	f023 5380 	bic.w	r3, r3, #268435456	; 0x10000000
 80078ee:	65ab      	str	r3, [r5, #88]	; 0x58
 80078f0:	e7d8      	b.n	80078a4 <RCC_SetFlashLatencyFromMSIRange+0x10>
 80078f2:	2c80      	cmp	r4, #128	; 0x80
 80078f4:	d807      	bhi.n	8007906 <RCC_SetFlashLatencyFromMSIRange+0x72>
 80078f6:	d008      	beq.n	800790a <RCC_SetFlashLatencyFromMSIRange+0x76>
 80078f8:	f1a4 0370 	sub.w	r3, r4, #112	; 0x70
 80078fc:	425c      	negs	r4, r3
 80078fe:	415c      	adcs	r4, r3
 8007900:	e7d9      	b.n	80078b6 <RCC_SetFlashLatencyFromMSIRange+0x22>
 8007902:	2400      	movs	r4, #0
 8007904:	e7d7      	b.n	80078b6 <RCC_SetFlashLatencyFromMSIRange+0x22>
 8007906:	2403      	movs	r4, #3
 8007908:	e7d5      	b.n	80078b6 <RCC_SetFlashLatencyFromMSIRange+0x22>
 800790a:	2402      	movs	r4, #2
 800790c:	e7d3      	b.n	80078b6 <RCC_SetFlashLatencyFromMSIRange+0x22>
 800790e:	bf00      	nop
 8007910:	40021000 	.word	0x40021000
 8007914:	40022000 	.word	0x40022000

08007918 <HAL_RCC_DeInit>:
 8007918:	b5f8      	push	{r3, r4, r5, r6, r7, lr}
 800791a:	4c30      	ldr	r4, [pc, #192]	; (80079dc <HAL_RCC_DeInit+0xc4>)
 800791c:	6823      	ldr	r3, [r4, #0]
 800791e:	f043 0301 	orr.w	r3, r3, #1
 8007922:	6023      	str	r3, [r4, #0]
 8007924:	f7fe fa9a 	bl	8005e5c <HAL_GetTick>
 8007928:	4605      	mov	r5, r0
 800792a:	6823      	ldr	r3, [r4, #0]
 800792c:	079b      	lsls	r3, r3, #30
 800792e:	d53e      	bpl.n	80079ae <HAL_RCC_DeInit+0x96>
 8007930:	6823      	ldr	r3, [r4, #0]
 8007932:	4a2b      	ldr	r2, [pc, #172]	; (80079e0 <HAL_RCC_DeInit+0xc8>)
 8007934:	f023 03f0 	bic.w	r3, r3, #240	; 0xf0
 8007938:	f043 0360 	orr.w	r3, r3, #96	; 0x60
 800793c:	6023      	str	r3, [r4, #0]
 800793e:	2300      	movs	r3, #0
 8007940:	60a3      	str	r3, [r4, #8]
 8007942:	4b28      	ldr	r3, [pc, #160]	; (80079e4 <HAL_RCC_DeInit+0xcc>)
 8007944:	601a      	str	r2, [r3, #0]
 8007946:	4b28      	ldr	r3, [pc, #160]	; (80079e8 <HAL_RCC_DeInit+0xd0>)
 8007948:	6818      	ldr	r0, [r3, #0]
 800794a:	f7fe fa45 	bl	8005dd8 <HAL_InitTick>
 800794e:	4605      	mov	r5, r0
 8007950:	2800      	cmp	r0, #0
 8007952:	d140      	bne.n	80079d6 <HAL_RCC_DeInit+0xbe>
 8007954:	f7fe fa82 	bl	8005e5c <HAL_GetTick>
 8007958:	f241 3788 	movw	r7, #5000	; 0x1388
 800795c:	4606      	mov	r6, r0
 800795e:	68a3      	ldr	r3, [r4, #8]
 8007960:	f013 0f0c 	tst.w	r3, #12
 8007964:	d12b      	bne.n	80079be <HAL_RCC_DeInit+0xa6>
 8007966:	6822      	ldr	r2, [r4, #0]
 8007968:	4b20      	ldr	r3, [pc, #128]	; (80079ec <HAL_RCC_DeInit+0xd4>)
 800796a:	4013      	ands	r3, r2
 800796c:	6023      	str	r3, [r4, #0]
 800796e:	f7fe fa75 	bl	8005e5c <HAL_GetTick>
 8007972:	4606      	mov	r6, r0
 8007974:	6823      	ldr	r3, [r4, #0]
 8007976:	f013 6320 	ands.w	r3, r3, #167772160	; 0xa000000
 800797a:	d126      	bne.n	80079ca <HAL_RCC_DeInit+0xb2>
 800797c:	60e3      	str	r3, [r4, #12]
 800797e:	68e2      	ldr	r2, [r4, #12]
 8007980:	f442 5280 	orr.w	r2, r2, #4096	; 0x1000
 8007984:	60e2      	str	r2, [r4, #12]
 8007986:	6123      	str	r3, [r4, #16]
 8007988:	6922      	ldr	r2, [r4, #16]
 800798a:	f442 5280 	orr.w	r2, r2, #4096	; 0x1000
 800798e:	6122      	str	r2, [r4, #16]
 8007990:	6822      	ldr	r2, [r4, #0]
 8007992:	f422 2280 	bic.w	r2, r2, #262144	; 0x40000
 8007996:	6022      	str	r2, [r4, #0]
 8007998:	61a3      	str	r3, [r4, #24]
 800799a:	f04f 33ff 	mov.w	r3, #4294967295
 800799e:	6223      	str	r3, [r4, #32]
 80079a0:	f8d4 3094 	ldr.w	r3, [r4, #148]	; 0x94
 80079a4:	f443 0300 	orr.w	r3, r3, #8388608	; 0x800000
 80079a8:	f8c4 3094 	str.w	r3, [r4, #148]	; 0x94
 80079ac:	e005      	b.n	80079ba <HAL_RCC_DeInit+0xa2>
 80079ae:	f7fe fa55 	bl	8005e5c <HAL_GetTick>
 80079b2:	1b40      	subs	r0, r0, r5
 80079b4:	2802      	cmp	r0, #2
 80079b6:	d9b8      	bls.n	800792a <HAL_RCC_DeInit+0x12>
 80079b8:	2503      	movs	r5, #3
 80079ba:	4628      	mov	r0, r5
 80079bc:	bdf8      	pop	{r3, r4, r5, r6, r7, pc}
 80079be:	f7fe fa4d 	bl	8005e5c <HAL_GetTick>
 80079c2:	1b80      	subs	r0, r0, r6
 80079c4:	42b8      	cmp	r0, r7
 80079c6:	d9ca      	bls.n	800795e <HAL_RCC_DeInit+0x46>
 80079c8:	e7f6      	b.n	80079b8 <HAL_RCC_DeInit+0xa0>
 80079ca:	f7fe fa47 	bl	8005e5c <HAL_GetTick>
 80079ce:	1b80      	subs	r0, r0, r6
 80079d0:	2802      	cmp	r0, #2
 80079d2:	d9cf      	bls.n	8007974 <HAL_RCC_DeInit+0x5c>
 80079d4:	e7f0      	b.n	80079b8 <HAL_RCC_DeInit+0xa0>
 80079d6:	2501      	movs	r5, #1
 80079d8:	e7ef      	b.n	80079ba <HAL_RCC_DeInit+0xa2>
 80079da:	bf00      	nop
 80079dc:	40021000 	.word	0x40021000
 80079e0:	003d0900 	.word	0x003d0900
 80079e4:	2000064c 	.word	0x2000064c
 80079e8:	20000654 	.word	0x20000654
 80079ec:	fafef4ff 	.word	0xfafef4ff

080079f0 <HAL_RCC_GetSysClockFreq>:
 80079f0:	4b22      	ldr	r3, [pc, #136]	; (8007a7c <HAL_RCC_GetSysClockFreq+0x8c>)
 80079f2:	689a      	ldr	r2, [r3, #8]
 80079f4:	68d9      	ldr	r1, [r3, #12]
 80079f6:	f012 020c 	ands.w	r2, r2, #12
 80079fa:	d005      	beq.n	8007a08 <HAL_RCC_GetSysClockFreq+0x18>
 80079fc:	2a0c      	cmp	r2, #12
 80079fe:	d115      	bne.n	8007a2c <HAL_RCC_GetSysClockFreq+0x3c>
 8007a00:	f001 0103 	and.w	r1, r1, #3
 8007a04:	2901      	cmp	r1, #1
 8007a06:	d118      	bne.n	8007a3a <HAL_RCC_GetSysClockFreq+0x4a>
 8007a08:	6819      	ldr	r1, [r3, #0]
 8007a0a:	481d      	ldr	r0, [pc, #116]	; (8007a80 <HAL_RCC_GetSysClockFreq+0x90>)
 8007a0c:	0709      	lsls	r1, r1, #28
 8007a0e:	bf55      	itete	pl
 8007a10:	f8d3 1094 	ldrpl.w	r1, [r3, #148]	; 0x94
 8007a14:	6819      	ldrmi	r1, [r3, #0]
 8007a16:	f3c1 2103 	ubfxpl	r1, r1, #8, #4
 8007a1a:	f3c1 1103 	ubfxmi	r1, r1, #4, #4
 8007a1e:	f850 0021 	ldr.w	r0, [r0, r1, lsl #2]
 8007a22:	b34a      	cbz	r2, 8007a78 <HAL_RCC_GetSysClockFreq+0x88>
 8007a24:	2a0c      	cmp	r2, #12
 8007a26:	d009      	beq.n	8007a3c <HAL_RCC_GetSysClockFreq+0x4c>
 8007a28:	2000      	movs	r0, #0
 8007a2a:	4770      	bx	lr
 8007a2c:	2a04      	cmp	r2, #4
 8007a2e:	d022      	beq.n	8007a76 <HAL_RCC_GetSysClockFreq+0x86>
 8007a30:	2a08      	cmp	r2, #8
 8007a32:	4814      	ldr	r0, [pc, #80]	; (8007a84 <HAL_RCC_GetSysClockFreq+0x94>)
 8007a34:	bf18      	it	ne
 8007a36:	2000      	movne	r0, #0
 8007a38:	4770      	bx	lr
 8007a3a:	2000      	movs	r0, #0
 8007a3c:	68da      	ldr	r2, [r3, #12]
 8007a3e:	f002 0203 	and.w	r2, r2, #3
 8007a42:	2a02      	cmp	r2, #2
 8007a44:	d015      	beq.n	8007a72 <HAL_RCC_GetSysClockFreq+0x82>
 8007a46:	490f      	ldr	r1, [pc, #60]	; (8007a84 <HAL_RCC_GetSysClockFreq+0x94>)
 8007a48:	2a03      	cmp	r2, #3
 8007a4a:	bf08      	it	eq
 8007a4c:	4608      	moveq	r0, r1
 8007a4e:	68da      	ldr	r2, [r3, #12]
 8007a50:	68d9      	ldr	r1, [r3, #12]
 8007a52:	68db      	ldr	r3, [r3, #12]
 8007a54:	f3c3 6341 	ubfx	r3, r3, #25, #2
 8007a58:	f3c1 2106 	ubfx	r1, r1, #8, #7
 8007a5c:	f3c2 1202 	ubfx	r2, r2, #4, #3
 8007a60:	3301      	adds	r3, #1
 8007a62:	4348      	muls	r0, r1
 8007a64:	3201      	adds	r2, #1
 8007a66:	005b      	lsls	r3, r3, #1
 8007a68:	fbb0 f0f2 	udiv	r0, r0, r2
 8007a6c:	fbb0 f0f3 	udiv	r0, r0, r3
 8007a70:	4770      	bx	lr
 8007a72:	4805      	ldr	r0, [pc, #20]	; (8007a88 <HAL_RCC_GetSysClockFreq+0x98>)
 8007a74:	e7eb      	b.n	8007a4e <HAL_RCC_GetSysClockFreq+0x5e>
 8007a76:	4804      	ldr	r0, [pc, #16]	; (8007a88 <HAL_RCC_GetSysClockFreq+0x98>)
 8007a78:	4770      	bx	lr
 8007a7a:	bf00      	nop
 8007a7c:	40021000 	.word	0x40021000
 8007a80:	0800fd4c 	.word	0x0800fd4c
 8007a84:	007a1200 	.word	0x007a1200
 8007a88:	00f42400 	.word	0x00f42400

08007a8c <HAL_RCC_OscConfig>:
 8007a8c:	e92d 43f7 	stmdb	sp!, {r0, r1, r2, r4, r5, r6, r7, r8, r9, lr}
 8007a90:	4605      	mov	r5, r0
 8007a92:	b908      	cbnz	r0, 8007a98 <HAL_RCC_OscConfig+0xc>
 8007a94:	2001      	movs	r0, #1
 8007a96:	e047      	b.n	8007b28 <HAL_RCC_OscConfig+0x9c>
 8007a98:	4c9f      	ldr	r4, [pc, #636]	; (8007d18 <HAL_RCC_OscConfig+0x28c>)
 8007a9a:	6803      	ldr	r3, [r0, #0]
 8007a9c:	68a6      	ldr	r6, [r4, #8]
 8007a9e:	68e7      	ldr	r7, [r4, #12]
 8007aa0:	06db      	lsls	r3, r3, #27
 8007aa2:	f006 060c 	and.w	r6, r6, #12
 8007aa6:	f007 0703 	and.w	r7, r7, #3
 8007aaa:	d575      	bpl.n	8007b98 <HAL_RCC_OscConfig+0x10c>
 8007aac:	b11e      	cbz	r6, 8007ab6 <HAL_RCC_OscConfig+0x2a>
 8007aae:	2e0c      	cmp	r6, #12
 8007ab0:	d154      	bne.n	8007b5c <HAL_RCC_OscConfig+0xd0>
 8007ab2:	2f01      	cmp	r7, #1
 8007ab4:	d152      	bne.n	8007b5c <HAL_RCC_OscConfig+0xd0>
 8007ab6:	6823      	ldr	r3, [r4, #0]
 8007ab8:	0798      	lsls	r0, r3, #30
 8007aba:	d502      	bpl.n	8007ac2 <HAL_RCC_OscConfig+0x36>
 8007abc:	69ab      	ldr	r3, [r5, #24]
 8007abe:	2b00      	cmp	r3, #0
 8007ac0:	d0e8      	beq.n	8007a94 <HAL_RCC_OscConfig+0x8>
 8007ac2:	6823      	ldr	r3, [r4, #0]
 8007ac4:	6a28      	ldr	r0, [r5, #32]
 8007ac6:	0719      	lsls	r1, r3, #28
 8007ac8:	bf56      	itet	pl
 8007aca:	f8d4 3094 	ldrpl.w	r3, [r4, #148]	; 0x94
 8007ace:	6823      	ldrmi	r3, [r4, #0]
 8007ad0:	091b      	lsrpl	r3, r3, #4
 8007ad2:	f003 03f0 	and.w	r3, r3, #240	; 0xf0
 8007ad6:	4298      	cmp	r0, r3
 8007ad8:	d929      	bls.n	8007b2e <HAL_RCC_OscConfig+0xa2>
 8007ada:	f7ff fedb 	bl	8007894 <RCC_SetFlashLatencyFromMSIRange>
 8007ade:	2800      	cmp	r0, #0
 8007ae0:	d1d8      	bne.n	8007a94 <HAL_RCC_OscConfig+0x8>
 8007ae2:	6823      	ldr	r3, [r4, #0]
 8007ae4:	f043 0308 	orr.w	r3, r3, #8
 8007ae8:	6023      	str	r3, [r4, #0]
 8007aea:	6823      	ldr	r3, [r4, #0]
 8007aec:	6a2a      	ldr	r2, [r5, #32]
 8007aee:	f023 03f0 	bic.w	r3, r3, #240	; 0xf0
 8007af2:	4313      	orrs	r3, r2
 8007af4:	6023      	str	r3, [r4, #0]
 8007af6:	6863      	ldr	r3, [r4, #4]
 8007af8:	69ea      	ldr	r2, [r5, #28]
 8007afa:	f423 437f 	bic.w	r3, r3, #65280	; 0xff00
 8007afe:	ea43 2302 	orr.w	r3, r3, r2, lsl #8
 8007b02:	6063      	str	r3, [r4, #4]
 8007b04:	f7ff ff74 	bl	80079f0 <HAL_RCC_GetSysClockFreq>
 8007b08:	68a3      	ldr	r3, [r4, #8]
 8007b0a:	4a84      	ldr	r2, [pc, #528]	; (8007d1c <HAL_RCC_OscConfig+0x290>)
 8007b0c:	f3c3 1303 	ubfx	r3, r3, #4, #4
 8007b10:	5cd3      	ldrb	r3, [r2, r3]
 8007b12:	f003 031f 	and.w	r3, r3, #31
 8007b16:	40d8      	lsrs	r0, r3
 8007b18:	4b81      	ldr	r3, [pc, #516]	; (8007d20 <HAL_RCC_OscConfig+0x294>)
 8007b1a:	6018      	str	r0, [r3, #0]
 8007b1c:	4b81      	ldr	r3, [pc, #516]	; (8007d24 <HAL_RCC_OscConfig+0x298>)
 8007b1e:	6818      	ldr	r0, [r3, #0]
 8007b20:	f7fe f95a 	bl	8005dd8 <HAL_InitTick>
 8007b24:	2800      	cmp	r0, #0
 8007b26:	d037      	beq.n	8007b98 <HAL_RCC_OscConfig+0x10c>
 8007b28:	b003      	add	sp, #12
 8007b2a:	e8bd 83f0 	ldmia.w	sp!, {r4, r5, r6, r7, r8, r9, pc}
 8007b2e:	6823      	ldr	r3, [r4, #0]
 8007b30:	f043 0308 	orr.w	r3, r3, #8
 8007b34:	6023      	str	r3, [r4, #0]
 8007b36:	6823      	ldr	r3, [r4, #0]
 8007b38:	f023 03f0 	bic.w	r3, r3, #240	; 0xf0
 8007b3c:	4303      	orrs	r3, r0
 8007b3e:	6023      	str	r3, [r4, #0]
 8007b40:	6863      	ldr	r3, [r4, #4]
 8007b42:	69ea      	ldr	r2, [r5, #28]
 8007b44:	f423 437f 	bic.w	r3, r3, #65280	; 0xff00
 8007b48:	ea43 2302 	orr.w	r3, r3, r2, lsl #8
 8007b4c:	6063      	str	r3, [r4, #4]
 8007b4e:	2e00      	cmp	r6, #0
 8007b50:	d1d8      	bne.n	8007b04 <HAL_RCC_OscConfig+0x78>
 8007b52:	f7ff fe9f 	bl	8007894 <RCC_SetFlashLatencyFromMSIRange>
 8007b56:	2800      	cmp	r0, #0
 8007b58:	d0d4      	beq.n	8007b04 <HAL_RCC_OscConfig+0x78>
 8007b5a:	e79b      	b.n	8007a94 <HAL_RCC_OscConfig+0x8>
 8007b5c:	69ab      	ldr	r3, [r5, #24]
 8007b5e:	2b00      	cmp	r3, #0
 8007b60:	d03a      	beq.n	8007bd8 <HAL_RCC_OscConfig+0x14c>
 8007b62:	6823      	ldr	r3, [r4, #0]
 8007b64:	f043 0301 	orr.w	r3, r3, #1
 8007b68:	6023      	str	r3, [r4, #0]
 8007b6a:	f7fe f977 	bl	8005e5c <HAL_GetTick>
 8007b6e:	4680      	mov	r8, r0
 8007b70:	6823      	ldr	r3, [r4, #0]
 8007b72:	079a      	lsls	r2, r3, #30
 8007b74:	d528      	bpl.n	8007bc8 <HAL_RCC_OscConfig+0x13c>
 8007b76:	6823      	ldr	r3, [r4, #0]
 8007b78:	f043 0308 	orr.w	r3, r3, #8
 8007b7c:	6023      	str	r3, [r4, #0]
 8007b7e:	6823      	ldr	r3, [r4, #0]
 8007b80:	6a2a      	ldr	r2, [r5, #32]
 8007b82:	f023 03f0 	bic.w	r3, r3, #240	; 0xf0
 8007b86:	4313      	orrs	r3, r2
 8007b88:	6023      	str	r3, [r4, #0]
 8007b8a:	6863      	ldr	r3, [r4, #4]
 8007b8c:	69ea      	ldr	r2, [r5, #28]
 8007b8e:	f423 437f 	bic.w	r3, r3, #65280	; 0xff00
 8007b92:	ea43 2302 	orr.w	r3, r3, r2, lsl #8
 8007b96:	6063      	str	r3, [r4, #4]
 8007b98:	682b      	ldr	r3, [r5, #0]
 8007b9a:	07d8      	lsls	r0, r3, #31
 8007b9c:	d42d      	bmi.n	8007bfa <HAL_RCC_OscConfig+0x16e>
 8007b9e:	682b      	ldr	r3, [r5, #0]
 8007ba0:	0799      	lsls	r1, r3, #30
 8007ba2:	d46b      	bmi.n	8007c7c <HAL_RCC_OscConfig+0x1f0>
 8007ba4:	682b      	ldr	r3, [r5, #0]
 8007ba6:	0718      	lsls	r0, r3, #28
 8007ba8:	f100 80a0 	bmi.w	8007cec <HAL_RCC_OscConfig+0x260>
 8007bac:	682b      	ldr	r3, [r5, #0]
 8007bae:	0759      	lsls	r1, r3, #29
 8007bb0:	f100 80ce 	bmi.w	8007d50 <HAL_RCC_OscConfig+0x2c4>
 8007bb4:	682b      	ldr	r3, [r5, #0]
 8007bb6:	0698      	lsls	r0, r3, #26
 8007bb8:	f100 8137 	bmi.w	8007e2a <HAL_RCC_OscConfig+0x39e>
 8007bbc:	6aab      	ldr	r3, [r5, #40]	; 0x28
 8007bbe:	2b00      	cmp	r3, #0
 8007bc0:	f040 815d 	bne.w	8007e7e <HAL_RCC_OscConfig+0x3f2>
 8007bc4:	2000      	movs	r0, #0
 8007bc6:	e7af      	b.n	8007b28 <HAL_RCC_OscConfig+0x9c>
 8007bc8:	f7fe f948 	bl	8005e5c <HAL_GetTick>
 8007bcc:	eba0 0008 	sub.w	r0, r0, r8
 8007bd0:	2802      	cmp	r0, #2
 8007bd2:	d9cd      	bls.n	8007b70 <HAL_RCC_OscConfig+0xe4>
 8007bd4:	2003      	movs	r0, #3
 8007bd6:	e7a7      	b.n	8007b28 <HAL_RCC_OscConfig+0x9c>
 8007bd8:	6823      	ldr	r3, [r4, #0]
 8007bda:	f023 0301 	bic.w	r3, r3, #1
 8007bde:	6023      	str	r3, [r4, #0]
 8007be0:	f7fe f93c 	bl	8005e5c <HAL_GetTick>
 8007be4:	4680      	mov	r8, r0
 8007be6:	6823      	ldr	r3, [r4, #0]
 8007be8:	079b      	lsls	r3, r3, #30
 8007bea:	d5d5      	bpl.n	8007b98 <HAL_RCC_OscConfig+0x10c>
 8007bec:	f7fe f936 	bl	8005e5c <HAL_GetTick>
 8007bf0:	eba0 0008 	sub.w	r0, r0, r8
 8007bf4:	2802      	cmp	r0, #2
 8007bf6:	d9f6      	bls.n	8007be6 <HAL_RCC_OscConfig+0x15a>
 8007bf8:	e7ec      	b.n	8007bd4 <HAL_RCC_OscConfig+0x148>
 8007bfa:	2e08      	cmp	r6, #8
 8007bfc:	d003      	beq.n	8007c06 <HAL_RCC_OscConfig+0x17a>
 8007bfe:	2e0c      	cmp	r6, #12
 8007c00:	d108      	bne.n	8007c14 <HAL_RCC_OscConfig+0x188>
 8007c02:	2f03      	cmp	r7, #3
 8007c04:	d106      	bne.n	8007c14 <HAL_RCC_OscConfig+0x188>
 8007c06:	6823      	ldr	r3, [r4, #0]
 8007c08:	039a      	lsls	r2, r3, #14
 8007c0a:	d5c8      	bpl.n	8007b9e <HAL_RCC_OscConfig+0x112>
 8007c0c:	686b      	ldr	r3, [r5, #4]
 8007c0e:	2b00      	cmp	r3, #0
 8007c10:	d1c5      	bne.n	8007b9e <HAL_RCC_OscConfig+0x112>
 8007c12:	e73f      	b.n	8007a94 <HAL_RCC_OscConfig+0x8>
 8007c14:	686b      	ldr	r3, [r5, #4]
 8007c16:	f5b3 3f80 	cmp.w	r3, #65536	; 0x10000
 8007c1a:	d110      	bne.n	8007c3e <HAL_RCC_OscConfig+0x1b2>
 8007c1c:	6823      	ldr	r3, [r4, #0]
 8007c1e:	f443 3380 	orr.w	r3, r3, #65536	; 0x10000
 8007c22:	6023      	str	r3, [r4, #0]
 8007c24:	f7fe f91a 	bl	8005e5c <HAL_GetTick>
 8007c28:	4680      	mov	r8, r0
 8007c2a:	6823      	ldr	r3, [r4, #0]
 8007c2c:	039b      	lsls	r3, r3, #14
 8007c2e:	d4b6      	bmi.n	8007b9e <HAL_RCC_OscConfig+0x112>
 8007c30:	f7fe f914 	bl	8005e5c <HAL_GetTick>
 8007c34:	eba0 0008 	sub.w	r0, r0, r8
 8007c38:	2864      	cmp	r0, #100	; 0x64
 8007c3a:	d9f6      	bls.n	8007c2a <HAL_RCC_OscConfig+0x19e>
 8007c3c:	e7ca      	b.n	8007bd4 <HAL_RCC_OscConfig+0x148>
 8007c3e:	f5b3 2fa0 	cmp.w	r3, #327680	; 0x50000
 8007c42:	d104      	bne.n	8007c4e <HAL_RCC_OscConfig+0x1c2>
 8007c44:	6823      	ldr	r3, [r4, #0]
 8007c46:	f443 2380 	orr.w	r3, r3, #262144	; 0x40000
 8007c4a:	6023      	str	r3, [r4, #0]
 8007c4c:	e7e6      	b.n	8007c1c <HAL_RCC_OscConfig+0x190>
 8007c4e:	6822      	ldr	r2, [r4, #0]
 8007c50:	f422 3280 	bic.w	r2, r2, #65536	; 0x10000
 8007c54:	6022      	str	r2, [r4, #0]
 8007c56:	6822      	ldr	r2, [r4, #0]
 8007c58:	f422 2280 	bic.w	r2, r2, #262144	; 0x40000
 8007c5c:	6022      	str	r2, [r4, #0]
 8007c5e:	2b00      	cmp	r3, #0
 8007c60:	d1e0      	bne.n	8007c24 <HAL_RCC_OscConfig+0x198>
 8007c62:	f7fe f8fb 	bl	8005e5c <HAL_GetTick>
 8007c66:	4680      	mov	r8, r0
 8007c68:	6823      	ldr	r3, [r4, #0]
 8007c6a:	0398      	lsls	r0, r3, #14
 8007c6c:	d597      	bpl.n	8007b9e <HAL_RCC_OscConfig+0x112>
 8007c6e:	f7fe f8f5 	bl	8005e5c <HAL_GetTick>
 8007c72:	eba0 0008 	sub.w	r0, r0, r8
 8007c76:	2864      	cmp	r0, #100	; 0x64
 8007c78:	d9f6      	bls.n	8007c68 <HAL_RCC_OscConfig+0x1dc>
 8007c7a:	e7ab      	b.n	8007bd4 <HAL_RCC_OscConfig+0x148>
 8007c7c:	2e04      	cmp	r6, #4
 8007c7e:	d003      	beq.n	8007c88 <HAL_RCC_OscConfig+0x1fc>
 8007c80:	2e0c      	cmp	r6, #12
 8007c82:	d110      	bne.n	8007ca6 <HAL_RCC_OscConfig+0x21a>
 8007c84:	2f02      	cmp	r7, #2
 8007c86:	d10e      	bne.n	8007ca6 <HAL_RCC_OscConfig+0x21a>
 8007c88:	6823      	ldr	r3, [r4, #0]
 8007c8a:	0559      	lsls	r1, r3, #21
 8007c8c:	d503      	bpl.n	8007c96 <HAL_RCC_OscConfig+0x20a>
 8007c8e:	68eb      	ldr	r3, [r5, #12]
 8007c90:	2b00      	cmp	r3, #0
 8007c92:	f43f aeff 	beq.w	8007a94 <HAL_RCC_OscConfig+0x8>
 8007c96:	6863      	ldr	r3, [r4, #4]
 8007c98:	692a      	ldr	r2, [r5, #16]
 8007c9a:	f023 53f8 	bic.w	r3, r3, #520093696	; 0x1f000000
 8007c9e:	ea43 6302 	orr.w	r3, r3, r2, lsl #24
 8007ca2:	6063      	str	r3, [r4, #4]
 8007ca4:	e77e      	b.n	8007ba4 <HAL_RCC_OscConfig+0x118>
 8007ca6:	68eb      	ldr	r3, [r5, #12]
 8007ca8:	b17b      	cbz	r3, 8007cca <HAL_RCC_OscConfig+0x23e>
 8007caa:	6823      	ldr	r3, [r4, #0]
 8007cac:	f443 7380 	orr.w	r3, r3, #256	; 0x100
 8007cb0:	6023      	str	r3, [r4, #0]
 8007cb2:	f7fe f8d3 	bl	8005e5c <HAL_GetTick>
 8007cb6:	4607      	mov	r7, r0
 8007cb8:	6823      	ldr	r3, [r4, #0]
 8007cba:	055a      	lsls	r2, r3, #21
 8007cbc:	d4eb      	bmi.n	8007c96 <HAL_RCC_OscConfig+0x20a>
 8007cbe:	f7fe f8cd 	bl	8005e5c <HAL_GetTick>
 8007cc2:	1bc0      	subs	r0, r0, r7
 8007cc4:	2802      	cmp	r0, #2
 8007cc6:	d9f7      	bls.n	8007cb8 <HAL_RCC_OscConfig+0x22c>
 8007cc8:	e784      	b.n	8007bd4 <HAL_RCC_OscConfig+0x148>
 8007cca:	6823      	ldr	r3, [r4, #0]
 8007ccc:	f423 7380 	bic.w	r3, r3, #256	; 0x100
 8007cd0:	6023      	str	r3, [r4, #0]
 8007cd2:	f7fe f8c3 	bl	8005e5c <HAL_GetTick>
 8007cd6:	4607      	mov	r7, r0
 8007cd8:	6823      	ldr	r3, [r4, #0]
 8007cda:	055b      	lsls	r3, r3, #21
 8007cdc:	f57f af62 	bpl.w	8007ba4 <HAL_RCC_OscConfig+0x118>
 8007ce0:	f7fe f8bc 	bl	8005e5c <HAL_GetTick>
 8007ce4:	1bc0      	subs	r0, r0, r7
 8007ce6:	2802      	cmp	r0, #2
 8007ce8:	d9f6      	bls.n	8007cd8 <HAL_RCC_OscConfig+0x24c>
 8007cea:	e773      	b.n	8007bd4 <HAL_RCC_OscConfig+0x148>
 8007cec:	696b      	ldr	r3, [r5, #20]
 8007cee:	b1db      	cbz	r3, 8007d28 <HAL_RCC_OscConfig+0x29c>
 8007cf0:	f8d4 3094 	ldr.w	r3, [r4, #148]	; 0x94
 8007cf4:	f043 0301 	orr.w	r3, r3, #1
 8007cf8:	f8c4 3094 	str.w	r3, [r4, #148]	; 0x94
 8007cfc:	f7fe f8ae 	bl	8005e5c <HAL_GetTick>
 8007d00:	4607      	mov	r7, r0
 8007d02:	f8d4 3094 	ldr.w	r3, [r4, #148]	; 0x94
 8007d06:	079a      	lsls	r2, r3, #30
 8007d08:	f53f af50 	bmi.w	8007bac <HAL_RCC_OscConfig+0x120>
 8007d0c:	f7fe f8a6 	bl	8005e5c <HAL_GetTick>
 8007d10:	1bc0      	subs	r0, r0, r7
 8007d12:	2802      	cmp	r0, #2
 8007d14:	d9f5      	bls.n	8007d02 <HAL_RCC_OscConfig+0x276>
 8007d16:	e75d      	b.n	8007bd4 <HAL_RCC_OscConfig+0x148>
 8007d18:	40021000 	.word	0x40021000
 8007d1c:	0800fd34 	.word	0x0800fd34
 8007d20:	2000064c 	.word	0x2000064c
 8007d24:	20000654 	.word	0x20000654
 8007d28:	f8d4 3094 	ldr.w	r3, [r4, #148]	; 0x94
 8007d2c:	f023 0301 	bic.w	r3, r3, #1
 8007d30:	f8c4 3094 	str.w	r3, [r4, #148]	; 0x94
 8007d34:	f7fe f892 	bl	8005e5c <HAL_GetTick>
 8007d38:	4607      	mov	r7, r0
 8007d3a:	f8d4 3094 	ldr.w	r3, [r4, #148]	; 0x94
 8007d3e:	079b      	lsls	r3, r3, #30
 8007d40:	f57f af34 	bpl.w	8007bac <HAL_RCC_OscConfig+0x120>
 8007d44:	f7fe f88a 	bl	8005e5c <HAL_GetTick>
 8007d48:	1bc0      	subs	r0, r0, r7
 8007d4a:	2802      	cmp	r0, #2
 8007d4c:	d9f5      	bls.n	8007d3a <HAL_RCC_OscConfig+0x2ae>
 8007d4e:	e741      	b.n	8007bd4 <HAL_RCC_OscConfig+0x148>
 8007d50:	6da3      	ldr	r3, [r4, #88]	; 0x58
 8007d52:	00df      	lsls	r7, r3, #3
 8007d54:	d429      	bmi.n	8007daa <HAL_RCC_OscConfig+0x31e>
 8007d56:	6da3      	ldr	r3, [r4, #88]	; 0x58
 8007d58:	f043 5380 	orr.w	r3, r3, #268435456	; 0x10000000
 8007d5c:	65a3      	str	r3, [r4, #88]	; 0x58
 8007d5e:	6da3      	ldr	r3, [r4, #88]	; 0x58
 8007d60:	f003 5380 	and.w	r3, r3, #268435456	; 0x10000000
 8007d64:	9301      	str	r3, [sp, #4]
 8007d66:	9b01      	ldr	r3, [sp, #4]
 8007d68:	f04f 0801 	mov.w	r8, #1
 8007d6c:	4f9a      	ldr	r7, [pc, #616]	; (8007fd8 <HAL_RCC_OscConfig+0x54c>)
 8007d6e:	683b      	ldr	r3, [r7, #0]
 8007d70:	05d8      	lsls	r0, r3, #23
 8007d72:	d51d      	bpl.n	8007db0 <HAL_RCC_OscConfig+0x324>
 8007d74:	68ab      	ldr	r3, [r5, #8]
 8007d76:	2b01      	cmp	r3, #1
 8007d78:	d12b      	bne.n	8007dd2 <HAL_RCC_OscConfig+0x346>
 8007d7a:	f8d4 3090 	ldr.w	r3, [r4, #144]	; 0x90
 8007d7e:	f043 0301 	orr.w	r3, r3, #1
 8007d82:	f8c4 3090 	str.w	r3, [r4, #144]	; 0x90
 8007d86:	f7fe f869 	bl	8005e5c <HAL_GetTick>
 8007d8a:	f241 3988 	movw	r9, #5000	; 0x1388
 8007d8e:	4607      	mov	r7, r0
 8007d90:	f8d4 3090 	ldr.w	r3, [r4, #144]	; 0x90
 8007d94:	079a      	lsls	r2, r3, #30
 8007d96:	d542      	bpl.n	8007e1e <HAL_RCC_OscConfig+0x392>
 8007d98:	f1b8 0f00 	cmp.w	r8, #0
 8007d9c:	f43f af0a 	beq.w	8007bb4 <HAL_RCC_OscConfig+0x128>
 8007da0:	6da3      	ldr	r3, [r4, #88]	; 0x58
 8007da2:	f023 5380 	bic.w	r3, r3, #268435456	; 0x10000000
 8007da6:	65a3      	str	r3, [r4, #88]	; 0x58
 8007da8:	e704      	b.n	8007bb4 <HAL_RCC_OscConfig+0x128>
 8007daa:	f04f 0800 	mov.w	r8, #0
 8007dae:	e7dd      	b.n	8007d6c <HAL_RCC_OscConfig+0x2e0>
 8007db0:	683b      	ldr	r3, [r7, #0]
 8007db2:	f443 7380 	orr.w	r3, r3, #256	; 0x100
 8007db6:	603b      	str	r3, [r7, #0]
 8007db8:	f7fe f850 	bl	8005e5c <HAL_GetTick>
 8007dbc:	4681      	mov	r9, r0
 8007dbe:	683b      	ldr	r3, [r7, #0]
 8007dc0:	05d9      	lsls	r1, r3, #23
 8007dc2:	d4d7      	bmi.n	8007d74 <HAL_RCC_OscConfig+0x2e8>
 8007dc4:	f7fe f84a 	bl	8005e5c <HAL_GetTick>
 8007dc8:	eba0 0009 	sub.w	r0, r0, r9
 8007dcc:	2802      	cmp	r0, #2
 8007dce:	d9f6      	bls.n	8007dbe <HAL_RCC_OscConfig+0x332>
 8007dd0:	e700      	b.n	8007bd4 <HAL_RCC_OscConfig+0x148>
 8007dd2:	2b05      	cmp	r3, #5
 8007dd4:	d106      	bne.n	8007de4 <HAL_RCC_OscConfig+0x358>
 8007dd6:	f8d4 3090 	ldr.w	r3, [r4, #144]	; 0x90
 8007dda:	f043 0304 	orr.w	r3, r3, #4
 8007dde:	f8c4 3090 	str.w	r3, [r4, #144]	; 0x90
 8007de2:	e7ca      	b.n	8007d7a <HAL_RCC_OscConfig+0x2ee>
 8007de4:	f8d4 2090 	ldr.w	r2, [r4, #144]	; 0x90
 8007de8:	f022 0201 	bic.w	r2, r2, #1
 8007dec:	f8c4 2090 	str.w	r2, [r4, #144]	; 0x90
 8007df0:	f8d4 2090 	ldr.w	r2, [r4, #144]	; 0x90
 8007df4:	f022 0204 	bic.w	r2, r2, #4
 8007df8:	f8c4 2090 	str.w	r2, [r4, #144]	; 0x90
 8007dfc:	2b00      	cmp	r3, #0
 8007dfe:	d1c2      	bne.n	8007d86 <HAL_RCC_OscConfig+0x2fa>
 8007e00:	f7fe f82c 	bl	8005e5c <HAL_GetTick>
 8007e04:	f241 3988 	movw	r9, #5000	; 0x1388
 8007e08:	4607      	mov	r7, r0
 8007e0a:	f8d4 3090 	ldr.w	r3, [r4, #144]	; 0x90
 8007e0e:	079b      	lsls	r3, r3, #30
 8007e10:	d5c2      	bpl.n	8007d98 <HAL_RCC_OscConfig+0x30c>
 8007e12:	f7fe f823 	bl	8005e5c <HAL_GetTick>
 8007e16:	1bc0      	subs	r0, r0, r7
 8007e18:	4548      	cmp	r0, r9
 8007e1a:	d9f6      	bls.n	8007e0a <HAL_RCC_OscConfig+0x37e>
 8007e1c:	e6da      	b.n	8007bd4 <HAL_RCC_OscConfig+0x148>
 8007e1e:	f7fe f81d 	bl	8005e5c <HAL_GetTick>
 8007e22:	1bc0      	subs	r0, r0, r7
 8007e24:	4548      	cmp	r0, r9
 8007e26:	d9b3      	bls.n	8007d90 <HAL_RCC_OscConfig+0x304>
 8007e28:	e6d4      	b.n	8007bd4 <HAL_RCC_OscConfig+0x148>
 8007e2a:	6a6b      	ldr	r3, [r5, #36]	; 0x24
 8007e2c:	b19b      	cbz	r3, 8007e56 <HAL_RCC_OscConfig+0x3ca>
 8007e2e:	f8d4 3098 	ldr.w	r3, [r4, #152]	; 0x98
 8007e32:	f043 0301 	orr.w	r3, r3, #1
 8007e36:	f8c4 3098 	str.w	r3, [r4, #152]	; 0x98
 8007e3a:	f7fe f80f 	bl	8005e5c <HAL_GetTick>
 8007e3e:	4607      	mov	r7, r0
 8007e40:	f8d4 3098 	ldr.w	r3, [r4, #152]	; 0x98
 8007e44:	0799      	lsls	r1, r3, #30
 8007e46:	f53f aeb9 	bmi.w	8007bbc <HAL_RCC_OscConfig+0x130>
 8007e4a:	f7fe f807 	bl	8005e5c <HAL_GetTick>
 8007e4e:	1bc0      	subs	r0, r0, r7
 8007e50:	2802      	cmp	r0, #2
 8007e52:	d9f5      	bls.n	8007e40 <HAL_RCC_OscConfig+0x3b4>
 8007e54:	e6be      	b.n	8007bd4 <HAL_RCC_OscConfig+0x148>
 8007e56:	f8d4 3098 	ldr.w	r3, [r4, #152]	; 0x98
 8007e5a:	f023 0301 	bic.w	r3, r3, #1
 8007e5e:	f8c4 3098 	str.w	r3, [r4, #152]	; 0x98
 8007e62:	f7fd fffb 	bl	8005e5c <HAL_GetTick>
 8007e66:	4607      	mov	r7, r0
 8007e68:	f8d4 3098 	ldr.w	r3, [r4, #152]	; 0x98
 8007e6c:	079a      	lsls	r2, r3, #30
 8007e6e:	f57f aea5 	bpl.w	8007bbc <HAL_RCC_OscConfig+0x130>
 8007e72:	f7fd fff3 	bl	8005e5c <HAL_GetTick>
 8007e76:	1bc0      	subs	r0, r0, r7
 8007e78:	2802      	cmp	r0, #2
 8007e7a:	d9f5      	bls.n	8007e68 <HAL_RCC_OscConfig+0x3dc>
 8007e7c:	e6aa      	b.n	8007bd4 <HAL_RCC_OscConfig+0x148>
 8007e7e:	2b02      	cmp	r3, #2
 8007e80:	f040 8088 	bne.w	8007f94 <HAL_RCC_OscConfig+0x508>
 8007e84:	68e3      	ldr	r3, [r4, #12]
 8007e86:	6aea      	ldr	r2, [r5, #44]	; 0x2c
 8007e88:	f003 0103 	and.w	r1, r3, #3
 8007e8c:	4291      	cmp	r1, r2
 8007e8e:	d122      	bne.n	8007ed6 <HAL_RCC_OscConfig+0x44a>
 8007e90:	6b29      	ldr	r1, [r5, #48]	; 0x30
 8007e92:	f003 0270 	and.w	r2, r3, #112	; 0x70
 8007e96:	3901      	subs	r1, #1
 8007e98:	ebb2 1f01 	cmp.w	r2, r1, lsl #4
 8007e9c:	d11b      	bne.n	8007ed6 <HAL_RCC_OscConfig+0x44a>
 8007e9e:	6b69      	ldr	r1, [r5, #52]	; 0x34
 8007ea0:	f403 42fe 	and.w	r2, r3, #32512	; 0x7f00
 8007ea4:	ebb2 2f01 	cmp.w	r2, r1, lsl #8
 8007ea8:	d115      	bne.n	8007ed6 <HAL_RCC_OscConfig+0x44a>
 8007eaa:	6ba9      	ldr	r1, [r5, #56]	; 0x38
 8007eac:	f003 4278 	and.w	r2, r3, #4160749568	; 0xf8000000
 8007eb0:	ebb2 6fc1 	cmp.w	r2, r1, lsl #27
 8007eb4:	d10f      	bne.n	8007ed6 <HAL_RCC_OscConfig+0x44a>
 8007eb6:	6bea      	ldr	r2, [r5, #60]	; 0x3c
 8007eb8:	0852      	lsrs	r2, r2, #1
 8007eba:	f403 01c0 	and.w	r1, r3, #6291456	; 0x600000
 8007ebe:	3a01      	subs	r2, #1
 8007ec0:	ebb1 5f42 	cmp.w	r1, r2, lsl #21
 8007ec4:	d107      	bne.n	8007ed6 <HAL_RCC_OscConfig+0x44a>
 8007ec6:	6c2a      	ldr	r2, [r5, #64]	; 0x40
 8007ec8:	0852      	lsrs	r2, r2, #1
 8007eca:	f003 63c0 	and.w	r3, r3, #100663296	; 0x6000000
 8007ece:	3a01      	subs	r2, #1
 8007ed0:	ebb3 6f42 	cmp.w	r3, r2, lsl #25
 8007ed4:	d045      	beq.n	8007f62 <HAL_RCC_OscConfig+0x4d6>
 8007ed6:	2e0c      	cmp	r6, #12
 8007ed8:	f43f addc 	beq.w	8007a94 <HAL_RCC_OscConfig+0x8>
 8007edc:	6823      	ldr	r3, [r4, #0]
 8007ede:	015b      	lsls	r3, r3, #5
 8007ee0:	f53f add8 	bmi.w	8007a94 <HAL_RCC_OscConfig+0x8>
 8007ee4:	6823      	ldr	r3, [r4, #0]
 8007ee6:	f023 7380 	bic.w	r3, r3, #16777216	; 0x1000000
 8007eea:	6023      	str	r3, [r4, #0]
 8007eec:	f7fd ffb6 	bl	8005e5c <HAL_GetTick>
 8007ef0:	4606      	mov	r6, r0
 8007ef2:	6823      	ldr	r3, [r4, #0]
 8007ef4:	019f      	lsls	r7, r3, #6
 8007ef6:	d42e      	bmi.n	8007f56 <HAL_RCC_OscConfig+0x4ca>
 8007ef8:	68e2      	ldr	r2, [r4, #12]
 8007efa:	4b38      	ldr	r3, [pc, #224]	; (8007fdc <HAL_RCC_OscConfig+0x550>)
 8007efc:	4013      	ands	r3, r2
 8007efe:	6aea      	ldr	r2, [r5, #44]	; 0x2c
 8007f00:	4313      	orrs	r3, r2
 8007f02:	6b6a      	ldr	r2, [r5, #52]	; 0x34
 8007f04:	ea43 2302 	orr.w	r3, r3, r2, lsl #8
 8007f08:	6baa      	ldr	r2, [r5, #56]	; 0x38
 8007f0a:	ea43 63c2 	orr.w	r3, r3, r2, lsl #27
 8007f0e:	6b2a      	ldr	r2, [r5, #48]	; 0x30
 8007f10:	3a01      	subs	r2, #1
 8007f12:	ea43 1302 	orr.w	r3, r3, r2, lsl #4
 8007f16:	6bea      	ldr	r2, [r5, #60]	; 0x3c
 8007f18:	0852      	lsrs	r2, r2, #1
 8007f1a:	3a01      	subs	r2, #1
 8007f1c:	ea43 5342 	orr.w	r3, r3, r2, lsl #21
 8007f20:	6c2a      	ldr	r2, [r5, #64]	; 0x40
 8007f22:	0852      	lsrs	r2, r2, #1
 8007f24:	3a01      	subs	r2, #1
 8007f26:	ea43 6342 	orr.w	r3, r3, r2, lsl #25
 8007f2a:	60e3      	str	r3, [r4, #12]
 8007f2c:	6823      	ldr	r3, [r4, #0]
 8007f2e:	f043 7380 	orr.w	r3, r3, #16777216	; 0x1000000
 8007f32:	6023      	str	r3, [r4, #0]
 8007f34:	68e3      	ldr	r3, [r4, #12]
 8007f36:	f043 7380 	orr.w	r3, r3, #16777216	; 0x1000000
 8007f3a:	60e3      	str	r3, [r4, #12]
 8007f3c:	f7fd ff8e 	bl	8005e5c <HAL_GetTick>
 8007f40:	4605      	mov	r5, r0
 8007f42:	6823      	ldr	r3, [r4, #0]
 8007f44:	019e      	lsls	r6, r3, #6
 8007f46:	f53f ae3d 	bmi.w	8007bc4 <HAL_RCC_OscConfig+0x138>
 8007f4a:	f7fd ff87 	bl	8005e5c <HAL_GetTick>
 8007f4e:	1b40      	subs	r0, r0, r5
 8007f50:	2802      	cmp	r0, #2
 8007f52:	d9f6      	bls.n	8007f42 <HAL_RCC_OscConfig+0x4b6>
 8007f54:	e63e      	b.n	8007bd4 <HAL_RCC_OscConfig+0x148>
 8007f56:	f7fd ff81 	bl	8005e5c <HAL_GetTick>
 8007f5a:	1b80      	subs	r0, r0, r6
 8007f5c:	2802      	cmp	r0, #2
 8007f5e:	d9c8      	bls.n	8007ef2 <HAL_RCC_OscConfig+0x466>
 8007f60:	e638      	b.n	8007bd4 <HAL_RCC_OscConfig+0x148>
 8007f62:	6823      	ldr	r3, [r4, #0]
 8007f64:	0198      	lsls	r0, r3, #6
 8007f66:	f53f ae2d 	bmi.w	8007bc4 <HAL_RCC_OscConfig+0x138>
 8007f6a:	6823      	ldr	r3, [r4, #0]
 8007f6c:	f043 7380 	orr.w	r3, r3, #16777216	; 0x1000000
 8007f70:	6023      	str	r3, [r4, #0]
 8007f72:	68e3      	ldr	r3, [r4, #12]
 8007f74:	f043 7380 	orr.w	r3, r3, #16777216	; 0x1000000
 8007f78:	60e3      	str	r3, [r4, #12]
 8007f7a:	f7fd ff6f 	bl	8005e5c <HAL_GetTick>
 8007f7e:	4605      	mov	r5, r0
 8007f80:	6823      	ldr	r3, [r4, #0]
 8007f82:	0199      	lsls	r1, r3, #6
 8007f84:	f53f ae1e 	bmi.w	8007bc4 <HAL_RCC_OscConfig+0x138>
 8007f88:	f7fd ff68 	bl	8005e5c <HAL_GetTick>
 8007f8c:	1b40      	subs	r0, r0, r5
 8007f8e:	2802      	cmp	r0, #2
 8007f90:	d9f6      	bls.n	8007f80 <HAL_RCC_OscConfig+0x4f4>
 8007f92:	e61f      	b.n	8007bd4 <HAL_RCC_OscConfig+0x148>
 8007f94:	2e0c      	cmp	r6, #12
 8007f96:	f43f ad7d 	beq.w	8007a94 <HAL_RCC_OscConfig+0x8>
 8007f9a:	6823      	ldr	r3, [r4, #0]
 8007f9c:	f023 7380 	bic.w	r3, r3, #16777216	; 0x1000000
 8007fa0:	6023      	str	r3, [r4, #0]
 8007fa2:	6823      	ldr	r3, [r4, #0]
 8007fa4:	011a      	lsls	r2, r3, #4
 8007fa6:	bf5e      	ittt	pl
 8007fa8:	68e3      	ldrpl	r3, [r4, #12]
 8007faa:	f023 0303 	bicpl.w	r3, r3, #3
 8007fae:	60e3      	strpl	r3, [r4, #12]
 8007fb0:	68e3      	ldr	r3, [r4, #12]
 8007fb2:	f023 7388 	bic.w	r3, r3, #17825792	; 0x1100000
 8007fb6:	f423 3380 	bic.w	r3, r3, #65536	; 0x10000
 8007fba:	60e3      	str	r3, [r4, #12]
 8007fbc:	f7fd ff4e 	bl	8005e5c <HAL_GetTick>
 8007fc0:	4605      	mov	r5, r0
 8007fc2:	6823      	ldr	r3, [r4, #0]
 8007fc4:	019b      	lsls	r3, r3, #6
 8007fc6:	f57f adfd 	bpl.w	8007bc4 <HAL_RCC_OscConfig+0x138>
 8007fca:	f7fd ff47 	bl	8005e5c <HAL_GetTick>
 8007fce:	1b40      	subs	r0, r0, r5
 8007fd0:	2802      	cmp	r0, #2
 8007fd2:	d9f6      	bls.n	8007fc2 <HAL_RCC_OscConfig+0x536>
 8007fd4:	e5fe      	b.n	8007bd4 <HAL_RCC_OscConfig+0x148>
 8007fd6:	bf00      	nop
 8007fd8:	40007000 	.word	0x40007000
 8007fdc:	019d808c 	.word	0x019d808c

08007fe0 <HAL_RCC_ClockConfig>:
 8007fe0:	e92d 41f0 	stmdb	sp!, {r4, r5, r6, r7, r8, lr}
 8007fe4:	460d      	mov	r5, r1
 8007fe6:	4604      	mov	r4, r0
 8007fe8:	b910      	cbnz	r0, 8007ff0 <HAL_RCC_ClockConfig+0x10>
 8007fea:	2001      	movs	r0, #1
 8007fec:	e8bd 81f0 	ldmia.w	sp!, {r4, r5, r6, r7, r8, pc}
 8007ff0:	4a40      	ldr	r2, [pc, #256]	; (80080f4 <HAL_RCC_ClockConfig+0x114>)
 8007ff2:	6813      	ldr	r3, [r2, #0]
 8007ff4:	f003 0307 	and.w	r3, r3, #7
 8007ff8:	428b      	cmp	r3, r1
 8007ffa:	d32a      	bcc.n	8008052 <HAL_RCC_ClockConfig+0x72>
 8007ffc:	6823      	ldr	r3, [r4, #0]
 8007ffe:	07d9      	lsls	r1, r3, #31
 8008000:	d432      	bmi.n	8008068 <HAL_RCC_ClockConfig+0x88>
 8008002:	6821      	ldr	r1, [r4, #0]
 8008004:	078a      	lsls	r2, r1, #30
 8008006:	d45b      	bmi.n	80080c0 <HAL_RCC_ClockConfig+0xe0>
 8008008:	4a3a      	ldr	r2, [pc, #232]	; (80080f4 <HAL_RCC_ClockConfig+0x114>)
 800800a:	6813      	ldr	r3, [r2, #0]
 800800c:	f003 0307 	and.w	r3, r3, #7
 8008010:	42ab      	cmp	r3, r5
 8008012:	d85d      	bhi.n	80080d0 <HAL_RCC_ClockConfig+0xf0>
 8008014:	f011 0f04 	tst.w	r1, #4
 8008018:	4d37      	ldr	r5, [pc, #220]	; (80080f8 <HAL_RCC_ClockConfig+0x118>)
 800801a:	d164      	bne.n	80080e6 <HAL_RCC_ClockConfig+0x106>
 800801c:	070b      	lsls	r3, r1, #28
 800801e:	d506      	bpl.n	800802e <HAL_RCC_ClockConfig+0x4e>
 8008020:	68ab      	ldr	r3, [r5, #8]
 8008022:	6922      	ldr	r2, [r4, #16]
 8008024:	f423 5360 	bic.w	r3, r3, #14336	; 0x3800
 8008028:	ea43 03c2 	orr.w	r3, r3, r2, lsl #3
 800802c:	60ab      	str	r3, [r5, #8]
 800802e:	f7ff fcdf 	bl	80079f0 <HAL_RCC_GetSysClockFreq>
 8008032:	68ab      	ldr	r3, [r5, #8]
 8008034:	4a31      	ldr	r2, [pc, #196]	; (80080fc <HAL_RCC_ClockConfig+0x11c>)
 8008036:	f3c3 1303 	ubfx	r3, r3, #4, #4
 800803a:	e8bd 41f0 	ldmia.w	sp!, {r4, r5, r6, r7, r8, lr}
 800803e:	5cd3      	ldrb	r3, [r2, r3]
 8008040:	f003 031f 	and.w	r3, r3, #31
 8008044:	40d8      	lsrs	r0, r3
 8008046:	4b2e      	ldr	r3, [pc, #184]	; (8008100 <HAL_RCC_ClockConfig+0x120>)
 8008048:	6018      	str	r0, [r3, #0]
 800804a:	4b2e      	ldr	r3, [pc, #184]	; (8008104 <HAL_RCC_ClockConfig+0x124>)
 800804c:	6818      	ldr	r0, [r3, #0]
 800804e:	f7fd bec3 	b.w	8005dd8 <HAL_InitTick>
 8008052:	6813      	ldr	r3, [r2, #0]
 8008054:	f023 0307 	bic.w	r3, r3, #7
 8008058:	430b      	orrs	r3, r1
 800805a:	6013      	str	r3, [r2, #0]
 800805c:	6813      	ldr	r3, [r2, #0]
 800805e:	f003 0307 	and.w	r3, r3, #7
 8008062:	428b      	cmp	r3, r1
 8008064:	d1c1      	bne.n	8007fea <HAL_RCC_ClockConfig+0xa>
 8008066:	e7c9      	b.n	8007ffc <HAL_RCC_ClockConfig+0x1c>
 8008068:	6862      	ldr	r2, [r4, #4]
 800806a:	4e23      	ldr	r6, [pc, #140]	; (80080f8 <HAL_RCC_ClockConfig+0x118>)
 800806c:	2a03      	cmp	r2, #3
 800806e:	6833      	ldr	r3, [r6, #0]
 8008070:	d11a      	bne.n	80080a8 <HAL_RCC_ClockConfig+0xc8>
 8008072:	f013 7f00 	tst.w	r3, #33554432	; 0x2000000
 8008076:	d0b8      	beq.n	8007fea <HAL_RCC_ClockConfig+0xa>
 8008078:	68b3      	ldr	r3, [r6, #8]
 800807a:	f023 0303 	bic.w	r3, r3, #3
 800807e:	4313      	orrs	r3, r2
 8008080:	60b3      	str	r3, [r6, #8]
 8008082:	f7fd feeb 	bl	8005e5c <HAL_GetTick>
 8008086:	f241 3888 	movw	r8, #5000	; 0x1388
 800808a:	4607      	mov	r7, r0
 800808c:	68b3      	ldr	r3, [r6, #8]
 800808e:	6862      	ldr	r2, [r4, #4]
 8008090:	f003 030c 	and.w	r3, r3, #12
 8008094:	ebb3 0f82 	cmp.w	r3, r2, lsl #2
 8008098:	d0b3      	beq.n	8008002 <HAL_RCC_ClockConfig+0x22>
 800809a:	f7fd fedf 	bl	8005e5c <HAL_GetTick>
 800809e:	1bc0      	subs	r0, r0, r7
 80080a0:	4540      	cmp	r0, r8
 80080a2:	d9f3      	bls.n	800808c <HAL_RCC_ClockConfig+0xac>
 80080a4:	2003      	movs	r0, #3
 80080a6:	e7a1      	b.n	8007fec <HAL_RCC_ClockConfig+0xc>
 80080a8:	2a02      	cmp	r2, #2
 80080aa:	d102      	bne.n	80080b2 <HAL_RCC_ClockConfig+0xd2>
 80080ac:	f413 3f00 	tst.w	r3, #131072	; 0x20000
 80080b0:	e7e1      	b.n	8008076 <HAL_RCC_ClockConfig+0x96>
 80080b2:	b912      	cbnz	r2, 80080ba <HAL_RCC_ClockConfig+0xda>
 80080b4:	f013 0f02 	tst.w	r3, #2
 80080b8:	e7dd      	b.n	8008076 <HAL_RCC_ClockConfig+0x96>
 80080ba:	f413 6f80 	tst.w	r3, #1024	; 0x400
 80080be:	e7da      	b.n	8008076 <HAL_RCC_ClockConfig+0x96>
 80080c0:	4a0d      	ldr	r2, [pc, #52]	; (80080f8 <HAL_RCC_ClockConfig+0x118>)
 80080c2:	68a0      	ldr	r0, [r4, #8]
 80080c4:	6893      	ldr	r3, [r2, #8]
 80080c6:	f023 03f0 	bic.w	r3, r3, #240	; 0xf0
 80080ca:	4303      	orrs	r3, r0
 80080cc:	6093      	str	r3, [r2, #8]
 80080ce:	e79b      	b.n	8008008 <HAL_RCC_ClockConfig+0x28>
 80080d0:	6813      	ldr	r3, [r2, #0]
 80080d2:	f023 0307 	bic.w	r3, r3, #7
 80080d6:	432b      	orrs	r3, r5
 80080d8:	6013      	str	r3, [r2, #0]
 80080da:	6813      	ldr	r3, [r2, #0]
 80080dc:	f003 0307 	and.w	r3, r3, #7
 80080e0:	42ab      	cmp	r3, r5
 80080e2:	d182      	bne.n	8007fea <HAL_RCC_ClockConfig+0xa>
 80080e4:	e796      	b.n	8008014 <HAL_RCC_ClockConfig+0x34>
 80080e6:	68ab      	ldr	r3, [r5, #8]
 80080e8:	68e2      	ldr	r2, [r4, #12]
 80080ea:	f423 63e0 	bic.w	r3, r3, #1792	; 0x700
 80080ee:	4313      	orrs	r3, r2
 80080f0:	60ab      	str	r3, [r5, #8]
 80080f2:	e793      	b.n	800801c <HAL_RCC_ClockConfig+0x3c>
 80080f4:	40022000 	.word	0x40022000
 80080f8:	40021000 	.word	0x40021000
 80080fc:	0800fd34 	.word	0x0800fd34
 8008100:	2000064c 	.word	0x2000064c
 8008104:	20000654 	.word	0x20000654

08008108 <HAL_RCC_GetPCLK1Freq>:
 8008108:	4b05      	ldr	r3, [pc, #20]	; (8008120 <HAL_RCC_GetPCLK1Freq+0x18>)
 800810a:	4a06      	ldr	r2, [pc, #24]	; (8008124 <HAL_RCC_GetPCLK1Freq+0x1c>)
 800810c:	689b      	ldr	r3, [r3, #8]
 800810e:	f3c3 2302 	ubfx	r3, r3, #8, #3
 8008112:	5cd3      	ldrb	r3, [r2, r3]
 8008114:	4a04      	ldr	r2, [pc, #16]	; (8008128 <HAL_RCC_GetPCLK1Freq+0x20>)
 8008116:	6810      	ldr	r0, [r2, #0]
 8008118:	f003 031f 	and.w	r3, r3, #31
 800811c:	40d8      	lsrs	r0, r3
 800811e:	4770      	bx	lr
 8008120:	40021000 	.word	0x40021000
 8008124:	0800fd44 	.word	0x0800fd44
 8008128:	2000064c 	.word	0x2000064c

0800812c <HAL_RCC_GetPCLK2Freq>:
 800812c:	4b05      	ldr	r3, [pc, #20]	; (8008144 <HAL_RCC_GetPCLK2Freq+0x18>)
 800812e:	4a06      	ldr	r2, [pc, #24]	; (8008148 <HAL_RCC_GetPCLK2Freq+0x1c>)
 8008130:	689b      	ldr	r3, [r3, #8]
 8008132:	f3c3 23c2 	ubfx	r3, r3, #11, #3
 8008136:	5cd3      	ldrb	r3, [r2, r3]
 8008138:	4a04      	ldr	r2, [pc, #16]	; (800814c <HAL_RCC_GetPCLK2Freq+0x20>)
 800813a:	6810      	ldr	r0, [r2, #0]
 800813c:	f003 031f 	and.w	r3, r3, #31
 8008140:	40d8      	lsrs	r0, r3
 8008142:	4770      	bx	lr
 8008144:	40021000 	.word	0x40021000
 8008148:	0800fd44 	.word	0x0800fd44
 800814c:	2000064c 	.word	0x2000064c

08008150 <RCCEx_PLLSAI1_Config>:
 8008150:	4a43      	ldr	r2, [pc, #268]	; (8008260 <RCCEx_PLLSAI1_Config+0x110>)
 8008152:	b5f8      	push	{r3, r4, r5, r6, r7, lr}
 8008154:	460e      	mov	r6, r1
 8008156:	68d1      	ldr	r1, [r2, #12]
 8008158:	6803      	ldr	r3, [r0, #0]
 800815a:	f011 0f03 	tst.w	r1, #3
 800815e:	4605      	mov	r5, r0
 8008160:	4614      	mov	r4, r2
 8008162:	d028      	beq.n	80081b6 <RCCEx_PLLSAI1_Config+0x66>
 8008164:	68d1      	ldr	r1, [r2, #12]
 8008166:	f001 0103 	and.w	r1, r1, #3
 800816a:	4299      	cmp	r1, r3
 800816c:	d176      	bne.n	800825c <RCCEx_PLLSAI1_Config+0x10c>
 800816e:	2900      	cmp	r1, #0
 8008170:	d074      	beq.n	800825c <RCCEx_PLLSAI1_Config+0x10c>
 8008172:	68d3      	ldr	r3, [r2, #12]
 8008174:	6842      	ldr	r2, [r0, #4]
 8008176:	f3c3 1302 	ubfx	r3, r3, #4, #3
 800817a:	3301      	adds	r3, #1
 800817c:	4293      	cmp	r3, r2
 800817e:	d16d      	bne.n	800825c <RCCEx_PLLSAI1_Config+0x10c>
 8008180:	6823      	ldr	r3, [r4, #0]
 8008182:	f023 6380 	bic.w	r3, r3, #67108864	; 0x4000000
 8008186:	6023      	str	r3, [r4, #0]
 8008188:	f7fd fe68 	bl	8005e5c <HAL_GetTick>
 800818c:	4607      	mov	r7, r0
 800818e:	6823      	ldr	r3, [r4, #0]
 8008190:	011a      	lsls	r2, r3, #4
 8008192:	d42f      	bmi.n	80081f4 <RCCEx_PLLSAI1_Config+0xa4>
 8008194:	68ab      	ldr	r3, [r5, #8]
 8008196:	0218      	lsls	r0, r3, #8
 8008198:	b39e      	cbz	r6, 8008202 <RCCEx_PLLSAI1_Config+0xb2>
 800819a:	2e01      	cmp	r6, #1
 800819c:	d14b      	bne.n	8008236 <RCCEx_PLLSAI1_Config+0xe6>
 800819e:	692a      	ldr	r2, [r5, #16]
 80081a0:	6921      	ldr	r1, [r4, #16]
 80081a2:	0852      	lsrs	r2, r2, #1
 80081a4:	1e53      	subs	r3, r2, #1
 80081a6:	f421 02c0 	bic.w	r2, r1, #6291456	; 0x600000
 80081aa:	f422 42fe 	bic.w	r2, r2, #32512	; 0x7f00
 80081ae:	4302      	orrs	r2, r0
 80081b0:	ea42 5243 	orr.w	r2, r2, r3, lsl #21
 80081b4:	e02e      	b.n	8008214 <RCCEx_PLLSAI1_Config+0xc4>
 80081b6:	2b02      	cmp	r3, #2
 80081b8:	d011      	beq.n	80081de <RCCEx_PLLSAI1_Config+0x8e>
 80081ba:	2b03      	cmp	r3, #3
 80081bc:	d013      	beq.n	80081e6 <RCCEx_PLLSAI1_Config+0x96>
 80081be:	2b01      	cmp	r3, #1
 80081c0:	d14c      	bne.n	800825c <RCCEx_PLLSAI1_Config+0x10c>
 80081c2:	6812      	ldr	r2, [r2, #0]
 80081c4:	f012 0f02 	tst.w	r2, #2
 80081c8:	d048      	beq.n	800825c <RCCEx_PLLSAI1_Config+0x10c>
 80081ca:	68e0      	ldr	r0, [r4, #12]
 80081cc:	686a      	ldr	r2, [r5, #4]
 80081ce:	f020 0073 	bic.w	r0, r0, #115	; 0x73
 80081d2:	3a01      	subs	r2, #1
 80081d4:	4318      	orrs	r0, r3
 80081d6:	ea40 1002 	orr.w	r0, r0, r2, lsl #4
 80081da:	60e0      	str	r0, [r4, #12]
 80081dc:	e7d0      	b.n	8008180 <RCCEx_PLLSAI1_Config+0x30>
 80081de:	6812      	ldr	r2, [r2, #0]
 80081e0:	f412 6f80 	tst.w	r2, #1024	; 0x400
 80081e4:	e7f0      	b.n	80081c8 <RCCEx_PLLSAI1_Config+0x78>
 80081e6:	6811      	ldr	r1, [r2, #0]
 80081e8:	0389      	lsls	r1, r1, #14
 80081ea:	d4ee      	bmi.n	80081ca <RCCEx_PLLSAI1_Config+0x7a>
 80081ec:	6812      	ldr	r2, [r2, #0]
 80081ee:	f412 2f80 	tst.w	r2, #262144	; 0x40000
 80081f2:	e7e9      	b.n	80081c8 <RCCEx_PLLSAI1_Config+0x78>
 80081f4:	f7fd fe32 	bl	8005e5c <HAL_GetTick>
 80081f8:	1bc0      	subs	r0, r0, r7
 80081fa:	2802      	cmp	r0, #2
 80081fc:	d9c7      	bls.n	800818e <RCCEx_PLLSAI1_Config+0x3e>
 80081fe:	2003      	movs	r0, #3
 8008200:	bdf8      	pop	{r3, r4, r5, r6, r7, pc}
 8008202:	6923      	ldr	r3, [r4, #16]
 8008204:	68ea      	ldr	r2, [r5, #12]
 8008206:	ea40 62c2 	orr.w	r2, r0, r2, lsl #27
 800820a:	f023 4078 	bic.w	r0, r3, #4160749568	; 0xf8000000
 800820e:	f420 40fe 	bic.w	r0, r0, #32512	; 0x7f00
 8008212:	4302      	orrs	r2, r0
 8008214:	6122      	str	r2, [r4, #16]
 8008216:	6823      	ldr	r3, [r4, #0]
 8008218:	f043 6380 	orr.w	r3, r3, #67108864	; 0x4000000
 800821c:	6023      	str	r3, [r4, #0]
 800821e:	f7fd fe1d 	bl	8005e5c <HAL_GetTick>
 8008222:	4606      	mov	r6, r0
 8008224:	6823      	ldr	r3, [r4, #0]
 8008226:	011b      	lsls	r3, r3, #4
 8008228:	d512      	bpl.n	8008250 <RCCEx_PLLSAI1_Config+0x100>
 800822a:	6923      	ldr	r3, [r4, #16]
 800822c:	69aa      	ldr	r2, [r5, #24]
 800822e:	4313      	orrs	r3, r2
 8008230:	6123      	str	r3, [r4, #16]
 8008232:	2000      	movs	r0, #0
 8008234:	e7e4      	b.n	8008200 <RCCEx_PLLSAI1_Config+0xb0>
 8008236:	696b      	ldr	r3, [r5, #20]
 8008238:	6922      	ldr	r2, [r4, #16]
 800823a:	085b      	lsrs	r3, r3, #1
 800823c:	1e59      	subs	r1, r3, #1
 800823e:	f022 63c0 	bic.w	r3, r2, #100663296	; 0x6000000
 8008242:	f423 43fe 	bic.w	r3, r3, #32512	; 0x7f00
 8008246:	4303      	orrs	r3, r0
 8008248:	ea43 6341 	orr.w	r3, r3, r1, lsl #25
 800824c:	6123      	str	r3, [r4, #16]
 800824e:	e7e2      	b.n	8008216 <RCCEx_PLLSAI1_Config+0xc6>
 8008250:	f7fd fe04 	bl	8005e5c <HAL_GetTick>
 8008254:	1b80      	subs	r0, r0, r6
 8008256:	2802      	cmp	r0, #2
 8008258:	d9e4      	bls.n	8008224 <RCCEx_PLLSAI1_Config+0xd4>
 800825a:	e7d0      	b.n	80081fe <RCCEx_PLLSAI1_Config+0xae>
 800825c:	2001      	movs	r0, #1
 800825e:	e7cf      	b.n	8008200 <RCCEx_PLLSAI1_Config+0xb0>
 8008260:	40021000 	.word	0x40021000

08008264 <HAL_RCCEx_PeriphCLKConfig>:
 8008264:	e92d 43f7 	stmdb	sp!, {r0, r1, r2, r4, r5, r6, r7, r8, r9, lr}
 8008268:	6805      	ldr	r5, [r0, #0]
 800826a:	f415 6500 	ands.w	r5, r5, #2048	; 0x800
 800826e:	4604      	mov	r4, r0
 8008270:	d009      	beq.n	8008286 <HAL_RCCEx_PeriphCLKConfig+0x22>
 8008272:	6c41      	ldr	r1, [r0, #68]	; 0x44
 8008274:	f5b1 0f00 	cmp.w	r1, #8388608	; 0x800000
 8008278:	d032      	beq.n	80082e0 <HAL_RCCEx_PeriphCLKConfig+0x7c>
 800827a:	f5b1 0f40 	cmp.w	r1, #12582912	; 0xc00000
 800827e:	d034      	beq.n	80082ea <HAL_RCCEx_PeriphCLKConfig+0x86>
 8008280:	2900      	cmp	r1, #0
 8008282:	d03d      	beq.n	8008300 <HAL_RCCEx_PeriphCLKConfig+0x9c>
 8008284:	2501      	movs	r5, #1
 8008286:	6823      	ldr	r3, [r4, #0]
 8008288:	039e      	lsls	r6, r3, #14
 800828a:	d551      	bpl.n	8008330 <HAL_RCCEx_PeriphCLKConfig+0xcc>
 800828c:	4eae      	ldr	r6, [pc, #696]	; (8008548 <HAL_RCCEx_PeriphCLKConfig+0x2e4>)
 800828e:	6db3      	ldr	r3, [r6, #88]	; 0x58
 8008290:	00d8      	lsls	r0, r3, #3
 8008292:	d43c      	bmi.n	800830e <HAL_RCCEx_PeriphCLKConfig+0xaa>
 8008294:	6db3      	ldr	r3, [r6, #88]	; 0x58
 8008296:	f043 5380 	orr.w	r3, r3, #268435456	; 0x10000000
 800829a:	65b3      	str	r3, [r6, #88]	; 0x58
 800829c:	6db3      	ldr	r3, [r6, #88]	; 0x58
 800829e:	f003 5380 	and.w	r3, r3, #268435456	; 0x10000000
 80082a2:	9301      	str	r3, [sp, #4]
 80082a4:	9b01      	ldr	r3, [sp, #4]
 80082a6:	f04f 0801 	mov.w	r8, #1
 80082aa:	4fa8      	ldr	r7, [pc, #672]	; (800854c <HAL_RCCEx_PeriphCLKConfig+0x2e8>)
 80082ac:	683b      	ldr	r3, [r7, #0]
 80082ae:	f443 7380 	orr.w	r3, r3, #256	; 0x100
 80082b2:	603b      	str	r3, [r7, #0]
 80082b4:	f7fd fdd2 	bl	8005e5c <HAL_GetTick>
 80082b8:	4681      	mov	r9, r0
 80082ba:	683b      	ldr	r3, [r7, #0]
 80082bc:	05d9      	lsls	r1, r3, #23
 80082be:	d529      	bpl.n	8008314 <HAL_RCCEx_PeriphCLKConfig+0xb0>
 80082c0:	bb7d      	cbnz	r5, 8008322 <HAL_RCCEx_PeriphCLKConfig+0xbe>
 80082c2:	f8d6 3090 	ldr.w	r3, [r6, #144]	; 0x90
 80082c6:	f413 7340 	ands.w	r3, r3, #768	; 0x300
 80082ca:	f040 80f3 	bne.w	80084b4 <HAL_RCCEx_PeriphCLKConfig+0x250>
 80082ce:	f8d6 3090 	ldr.w	r3, [r6, #144]	; 0x90
 80082d2:	6de2      	ldr	r2, [r4, #92]	; 0x5c
 80082d4:	f423 7340 	bic.w	r3, r3, #768	; 0x300
 80082d8:	4313      	orrs	r3, r2
 80082da:	f8c6 3090 	str.w	r3, [r6, #144]	; 0x90
 80082de:	e020      	b.n	8008322 <HAL_RCCEx_PeriphCLKConfig+0xbe>
 80082e0:	4a99      	ldr	r2, [pc, #612]	; (8008548 <HAL_RCCEx_PeriphCLKConfig+0x2e4>)
 80082e2:	68d3      	ldr	r3, [r2, #12]
 80082e4:	f443 3380 	orr.w	r3, r3, #65536	; 0x10000
 80082e8:	60d3      	str	r3, [r2, #12]
 80082ea:	4a97      	ldr	r2, [pc, #604]	; (8008548 <HAL_RCCEx_PeriphCLKConfig+0x2e4>)
 80082ec:	6c61      	ldr	r1, [r4, #68]	; 0x44
 80082ee:	f8d2 3088 	ldr.w	r3, [r2, #136]	; 0x88
 80082f2:	f423 0340 	bic.w	r3, r3, #12582912	; 0xc00000
 80082f6:	430b      	orrs	r3, r1
 80082f8:	f8c2 3088 	str.w	r3, [r2, #136]	; 0x88
 80082fc:	2500      	movs	r5, #0
 80082fe:	e7c2      	b.n	8008286 <HAL_RCCEx_PeriphCLKConfig+0x22>
 8008300:	3004      	adds	r0, #4
 8008302:	f7ff ff25 	bl	8008150 <RCCEx_PLLSAI1_Config>
 8008306:	4605      	mov	r5, r0
 8008308:	2800      	cmp	r0, #0
 800830a:	d1bc      	bne.n	8008286 <HAL_RCCEx_PeriphCLKConfig+0x22>
 800830c:	e7ed      	b.n	80082ea <HAL_RCCEx_PeriphCLKConfig+0x86>
 800830e:	f04f 0800 	mov.w	r8, #0
 8008312:	e7ca      	b.n	80082aa <HAL_RCCEx_PeriphCLKConfig+0x46>
 8008314:	f7fd fda2 	bl	8005e5c <HAL_GetTick>
 8008318:	eba0 0009 	sub.w	r0, r0, r9
 800831c:	2802      	cmp	r0, #2
 800831e:	d9cc      	bls.n	80082ba <HAL_RCCEx_PeriphCLKConfig+0x56>
 8008320:	2503      	movs	r5, #3
 8008322:	f1b8 0f00 	cmp.w	r8, #0
 8008326:	d003      	beq.n	8008330 <HAL_RCCEx_PeriphCLKConfig+0xcc>
 8008328:	6db3      	ldr	r3, [r6, #88]	; 0x58
 800832a:	f023 5380 	bic.w	r3, r3, #268435456	; 0x10000000
 800832e:	65b3      	str	r3, [r6, #88]	; 0x58
 8008330:	6823      	ldr	r3, [r4, #0]
 8008332:	07d8      	lsls	r0, r3, #31
 8008334:	d508      	bpl.n	8008348 <HAL_RCCEx_PeriphCLKConfig+0xe4>
 8008336:	4984      	ldr	r1, [pc, #528]	; (8008548 <HAL_RCCEx_PeriphCLKConfig+0x2e4>)
 8008338:	6a20      	ldr	r0, [r4, #32]
 800833a:	f8d1 2088 	ldr.w	r2, [r1, #136]	; 0x88
 800833e:	f022 0203 	bic.w	r2, r2, #3
 8008342:	4302      	orrs	r2, r0
 8008344:	f8c1 2088 	str.w	r2, [r1, #136]	; 0x88
 8008348:	0799      	lsls	r1, r3, #30
 800834a:	d508      	bpl.n	800835e <HAL_RCCEx_PeriphCLKConfig+0xfa>
 800834c:	497e      	ldr	r1, [pc, #504]	; (8008548 <HAL_RCCEx_PeriphCLKConfig+0x2e4>)
 800834e:	6a60      	ldr	r0, [r4, #36]	; 0x24
 8008350:	f8d1 2088 	ldr.w	r2, [r1, #136]	; 0x88
 8008354:	f022 020c 	bic.w	r2, r2, #12
 8008358:	4302      	orrs	r2, r0
 800835a:	f8c1 2088 	str.w	r2, [r1, #136]	; 0x88
 800835e:	075a      	lsls	r2, r3, #29
 8008360:	d508      	bpl.n	8008374 <HAL_RCCEx_PeriphCLKConfig+0x110>
 8008362:	4979      	ldr	r1, [pc, #484]	; (8008548 <HAL_RCCEx_PeriphCLKConfig+0x2e4>)
 8008364:	6aa0      	ldr	r0, [r4, #40]	; 0x28
 8008366:	f8d1 2088 	ldr.w	r2, [r1, #136]	; 0x88
 800836a:	f022 0230 	bic.w	r2, r2, #48	; 0x30
 800836e:	4302      	orrs	r2, r0
 8008370:	f8c1 2088 	str.w	r2, [r1, #136]	; 0x88
 8008374:	069f      	lsls	r7, r3, #26
 8008376:	d508      	bpl.n	800838a <HAL_RCCEx_PeriphCLKConfig+0x126>
 8008378:	4973      	ldr	r1, [pc, #460]	; (8008548 <HAL_RCCEx_PeriphCLKConfig+0x2e4>)
 800837a:	6ae0      	ldr	r0, [r4, #44]	; 0x2c
 800837c:	f8d1 2088 	ldr.w	r2, [r1, #136]	; 0x88
 8008380:	f422 6240 	bic.w	r2, r2, #3072	; 0xc00
 8008384:	4302      	orrs	r2, r0
 8008386:	f8c1 2088 	str.w	r2, [r1, #136]	; 0x88
 800838a:	059e      	lsls	r6, r3, #22
 800838c:	d508      	bpl.n	80083a0 <HAL_RCCEx_PeriphCLKConfig+0x13c>
 800838e:	496e      	ldr	r1, [pc, #440]	; (8008548 <HAL_RCCEx_PeriphCLKConfig+0x2e4>)
 8008390:	6be0      	ldr	r0, [r4, #60]	; 0x3c
 8008392:	f8d1 2088 	ldr.w	r2, [r1, #136]	; 0x88
 8008396:	f422 2240 	bic.w	r2, r2, #786432	; 0xc0000
 800839a:	4302      	orrs	r2, r0
 800839c:	f8c1 2088 	str.w	r2, [r1, #136]	; 0x88
 80083a0:	0558      	lsls	r0, r3, #21
 80083a2:	d508      	bpl.n	80083b6 <HAL_RCCEx_PeriphCLKConfig+0x152>
 80083a4:	4968      	ldr	r1, [pc, #416]	; (8008548 <HAL_RCCEx_PeriphCLKConfig+0x2e4>)
 80083a6:	6c20      	ldr	r0, [r4, #64]	; 0x40
 80083a8:	f8d1 2088 	ldr.w	r2, [r1, #136]	; 0x88
 80083ac:	f422 1240 	bic.w	r2, r2, #3145728	; 0x300000
 80083b0:	4302      	orrs	r2, r0
 80083b2:	f8c1 2088 	str.w	r2, [r1, #136]	; 0x88
 80083b6:	0659      	lsls	r1, r3, #25
 80083b8:	d508      	bpl.n	80083cc <HAL_RCCEx_PeriphCLKConfig+0x168>
 80083ba:	4963      	ldr	r1, [pc, #396]	; (8008548 <HAL_RCCEx_PeriphCLKConfig+0x2e4>)
 80083bc:	6b20      	ldr	r0, [r4, #48]	; 0x30
 80083be:	f8d1 2088 	ldr.w	r2, [r1, #136]	; 0x88
 80083c2:	f422 5240 	bic.w	r2, r2, #12288	; 0x3000
 80083c6:	4302      	orrs	r2, r0
 80083c8:	f8c1 2088 	str.w	r2, [r1, #136]	; 0x88
 80083cc:	061a      	lsls	r2, r3, #24
 80083ce:	d508      	bpl.n	80083e2 <HAL_RCCEx_PeriphCLKConfig+0x17e>
 80083d0:	495d      	ldr	r1, [pc, #372]	; (8008548 <HAL_RCCEx_PeriphCLKConfig+0x2e4>)
 80083d2:	6b60      	ldr	r0, [r4, #52]	; 0x34
 80083d4:	f8d1 2088 	ldr.w	r2, [r1, #136]	; 0x88
 80083d8:	f422 4240 	bic.w	r2, r2, #49152	; 0xc000
 80083dc:	4302      	orrs	r2, r0
 80083de:	f8c1 2088 	str.w	r2, [r1, #136]	; 0x88
 80083e2:	05df      	lsls	r7, r3, #23
 80083e4:	d508      	bpl.n	80083f8 <HAL_RCCEx_PeriphCLKConfig+0x194>
 80083e6:	4958      	ldr	r1, [pc, #352]	; (8008548 <HAL_RCCEx_PeriphCLKConfig+0x2e4>)
 80083e8:	6ba0      	ldr	r0, [r4, #56]	; 0x38
 80083ea:	f8d1 2088 	ldr.w	r2, [r1, #136]	; 0x88
 80083ee:	f422 3240 	bic.w	r2, r2, #196608	; 0x30000
 80083f2:	4302      	orrs	r2, r0
 80083f4:	f8c1 2088 	str.w	r2, [r1, #136]	; 0x88
 80083f8:	049e      	lsls	r6, r3, #18
 80083fa:	d50f      	bpl.n	800841c <HAL_RCCEx_PeriphCLKConfig+0x1b8>
 80083fc:	4a52      	ldr	r2, [pc, #328]	; (8008548 <HAL_RCCEx_PeriphCLKConfig+0x2e4>)
 80083fe:	6ca1      	ldr	r1, [r4, #72]	; 0x48
 8008400:	f8d2 3088 	ldr.w	r3, [r2, #136]	; 0x88
 8008404:	f023 6340 	bic.w	r3, r3, #201326592	; 0xc000000
 8008408:	430b      	orrs	r3, r1
 800840a:	f1b1 6f00 	cmp.w	r1, #134217728	; 0x8000000
 800840e:	f8c2 3088 	str.w	r3, [r2, #136]	; 0x88
 8008412:	d178      	bne.n	8008506 <HAL_RCCEx_PeriphCLKConfig+0x2a2>
 8008414:	68d3      	ldr	r3, [r2, #12]
 8008416:	f443 1380 	orr.w	r3, r3, #1048576	; 0x100000
 800841a:	60d3      	str	r3, [r2, #12]
 800841c:	6823      	ldr	r3, [r4, #0]
 800841e:	0318      	lsls	r0, r3, #12
 8008420:	d50f      	bpl.n	8008442 <HAL_RCCEx_PeriphCLKConfig+0x1de>
 8008422:	4a49      	ldr	r2, [pc, #292]	; (8008548 <HAL_RCCEx_PeriphCLKConfig+0x2e4>)
 8008424:	6ce1      	ldr	r1, [r4, #76]	; 0x4c
 8008426:	f8d2 3088 	ldr.w	r3, [r2, #136]	; 0x88
 800842a:	f023 6340 	bic.w	r3, r3, #201326592	; 0xc000000
 800842e:	430b      	orrs	r3, r1
 8008430:	f1b1 6f00 	cmp.w	r1, #134217728	; 0x8000000
 8008434:	f8c2 3088 	str.w	r3, [r2, #136]	; 0x88
 8008438:	d170      	bne.n	800851c <HAL_RCCEx_PeriphCLKConfig+0x2b8>
 800843a:	68d3      	ldr	r3, [r2, #12]
 800843c:	f443 1380 	orr.w	r3, r3, #1048576	; 0x100000
 8008440:	60d3      	str	r3, [r2, #12]
 8008442:	6823      	ldr	r3, [r4, #0]
 8008444:	0359      	lsls	r1, r3, #13
 8008446:	d50f      	bpl.n	8008468 <HAL_RCCEx_PeriphCLKConfig+0x204>
 8008448:	4a3f      	ldr	r2, [pc, #252]	; (8008548 <HAL_RCCEx_PeriphCLKConfig+0x2e4>)
 800844a:	6d21      	ldr	r1, [r4, #80]	; 0x50
 800844c:	f8d2 3088 	ldr.w	r3, [r2, #136]	; 0x88
 8008450:	f023 6340 	bic.w	r3, r3, #201326592	; 0xc000000
 8008454:	430b      	orrs	r3, r1
 8008456:	f1b1 6f00 	cmp.w	r1, #134217728	; 0x8000000
 800845a:	f8c2 3088 	str.w	r3, [r2, #136]	; 0x88
 800845e:	d168      	bne.n	8008532 <HAL_RCCEx_PeriphCLKConfig+0x2ce>
 8008460:	68d3      	ldr	r3, [r2, #12]
 8008462:	f443 1380 	orr.w	r3, r3, #1048576	; 0x100000
 8008466:	60d3      	str	r3, [r2, #12]
 8008468:	6823      	ldr	r3, [r4, #0]
 800846a:	045a      	lsls	r2, r3, #17
 800846c:	d512      	bpl.n	8008494 <HAL_RCCEx_PeriphCLKConfig+0x230>
 800846e:	4936      	ldr	r1, [pc, #216]	; (8008548 <HAL_RCCEx_PeriphCLKConfig+0x2e4>)
 8008470:	6d62      	ldr	r2, [r4, #84]	; 0x54
 8008472:	f8d1 3088 	ldr.w	r3, [r1, #136]	; 0x88
 8008476:	f023 5340 	bic.w	r3, r3, #805306368	; 0x30000000
 800847a:	4313      	orrs	r3, r2
 800847c:	f1b2 5f80 	cmp.w	r2, #268435456	; 0x10000000
 8008480:	f8c1 3088 	str.w	r3, [r1, #136]	; 0x88
 8008484:	d106      	bne.n	8008494 <HAL_RCCEx_PeriphCLKConfig+0x230>
 8008486:	2102      	movs	r1, #2
 8008488:	1d20      	adds	r0, r4, #4
 800848a:	f7ff fe61 	bl	8008150 <RCCEx_PLLSAI1_Config>
 800848e:	2800      	cmp	r0, #0
 8008490:	bf18      	it	ne
 8008492:	4605      	movne	r5, r0
 8008494:	6823      	ldr	r3, [r4, #0]
 8008496:	041b      	lsls	r3, r3, #16
 8008498:	d508      	bpl.n	80084ac <HAL_RCCEx_PeriphCLKConfig+0x248>
 800849a:	4a2b      	ldr	r2, [pc, #172]	; (8008548 <HAL_RCCEx_PeriphCLKConfig+0x2e4>)
 800849c:	6da1      	ldr	r1, [r4, #88]	; 0x58
 800849e:	f8d2 3088 	ldr.w	r3, [r2, #136]	; 0x88
 80084a2:	f023 4380 	bic.w	r3, r3, #1073741824	; 0x40000000
 80084a6:	430b      	orrs	r3, r1
 80084a8:	f8c2 3088 	str.w	r3, [r2, #136]	; 0x88
 80084ac:	4628      	mov	r0, r5
 80084ae:	b003      	add	sp, #12
 80084b0:	e8bd 83f0 	ldmia.w	sp!, {r4, r5, r6, r7, r8, r9, pc}
 80084b4:	6de2      	ldr	r2, [r4, #92]	; 0x5c
 80084b6:	4293      	cmp	r3, r2
 80084b8:	f43f af09 	beq.w	80082ce <HAL_RCCEx_PeriphCLKConfig+0x6a>
 80084bc:	f8d6 2090 	ldr.w	r2, [r6, #144]	; 0x90
 80084c0:	f8d6 3090 	ldr.w	r3, [r6, #144]	; 0x90
 80084c4:	f443 3380 	orr.w	r3, r3, #65536	; 0x10000
 80084c8:	f8c6 3090 	str.w	r3, [r6, #144]	; 0x90
 80084cc:	f8d6 3090 	ldr.w	r3, [r6, #144]	; 0x90
 80084d0:	f422 7140 	bic.w	r1, r2, #768	; 0x300
 80084d4:	f423 3380 	bic.w	r3, r3, #65536	; 0x10000
 80084d8:	07d2      	lsls	r2, r2, #31
 80084da:	f8c6 3090 	str.w	r3, [r6, #144]	; 0x90
 80084de:	f8c6 1090 	str.w	r1, [r6, #144]	; 0x90
 80084e2:	f57f aef4 	bpl.w	80082ce <HAL_RCCEx_PeriphCLKConfig+0x6a>
 80084e6:	f7fd fcb9 	bl	8005e5c <HAL_GetTick>
 80084ea:	f241 3988 	movw	r9, #5000	; 0x1388
 80084ee:	4607      	mov	r7, r0
 80084f0:	f8d6 3090 	ldr.w	r3, [r6, #144]	; 0x90
 80084f4:	079b      	lsls	r3, r3, #30
 80084f6:	f53f aeea 	bmi.w	80082ce <HAL_RCCEx_PeriphCLKConfig+0x6a>
 80084fa:	f7fd fcaf 	bl	8005e5c <HAL_GetTick>
 80084fe:	1bc0      	subs	r0, r0, r7
 8008500:	4548      	cmp	r0, r9
 8008502:	d9f5      	bls.n	80084f0 <HAL_RCCEx_PeriphCLKConfig+0x28c>
 8008504:	e70c      	b.n	8008320 <HAL_RCCEx_PeriphCLKConfig+0xbc>
 8008506:	f1b1 6f80 	cmp.w	r1, #67108864	; 0x4000000
 800850a:	d187      	bne.n	800841c <HAL_RCCEx_PeriphCLKConfig+0x1b8>
 800850c:	2101      	movs	r1, #1
 800850e:	1d20      	adds	r0, r4, #4
 8008510:	f7ff fe1e 	bl	8008150 <RCCEx_PLLSAI1_Config>
 8008514:	2800      	cmp	r0, #0
 8008516:	bf18      	it	ne
 8008518:	4605      	movne	r5, r0
 800851a:	e77f      	b.n	800841c <HAL_RCCEx_PeriphCLKConfig+0x1b8>
 800851c:	f1b1 6f80 	cmp.w	r1, #67108864	; 0x4000000
 8008520:	d18f      	bne.n	8008442 <HAL_RCCEx_PeriphCLKConfig+0x1de>
 8008522:	2101      	movs	r1, #1
 8008524:	1d20      	adds	r0, r4, #4
 8008526:	f7ff fe13 	bl	8008150 <RCCEx_PLLSAI1_Config>
 800852a:	2800      	cmp	r0, #0
 800852c:	bf18      	it	ne
 800852e:	4605      	movne	r5, r0
 8008530:	e787      	b.n	8008442 <HAL_RCCEx_PeriphCLKConfig+0x1de>
 8008532:	f1b1 6f80 	cmp.w	r1, #67108864	; 0x4000000
 8008536:	d197      	bne.n	8008468 <HAL_RCCEx_PeriphCLKConfig+0x204>
 8008538:	2101      	movs	r1, #1
 800853a:	1d20      	adds	r0, r4, #4
 800853c:	f7ff fe08 	bl	8008150 <RCCEx_PLLSAI1_Config>
 8008540:	2800      	cmp	r0, #0
 8008542:	bf18      	it	ne
 8008544:	4605      	movne	r5, r0
 8008546:	e78f      	b.n	8008468 <HAL_RCCEx_PeriphCLKConfig+0x204>
 8008548:	40021000 	.word	0x40021000
 800854c:	40007000 	.word	0x40007000

08008550 <HAL_RCCEx_EnableMSIPLLMode>:
 8008550:	4a02      	ldr	r2, [pc, #8]	; (800855c <HAL_RCCEx_EnableMSIPLLMode+0xc>)
 8008552:	6813      	ldr	r3, [r2, #0]
 8008554:	f043 0304 	orr.w	r3, r3, #4
 8008558:	6013      	str	r3, [r2, #0]
 800855a:	4770      	bx	lr
 800855c:	40021000 	.word	0x40021000

08008560 <TIM_OC1_SetConfig>:
 8008560:	6a03      	ldr	r3, [r0, #32]
 8008562:	f023 0301 	bic.w	r3, r3, #1
 8008566:	6203      	str	r3, [r0, #32]
 8008568:	6a03      	ldr	r3, [r0, #32]
 800856a:	b570      	push	{r4, r5, r6, lr}
 800856c:	6845      	ldr	r5, [r0, #4]
 800856e:	6982      	ldr	r2, [r0, #24]
 8008570:	680c      	ldr	r4, [r1, #0]
 8008572:	f422 3280 	bic.w	r2, r2, #65536	; 0x10000
 8008576:	f022 0273 	bic.w	r2, r2, #115	; 0x73
 800857a:	4322      	orrs	r2, r4
 800857c:	688c      	ldr	r4, [r1, #8]
 800857e:	f023 0302 	bic.w	r3, r3, #2
 8008582:	4323      	orrs	r3, r4
 8008584:	4c12      	ldr	r4, [pc, #72]	; (80085d0 <TIM_OC1_SetConfig+0x70>)
 8008586:	42a0      	cmp	r0, r4
 8008588:	d006      	beq.n	8008598 <TIM_OC1_SetConfig+0x38>
 800858a:	4e12      	ldr	r6, [pc, #72]	; (80085d4 <TIM_OC1_SetConfig+0x74>)
 800858c:	42b0      	cmp	r0, r6
 800858e:	d003      	beq.n	8008598 <TIM_OC1_SetConfig+0x38>
 8008590:	f506 6680 	add.w	r6, r6, #1024	; 0x400
 8008594:	42b0      	cmp	r0, r6
 8008596:	d114      	bne.n	80085c2 <TIM_OC1_SetConfig+0x62>
 8008598:	68ce      	ldr	r6, [r1, #12]
 800859a:	f023 0308 	bic.w	r3, r3, #8
 800859e:	4333      	orrs	r3, r6
 80085a0:	42a0      	cmp	r0, r4
 80085a2:	f023 0304 	bic.w	r3, r3, #4
 80085a6:	d006      	beq.n	80085b6 <TIM_OC1_SetConfig+0x56>
 80085a8:	4c0a      	ldr	r4, [pc, #40]	; (80085d4 <TIM_OC1_SetConfig+0x74>)
 80085aa:	42a0      	cmp	r0, r4
 80085ac:	d003      	beq.n	80085b6 <TIM_OC1_SetConfig+0x56>
 80085ae:	f504 6480 	add.w	r4, r4, #1024	; 0x400
 80085b2:	42a0      	cmp	r0, r4
 80085b4:	d105      	bne.n	80085c2 <TIM_OC1_SetConfig+0x62>
 80085b6:	e9d1 4605 	ldrd	r4, r6, [r1, #20]
 80085ba:	f425 7540 	bic.w	r5, r5, #768	; 0x300
 80085be:	4334      	orrs	r4, r6
 80085c0:	4325      	orrs	r5, r4
 80085c2:	6045      	str	r5, [r0, #4]
 80085c4:	6182      	str	r2, [r0, #24]
 80085c6:	684a      	ldr	r2, [r1, #4]
 80085c8:	6342      	str	r2, [r0, #52]	; 0x34
 80085ca:	6203      	str	r3, [r0, #32]
 80085cc:	bd70      	pop	{r4, r5, r6, pc}
 80085ce:	bf00      	nop
 80085d0:	40012c00 	.word	0x40012c00
 80085d4:	40014000 	.word	0x40014000

080085d8 <TIM_OC3_SetConfig>:
 80085d8:	6a03      	ldr	r3, [r0, #32]
 80085da:	f423 7380 	bic.w	r3, r3, #256	; 0x100
 80085de:	6203      	str	r3, [r0, #32]
 80085e0:	6a03      	ldr	r3, [r0, #32]
 80085e2:	6842      	ldr	r2, [r0, #4]
 80085e4:	b570      	push	{r4, r5, r6, lr}
 80085e6:	69c4      	ldr	r4, [r0, #28]
 80085e8:	680d      	ldr	r5, [r1, #0]
 80085ea:	f424 3480 	bic.w	r4, r4, #65536	; 0x10000
 80085ee:	f024 0473 	bic.w	r4, r4, #115	; 0x73
 80085f2:	432c      	orrs	r4, r5
 80085f4:	688d      	ldr	r5, [r1, #8]
 80085f6:	f423 7300 	bic.w	r3, r3, #512	; 0x200
 80085fa:	ea43 2305 	orr.w	r3, r3, r5, lsl #8
 80085fe:	4d0f      	ldr	r5, [pc, #60]	; (800863c <TIM_OC3_SetConfig+0x64>)
 8008600:	42a8      	cmp	r0, r5
 8008602:	d10e      	bne.n	8008622 <TIM_OC3_SetConfig+0x4a>
 8008604:	68cd      	ldr	r5, [r1, #12]
 8008606:	f423 6300 	bic.w	r3, r3, #2048	; 0x800
 800860a:	ea43 2305 	orr.w	r3, r3, r5, lsl #8
 800860e:	f423 6380 	bic.w	r3, r3, #1024	; 0x400
 8008612:	e9d1 5605 	ldrd	r5, r6, [r1, #20]
 8008616:	f422 5240 	bic.w	r2, r2, #12288	; 0x3000
 800861a:	4335      	orrs	r5, r6
 800861c:	ea42 1205 	orr.w	r2, r2, r5, lsl #4
 8008620:	e005      	b.n	800862e <TIM_OC3_SetConfig+0x56>
 8008622:	4d07      	ldr	r5, [pc, #28]	; (8008640 <TIM_OC3_SetConfig+0x68>)
 8008624:	42a8      	cmp	r0, r5
 8008626:	d0f4      	beq.n	8008612 <TIM_OC3_SetConfig+0x3a>
 8008628:	4d06      	ldr	r5, [pc, #24]	; (8008644 <TIM_OC3_SetConfig+0x6c>)
 800862a:	42a8      	cmp	r0, r5
 800862c:	d0f1      	beq.n	8008612 <TIM_OC3_SetConfig+0x3a>
 800862e:	6042      	str	r2, [r0, #4]
 8008630:	684a      	ldr	r2, [r1, #4]
 8008632:	61c4      	str	r4, [r0, #28]
 8008634:	63c2      	str	r2, [r0, #60]	; 0x3c
 8008636:	6203      	str	r3, [r0, #32]
 8008638:	bd70      	pop	{r4, r5, r6, pc}
 800863a:	bf00      	nop
 800863c:	40012c00 	.word	0x40012c00
 8008640:	40014000 	.word	0x40014000
 8008644:	40014400 	.word	0x40014400

08008648 <TIM_OC4_SetConfig>:
 8008648:	6a03      	ldr	r3, [r0, #32]
 800864a:	f423 5380 	bic.w	r3, r3, #4096	; 0x1000
 800864e:	6203      	str	r3, [r0, #32]
 8008650:	6a02      	ldr	r2, [r0, #32]
 8008652:	b530      	push	{r4, r5, lr}
 8008654:	6844      	ldr	r4, [r0, #4]
 8008656:	69c3      	ldr	r3, [r0, #28]
 8008658:	680d      	ldr	r5, [r1, #0]
 800865a:	f023 7380 	bic.w	r3, r3, #16777216	; 0x1000000
 800865e:	f423 43e6 	bic.w	r3, r3, #29440	; 0x7300
 8008662:	ea43 2305 	orr.w	r3, r3, r5, lsl #8
 8008666:	688d      	ldr	r5, [r1, #8]
 8008668:	f422 5200 	bic.w	r2, r2, #8192	; 0x2000
 800866c:	ea42 3205 	orr.w	r2, r2, r5, lsl #12
 8008670:	4d0a      	ldr	r5, [pc, #40]	; (800869c <TIM_OC4_SetConfig+0x54>)
 8008672:	42a8      	cmp	r0, r5
 8008674:	d007      	beq.n	8008686 <TIM_OC4_SetConfig+0x3e>
 8008676:	f505 55a0 	add.w	r5, r5, #5120	; 0x1400
 800867a:	42a8      	cmp	r0, r5
 800867c:	d003      	beq.n	8008686 <TIM_OC4_SetConfig+0x3e>
 800867e:	f505 6580 	add.w	r5, r5, #1024	; 0x400
 8008682:	42a8      	cmp	r0, r5
 8008684:	d104      	bne.n	8008690 <TIM_OC4_SetConfig+0x48>
 8008686:	694d      	ldr	r5, [r1, #20]
 8008688:	f424 4480 	bic.w	r4, r4, #16384	; 0x4000
 800868c:	ea44 1485 	orr.w	r4, r4, r5, lsl #6
 8008690:	6044      	str	r4, [r0, #4]
 8008692:	61c3      	str	r3, [r0, #28]
 8008694:	684b      	ldr	r3, [r1, #4]
 8008696:	6403      	str	r3, [r0, #64]	; 0x40
 8008698:	6202      	str	r2, [r0, #32]
 800869a:	bd30      	pop	{r4, r5, pc}
 800869c:	40012c00 	.word	0x40012c00

080086a0 <TIM_OC5_SetConfig>:
 80086a0:	6a03      	ldr	r3, [r0, #32]
 80086a2:	f423 3380 	bic.w	r3, r3, #65536	; 0x10000
 80086a6:	6203      	str	r3, [r0, #32]
 80086a8:	6a02      	ldr	r2, [r0, #32]
 80086aa:	b530      	push	{r4, r5, lr}
 80086ac:	6844      	ldr	r4, [r0, #4]
 80086ae:	6d43      	ldr	r3, [r0, #84]	; 0x54
 80086b0:	680d      	ldr	r5, [r1, #0]
 80086b2:	f423 3380 	bic.w	r3, r3, #65536	; 0x10000
 80086b6:	f023 0370 	bic.w	r3, r3, #112	; 0x70
 80086ba:	432b      	orrs	r3, r5
 80086bc:	688d      	ldr	r5, [r1, #8]
 80086be:	f422 3200 	bic.w	r2, r2, #131072	; 0x20000
 80086c2:	ea42 4205 	orr.w	r2, r2, r5, lsl #16
 80086c6:	4d0b      	ldr	r5, [pc, #44]	; (80086f4 <TIM_OC5_SetConfig+0x54>)
 80086c8:	42a8      	cmp	r0, r5
 80086ca:	d007      	beq.n	80086dc <TIM_OC5_SetConfig+0x3c>
 80086cc:	f505 55a0 	add.w	r5, r5, #5120	; 0x1400
 80086d0:	42a8      	cmp	r0, r5
 80086d2:	d003      	beq.n	80086dc <TIM_OC5_SetConfig+0x3c>
 80086d4:	f505 6580 	add.w	r5, r5, #1024	; 0x400
 80086d8:	42a8      	cmp	r0, r5
 80086da:	d104      	bne.n	80086e6 <TIM_OC5_SetConfig+0x46>
 80086dc:	694d      	ldr	r5, [r1, #20]
 80086de:	f424 3480 	bic.w	r4, r4, #65536	; 0x10000
 80086e2:	ea44 2405 	orr.w	r4, r4, r5, lsl #8
 80086e6:	6044      	str	r4, [r0, #4]
 80086e8:	6543      	str	r3, [r0, #84]	; 0x54
 80086ea:	684b      	ldr	r3, [r1, #4]
 80086ec:	6583      	str	r3, [r0, #88]	; 0x58
 80086ee:	6202      	str	r2, [r0, #32]
 80086f0:	bd30      	pop	{r4, r5, pc}
 80086f2:	bf00      	nop
 80086f4:	40012c00 	.word	0x40012c00

080086f8 <TIM_OC6_SetConfig>:
 80086f8:	6a03      	ldr	r3, [r0, #32]
 80086fa:	f423 1380 	bic.w	r3, r3, #1048576	; 0x100000
 80086fe:	6203      	str	r3, [r0, #32]
 8008700:	6a02      	ldr	r2, [r0, #32]
 8008702:	b530      	push	{r4, r5, lr}
 8008704:	6844      	ldr	r4, [r0, #4]
 8008706:	6d43      	ldr	r3, [r0, #84]	; 0x54
 8008708:	680d      	ldr	r5, [r1, #0]
 800870a:	f023 7380 	bic.w	r3, r3, #16777216	; 0x1000000
 800870e:	f423 43e0 	bic.w	r3, r3, #28672	; 0x7000
 8008712:	ea43 2305 	orr.w	r3, r3, r5, lsl #8
 8008716:	688d      	ldr	r5, [r1, #8]
 8008718:	f422 1200 	bic.w	r2, r2, #2097152	; 0x200000
 800871c:	ea42 5205 	orr.w	r2, r2, r5, lsl #20
 8008720:	4d0a      	ldr	r5, [pc, #40]	; (800874c <TIM_OC6_SetConfig+0x54>)
 8008722:	42a8      	cmp	r0, r5
 8008724:	d007      	beq.n	8008736 <TIM_OC6_SetConfig+0x3e>
 8008726:	f505 55a0 	add.w	r5, r5, #5120	; 0x1400
 800872a:	42a8      	cmp	r0, r5
 800872c:	d003      	beq.n	8008736 <TIM_OC6_SetConfig+0x3e>
 800872e:	f505 6580 	add.w	r5, r5, #1024	; 0x400
 8008732:	42a8      	cmp	r0, r5
 8008734:	d104      	bne.n	8008740 <TIM_OC6_SetConfig+0x48>
 8008736:	694d      	ldr	r5, [r1, #20]
 8008738:	f424 2480 	bic.w	r4, r4, #262144	; 0x40000
 800873c:	ea44 2485 	orr.w	r4, r4, r5, lsl #10
 8008740:	6044      	str	r4, [r0, #4]
 8008742:	6543      	str	r3, [r0, #84]	; 0x54
 8008744:	684b      	ldr	r3, [r1, #4]
 8008746:	65c3      	str	r3, [r0, #92]	; 0x5c
 8008748:	6202      	str	r2, [r0, #32]
 800874a:	bd30      	pop	{r4, r5, pc}
 800874c:	40012c00 	.word	0x40012c00

08008750 <HAL_TIM_Base_Start_IT>:
 8008750:	f890 303d 	ldrb.w	r3, [r0, #61]	; 0x3d
 8008754:	2b01      	cmp	r3, #1
 8008756:	d11f      	bne.n	8008798 <HAL_TIM_Base_Start_IT+0x48>
 8008758:	2302      	movs	r3, #2
 800875a:	f880 303d 	strb.w	r3, [r0, #61]	; 0x3d
 800875e:	6803      	ldr	r3, [r0, #0]
 8008760:	68da      	ldr	r2, [r3, #12]
 8008762:	f042 0201 	orr.w	r2, r2, #1
 8008766:	60da      	str	r2, [r3, #12]
 8008768:	4a0c      	ldr	r2, [pc, #48]	; (800879c <HAL_TIM_Base_Start_IT+0x4c>)
 800876a:	4293      	cmp	r3, r2
 800876c:	d006      	beq.n	800877c <HAL_TIM_Base_Start_IT+0x2c>
 800876e:	f1b3 4f80 	cmp.w	r3, #1073741824	; 0x40000000
 8008772:	d003      	beq.n	800877c <HAL_TIM_Base_Start_IT+0x2c>
 8008774:	f502 52a0 	add.w	r2, r2, #5120	; 0x1400
 8008778:	4293      	cmp	r3, r2
 800877a:	d107      	bne.n	800878c <HAL_TIM_Base_Start_IT+0x3c>
 800877c:	6899      	ldr	r1, [r3, #8]
 800877e:	4a08      	ldr	r2, [pc, #32]	; (80087a0 <HAL_TIM_Base_Start_IT+0x50>)
 8008780:	400a      	ands	r2, r1
 8008782:	2a06      	cmp	r2, #6
 8008784:	d006      	beq.n	8008794 <HAL_TIM_Base_Start_IT+0x44>
 8008786:	f5b2 3f80 	cmp.w	r2, #65536	; 0x10000
 800878a:	d003      	beq.n	8008794 <HAL_TIM_Base_Start_IT+0x44>
 800878c:	681a      	ldr	r2, [r3, #0]
 800878e:	f042 0201 	orr.w	r2, r2, #1
 8008792:	601a      	str	r2, [r3, #0]
 8008794:	2000      	movs	r0, #0
 8008796:	4770      	bx	lr
 8008798:	2001      	movs	r0, #1
 800879a:	4770      	bx	lr
 800879c:	40012c00 	.word	0x40012c00
 80087a0:	00010007 	.word	0x00010007

080087a4 <HAL_TIM_PWM_MspInit>:
 80087a4:	4770      	bx	lr

080087a6 <HAL_TIM_OC_DelayElapsedCallback>:
 80087a6:	4770      	bx	lr

080087a8 <HAL_TIM_IC_CaptureCallback>:
 80087a8:	4770      	bx	lr

080087aa <HAL_TIM_PWM_PulseFinishedCallback>:
 80087aa:	4770      	bx	lr

080087ac <HAL_TIM_TriggerCallback>:
 80087ac:	4770      	bx	lr

080087ae <HAL_TIM_IRQHandler>:
 80087ae:	6803      	ldr	r3, [r0, #0]
 80087b0:	691a      	ldr	r2, [r3, #16]
 80087b2:	0791      	lsls	r1, r2, #30
 80087b4:	b510      	push	{r4, lr}
 80087b6:	4604      	mov	r4, r0
 80087b8:	d50f      	bpl.n	80087da <HAL_TIM_IRQHandler+0x2c>
 80087ba:	68da      	ldr	r2, [r3, #12]
 80087bc:	0792      	lsls	r2, r2, #30
 80087be:	d50c      	bpl.n	80087da <HAL_TIM_IRQHandler+0x2c>
 80087c0:	f06f 0202 	mvn.w	r2, #2
 80087c4:	611a      	str	r2, [r3, #16]
 80087c6:	2201      	movs	r2, #1
 80087c8:	7702      	strb	r2, [r0, #28]
 80087ca:	699b      	ldr	r3, [r3, #24]
 80087cc:	0799      	lsls	r1, r3, #30
 80087ce:	f000 8085 	beq.w	80088dc <HAL_TIM_IRQHandler+0x12e>
 80087d2:	f7ff ffe9 	bl	80087a8 <HAL_TIM_IC_CaptureCallback>
 80087d6:	2300      	movs	r3, #0
 80087d8:	7723      	strb	r3, [r4, #28]
 80087da:	6823      	ldr	r3, [r4, #0]
 80087dc:	691a      	ldr	r2, [r3, #16]
 80087de:	0752      	lsls	r2, r2, #29
 80087e0:	d510      	bpl.n	8008804 <HAL_TIM_IRQHandler+0x56>
 80087e2:	68da      	ldr	r2, [r3, #12]
 80087e4:	0750      	lsls	r0, r2, #29
 80087e6:	d50d      	bpl.n	8008804 <HAL_TIM_IRQHandler+0x56>
 80087e8:	f06f 0204 	mvn.w	r2, #4
 80087ec:	611a      	str	r2, [r3, #16]
 80087ee:	2202      	movs	r2, #2
 80087f0:	7722      	strb	r2, [r4, #28]
 80087f2:	699b      	ldr	r3, [r3, #24]
 80087f4:	f413 7f40 	tst.w	r3, #768	; 0x300
 80087f8:	4620      	mov	r0, r4
 80087fa:	d075      	beq.n	80088e8 <HAL_TIM_IRQHandler+0x13a>
 80087fc:	f7ff ffd4 	bl	80087a8 <HAL_TIM_IC_CaptureCallback>
 8008800:	2300      	movs	r3, #0
 8008802:	7723      	strb	r3, [r4, #28]
 8008804:	6823      	ldr	r3, [r4, #0]
 8008806:	691a      	ldr	r2, [r3, #16]
 8008808:	0711      	lsls	r1, r2, #28
 800880a:	d50f      	bpl.n	800882c <HAL_TIM_IRQHandler+0x7e>
 800880c:	68da      	ldr	r2, [r3, #12]
 800880e:	0712      	lsls	r2, r2, #28
 8008810:	d50c      	bpl.n	800882c <HAL_TIM_IRQHandler+0x7e>
 8008812:	f06f 0208 	mvn.w	r2, #8
 8008816:	611a      	str	r2, [r3, #16]
 8008818:	2204      	movs	r2, #4
 800881a:	7722      	strb	r2, [r4, #28]
 800881c:	69db      	ldr	r3, [r3, #28]
 800881e:	079b      	lsls	r3, r3, #30
 8008820:	4620      	mov	r0, r4
 8008822:	d067      	beq.n	80088f4 <HAL_TIM_IRQHandler+0x146>
 8008824:	f7ff ffc0 	bl	80087a8 <HAL_TIM_IC_CaptureCallback>
 8008828:	2300      	movs	r3, #0
 800882a:	7723      	strb	r3, [r4, #28]
 800882c:	6823      	ldr	r3, [r4, #0]
 800882e:	691a      	ldr	r2, [r3, #16]
 8008830:	06d0      	lsls	r0, r2, #27
 8008832:	d510      	bpl.n	8008856 <HAL_TIM_IRQHandler+0xa8>
 8008834:	68da      	ldr	r2, [r3, #12]
 8008836:	06d1      	lsls	r1, r2, #27
 8008838:	d50d      	bpl.n	8008856 <HAL_TIM_IRQHandler+0xa8>
 800883a:	f06f 0210 	mvn.w	r2, #16
 800883e:	611a      	str	r2, [r3, #16]
 8008840:	2208      	movs	r2, #8
 8008842:	7722      	strb	r2, [r4, #28]
 8008844:	69db      	ldr	r3, [r3, #28]
 8008846:	f413 7f40 	tst.w	r3, #768	; 0x300
 800884a:	4620      	mov	r0, r4
 800884c:	d058      	beq.n	8008900 <HAL_TIM_IRQHandler+0x152>
 800884e:	f7ff ffab 	bl	80087a8 <HAL_TIM_IC_CaptureCallback>
 8008852:	2300      	movs	r3, #0
 8008854:	7723      	strb	r3, [r4, #28]
 8008856:	6823      	ldr	r3, [r4, #0]
 8008858:	691a      	ldr	r2, [r3, #16]
 800885a:	07d2      	lsls	r2, r2, #31
 800885c:	d508      	bpl.n	8008870 <HAL_TIM_IRQHandler+0xc2>
 800885e:	68da      	ldr	r2, [r3, #12]
 8008860:	07d0      	lsls	r0, r2, #31
 8008862:	d505      	bpl.n	8008870 <HAL_TIM_IRQHandler+0xc2>
 8008864:	f06f 0201 	mvn.w	r2, #1
 8008868:	611a      	str	r2, [r3, #16]
 800886a:	4620      	mov	r0, r4
 800886c:	f7fc fb74 	bl	8004f58 <HAL_TIM_PeriodElapsedCallback>
 8008870:	6823      	ldr	r3, [r4, #0]
 8008872:	691a      	ldr	r2, [r3, #16]
 8008874:	0611      	lsls	r1, r2, #24
 8008876:	d508      	bpl.n	800888a <HAL_TIM_IRQHandler+0xdc>
 8008878:	68da      	ldr	r2, [r3, #12]
 800887a:	0612      	lsls	r2, r2, #24
 800887c:	d505      	bpl.n	800888a <HAL_TIM_IRQHandler+0xdc>
 800887e:	f06f 0280 	mvn.w	r2, #128	; 0x80
 8008882:	611a      	str	r2, [r3, #16]
 8008884:	4620      	mov	r0, r4
 8008886:	f000 fad8 	bl	8008e3a <HAL_TIMEx_BreakCallback>
 800888a:	6823      	ldr	r3, [r4, #0]
 800888c:	691a      	ldr	r2, [r3, #16]
 800888e:	05d0      	lsls	r0, r2, #23
 8008890:	d508      	bpl.n	80088a4 <HAL_TIM_IRQHandler+0xf6>
 8008892:	68da      	ldr	r2, [r3, #12]
 8008894:	0611      	lsls	r1, r2, #24
 8008896:	d505      	bpl.n	80088a4 <HAL_TIM_IRQHandler+0xf6>
 8008898:	f46f 7280 	mvn.w	r2, #256	; 0x100
 800889c:	611a      	str	r2, [r3, #16]
 800889e:	4620      	mov	r0, r4
 80088a0:	f000 facc 	bl	8008e3c <HAL_TIMEx_Break2Callback>
 80088a4:	6823      	ldr	r3, [r4, #0]
 80088a6:	691a      	ldr	r2, [r3, #16]
 80088a8:	0652      	lsls	r2, r2, #25
 80088aa:	d508      	bpl.n	80088be <HAL_TIM_IRQHandler+0x110>
 80088ac:	68da      	ldr	r2, [r3, #12]
 80088ae:	0650      	lsls	r0, r2, #25
 80088b0:	d505      	bpl.n	80088be <HAL_TIM_IRQHandler+0x110>
 80088b2:	f06f 0240 	mvn.w	r2, #64	; 0x40
 80088b6:	611a      	str	r2, [r3, #16]
 80088b8:	4620      	mov	r0, r4
 80088ba:	f7ff ff77 	bl	80087ac <HAL_TIM_TriggerCallback>
 80088be:	6823      	ldr	r3, [r4, #0]
 80088c0:	691a      	ldr	r2, [r3, #16]
 80088c2:	0691      	lsls	r1, r2, #26
 80088c4:	d522      	bpl.n	800890c <HAL_TIM_IRQHandler+0x15e>
 80088c6:	68da      	ldr	r2, [r3, #12]
 80088c8:	0692      	lsls	r2, r2, #26
 80088ca:	d51f      	bpl.n	800890c <HAL_TIM_IRQHandler+0x15e>
 80088cc:	f06f 0220 	mvn.w	r2, #32
 80088d0:	4620      	mov	r0, r4
 80088d2:	611a      	str	r2, [r3, #16]
 80088d4:	e8bd 4010 	ldmia.w	sp!, {r4, lr}
 80088d8:	f000 baae 	b.w	8008e38 <HAL_TIMEx_CommutCallback>
 80088dc:	f7ff ff63 	bl	80087a6 <HAL_TIM_OC_DelayElapsedCallback>
 80088e0:	4620      	mov	r0, r4
 80088e2:	f7ff ff62 	bl	80087aa <HAL_TIM_PWM_PulseFinishedCallback>
 80088e6:	e776      	b.n	80087d6 <HAL_TIM_IRQHandler+0x28>
 80088e8:	f7ff ff5d 	bl	80087a6 <HAL_TIM_OC_DelayElapsedCallback>
 80088ec:	4620      	mov	r0, r4
 80088ee:	f7ff ff5c 	bl	80087aa <HAL_TIM_PWM_PulseFinishedCallback>
 80088f2:	e785      	b.n	8008800 <HAL_TIM_IRQHandler+0x52>
 80088f4:	f7ff ff57 	bl	80087a6 <HAL_TIM_OC_DelayElapsedCallback>
 80088f8:	4620      	mov	r0, r4
 80088fa:	f7ff ff56 	bl	80087aa <HAL_TIM_PWM_PulseFinishedCallback>
 80088fe:	e793      	b.n	8008828 <HAL_TIM_IRQHandler+0x7a>
 8008900:	f7ff ff51 	bl	80087a6 <HAL_TIM_OC_DelayElapsedCallback>
 8008904:	4620      	mov	r0, r4
 8008906:	f7ff ff50 	bl	80087aa <HAL_TIM_PWM_PulseFinishedCallback>
 800890a:	e7a2      	b.n	8008852 <HAL_TIM_IRQHandler+0xa4>
 800890c:	bd10      	pop	{r4, pc}
	...

08008910 <TIM_Base_SetConfig>:
 8008910:	4a1a      	ldr	r2, [pc, #104]	; (800897c <TIM_Base_SetConfig+0x6c>)
 8008912:	6803      	ldr	r3, [r0, #0]
 8008914:	4290      	cmp	r0, r2
 8008916:	b510      	push	{r4, lr}
 8008918:	d002      	beq.n	8008920 <TIM_Base_SetConfig+0x10>
 800891a:	f1b0 4f80 	cmp.w	r0, #1073741824	; 0x40000000
 800891e:	d109      	bne.n	8008934 <TIM_Base_SetConfig+0x24>
 8008920:	684c      	ldr	r4, [r1, #4]
 8008922:	f023 0370 	bic.w	r3, r3, #112	; 0x70
 8008926:	4290      	cmp	r0, r2
 8008928:	ea43 0304 	orr.w	r3, r3, r4
 800892c:	d009      	beq.n	8008942 <TIM_Base_SetConfig+0x32>
 800892e:	f1b0 4f80 	cmp.w	r0, #1073741824	; 0x40000000
 8008932:	d006      	beq.n	8008942 <TIM_Base_SetConfig+0x32>
 8008934:	4a12      	ldr	r2, [pc, #72]	; (8008980 <TIM_Base_SetConfig+0x70>)
 8008936:	4290      	cmp	r0, r2
 8008938:	d003      	beq.n	8008942 <TIM_Base_SetConfig+0x32>
 800893a:	f502 6280 	add.w	r2, r2, #1024	; 0x400
 800893e:	4290      	cmp	r0, r2
 8008940:	d103      	bne.n	800894a <TIM_Base_SetConfig+0x3a>
 8008942:	68ca      	ldr	r2, [r1, #12]
 8008944:	f423 7340 	bic.w	r3, r3, #768	; 0x300
 8008948:	4313      	orrs	r3, r2
 800894a:	694a      	ldr	r2, [r1, #20]
 800894c:	f023 0380 	bic.w	r3, r3, #128	; 0x80
 8008950:	4313      	orrs	r3, r2
 8008952:	6003      	str	r3, [r0, #0]
 8008954:	688b      	ldr	r3, [r1, #8]
 8008956:	62c3      	str	r3, [r0, #44]	; 0x2c
 8008958:	680b      	ldr	r3, [r1, #0]
 800895a:	6283      	str	r3, [r0, #40]	; 0x28
 800895c:	4b07      	ldr	r3, [pc, #28]	; (800897c <TIM_Base_SetConfig+0x6c>)
 800895e:	4298      	cmp	r0, r3
 8008960:	d007      	beq.n	8008972 <TIM_Base_SetConfig+0x62>
 8008962:	f503 53a0 	add.w	r3, r3, #5120	; 0x1400
 8008966:	4298      	cmp	r0, r3
 8008968:	d003      	beq.n	8008972 <TIM_Base_SetConfig+0x62>
 800896a:	f503 6380 	add.w	r3, r3, #1024	; 0x400
 800896e:	4298      	cmp	r0, r3
 8008970:	d101      	bne.n	8008976 <TIM_Base_SetConfig+0x66>
 8008972:	690b      	ldr	r3, [r1, #16]
 8008974:	6303      	str	r3, [r0, #48]	; 0x30
 8008976:	2301      	movs	r3, #1
 8008978:	6143      	str	r3, [r0, #20]
 800897a:	bd10      	pop	{r4, pc}
 800897c:	40012c00 	.word	0x40012c00
 8008980:	40014000 	.word	0x40014000

08008984 <HAL_TIM_Base_Init>:
 8008984:	b510      	push	{r4, lr}
 8008986:	4604      	mov	r4, r0
 8008988:	b350      	cbz	r0, 80089e0 <HAL_TIM_Base_Init+0x5c>
 800898a:	f890 303d 	ldrb.w	r3, [r0, #61]	; 0x3d
 800898e:	f003 02ff 	and.w	r2, r3, #255	; 0xff
 8008992:	b91b      	cbnz	r3, 800899c <HAL_TIM_Base_Init+0x18>
 8008994:	f880 203c 	strb.w	r2, [r0, #60]	; 0x3c
 8008998:	f7fc fff4 	bl	8005984 <HAL_TIM_Base_MspInit>
 800899c:	2302      	movs	r3, #2
 800899e:	6820      	ldr	r0, [r4, #0]
 80089a0:	f884 303d 	strb.w	r3, [r4, #61]	; 0x3d
 80089a4:	1d21      	adds	r1, r4, #4
 80089a6:	f7ff ffb3 	bl	8008910 <TIM_Base_SetConfig>
 80089aa:	2301      	movs	r3, #1
 80089ac:	f884 3048 	strb.w	r3, [r4, #72]	; 0x48
 80089b0:	2000      	movs	r0, #0
 80089b2:	f884 303e 	strb.w	r3, [r4, #62]	; 0x3e
 80089b6:	f884 303f 	strb.w	r3, [r4, #63]	; 0x3f
 80089ba:	f884 3040 	strb.w	r3, [r4, #64]	; 0x40
 80089be:	f884 3041 	strb.w	r3, [r4, #65]	; 0x41
 80089c2:	f884 3042 	strb.w	r3, [r4, #66]	; 0x42
 80089c6:	f884 3043 	strb.w	r3, [r4, #67]	; 0x43
 80089ca:	f884 3044 	strb.w	r3, [r4, #68]	; 0x44
 80089ce:	f884 3045 	strb.w	r3, [r4, #69]	; 0x45
 80089d2:	f884 3046 	strb.w	r3, [r4, #70]	; 0x46
 80089d6:	f884 3047 	strb.w	r3, [r4, #71]	; 0x47
 80089da:	f884 303d 	strb.w	r3, [r4, #61]	; 0x3d
 80089de:	bd10      	pop	{r4, pc}
 80089e0:	2001      	movs	r0, #1
 80089e2:	e7fc      	b.n	80089de <HAL_TIM_Base_Init+0x5a>

080089e4 <HAL_TIM_PWM_Init>:
 80089e4:	b510      	push	{r4, lr}
 80089e6:	4604      	mov	r4, r0
 80089e8:	b350      	cbz	r0, 8008a40 <HAL_TIM_PWM_Init+0x5c>
 80089ea:	f890 303d 	ldrb.w	r3, [r0, #61]	; 0x3d
 80089ee:	f003 02ff 	and.w	r2, r3, #255	; 0xff
 80089f2:	b91b      	cbnz	r3, 80089fc <HAL_TIM_PWM_Init+0x18>
 80089f4:	f880 203c 	strb.w	r2, [r0, #60]	; 0x3c
 80089f8:	f7ff fed4 	bl	80087a4 <HAL_TIM_PWM_MspInit>
 80089fc:	2302      	movs	r3, #2
 80089fe:	6820      	ldr	r0, [r4, #0]
 8008a00:	f884 303d 	strb.w	r3, [r4, #61]	; 0x3d
 8008a04:	1d21      	adds	r1, r4, #4
 8008a06:	f7ff ff83 	bl	8008910 <TIM_Base_SetConfig>
 8008a0a:	2301      	movs	r3, #1
 8008a0c:	f884 3048 	strb.w	r3, [r4, #72]	; 0x48
 8008a10:	2000      	movs	r0, #0
 8008a12:	f884 303e 	strb.w	r3, [r4, #62]	; 0x3e
 8008a16:	f884 303f 	strb.w	r3, [r4, #63]	; 0x3f
 8008a1a:	f884 3040 	strb.w	r3, [r4, #64]	; 0x40
 8008a1e:	f884 3041 	strb.w	r3, [r4, #65]	; 0x41
 8008a22:	f884 3042 	strb.w	r3, [r4, #66]	; 0x42
 8008a26:	f884 3043 	strb.w	r3, [r4, #67]	; 0x43
 8008a2a:	f884 3044 	strb.w	r3, [r4, #68]	; 0x44
 8008a2e:	f884 3045 	strb.w	r3, [r4, #69]	; 0x45
 8008a32:	f884 3046 	strb.w	r3, [r4, #70]	; 0x46
 8008a36:	f884 3047 	strb.w	r3, [r4, #71]	; 0x47
 8008a3a:	f884 303d 	strb.w	r3, [r4, #61]	; 0x3d
 8008a3e:	bd10      	pop	{r4, pc}
 8008a40:	2001      	movs	r0, #1
 8008a42:	e7fc      	b.n	8008a3e <HAL_TIM_PWM_Init+0x5a>

08008a44 <TIM_OC2_SetConfig>:
 8008a44:	6a03      	ldr	r3, [r0, #32]
 8008a46:	f023 0310 	bic.w	r3, r3, #16
 8008a4a:	6203      	str	r3, [r0, #32]
 8008a4c:	6a03      	ldr	r3, [r0, #32]
 8008a4e:	6842      	ldr	r2, [r0, #4]
 8008a50:	b570      	push	{r4, r5, r6, lr}
 8008a52:	6984      	ldr	r4, [r0, #24]
 8008a54:	680d      	ldr	r5, [r1, #0]
 8008a56:	f024 7480 	bic.w	r4, r4, #16777216	; 0x1000000
 8008a5a:	f424 44e6 	bic.w	r4, r4, #29440	; 0x7300
 8008a5e:	ea44 2405 	orr.w	r4, r4, r5, lsl #8
 8008a62:	688d      	ldr	r5, [r1, #8]
 8008a64:	f023 0320 	bic.w	r3, r3, #32
 8008a68:	ea43 1305 	orr.w	r3, r3, r5, lsl #4
 8008a6c:	4d0e      	ldr	r5, [pc, #56]	; (8008aa8 <TIM_OC2_SetConfig+0x64>)
 8008a6e:	42a8      	cmp	r0, r5
 8008a70:	d10e      	bne.n	8008a90 <TIM_OC2_SetConfig+0x4c>
 8008a72:	68cd      	ldr	r5, [r1, #12]
 8008a74:	f023 0380 	bic.w	r3, r3, #128	; 0x80
 8008a78:	ea43 1305 	orr.w	r3, r3, r5, lsl #4
 8008a7c:	f023 0340 	bic.w	r3, r3, #64	; 0x40
 8008a80:	e9d1 5605 	ldrd	r5, r6, [r1, #20]
 8008a84:	f422 6240 	bic.w	r2, r2, #3072	; 0xc00
 8008a88:	4335      	orrs	r5, r6
 8008a8a:	ea42 0285 	orr.w	r2, r2, r5, lsl #2
 8008a8e:	e005      	b.n	8008a9c <TIM_OC2_SetConfig+0x58>
 8008a90:	4d06      	ldr	r5, [pc, #24]	; (8008aac <TIM_OC2_SetConfig+0x68>)
 8008a92:	42a8      	cmp	r0, r5
 8008a94:	d0f4      	beq.n	8008a80 <TIM_OC2_SetConfig+0x3c>
 8008a96:	4d06      	ldr	r5, [pc, #24]	; (8008ab0 <TIM_OC2_SetConfig+0x6c>)
 8008a98:	42a8      	cmp	r0, r5
 8008a9a:	d0f1      	beq.n	8008a80 <TIM_OC2_SetConfig+0x3c>
 8008a9c:	6042      	str	r2, [r0, #4]
 8008a9e:	684a      	ldr	r2, [r1, #4]
 8008aa0:	6184      	str	r4, [r0, #24]
 8008aa2:	6382      	str	r2, [r0, #56]	; 0x38
 8008aa4:	6203      	str	r3, [r0, #32]
 8008aa6:	bd70      	pop	{r4, r5, r6, pc}
 8008aa8:	40012c00 	.word	0x40012c00
 8008aac:	40014000 	.word	0x40014000
 8008ab0:	40014400 	.word	0x40014400

08008ab4 <HAL_TIM_PWM_ConfigChannel>:
 8008ab4:	b538      	push	{r3, r4, r5, lr}
 8008ab6:	f890 303c 	ldrb.w	r3, [r0, #60]	; 0x3c
 8008aba:	2b01      	cmp	r3, #1
 8008abc:	4604      	mov	r4, r0
 8008abe:	d078      	beq.n	8008bb2 <HAL_TIM_PWM_ConfigChannel+0xfe>
 8008ac0:	2301      	movs	r3, #1
 8008ac2:	2a0c      	cmp	r2, #12
 8008ac4:	f880 303c 	strb.w	r3, [r0, #60]	; 0x3c
 8008ac8:	d051      	beq.n	8008b6e <HAL_TIM_PWM_ConfigChannel+0xba>
 8008aca:	d808      	bhi.n	8008ade <HAL_TIM_PWM_ConfigChannel+0x2a>
 8008acc:	2a04      	cmp	r2, #4
 8008ace:	d02c      	beq.n	8008b2a <HAL_TIM_PWM_ConfigChannel+0x76>
 8008ad0:	2a08      	cmp	r2, #8
 8008ad2:	d03b      	beq.n	8008b4c <HAL_TIM_PWM_ConfigChannel+0x98>
 8008ad4:	b1c2      	cbz	r2, 8008b08 <HAL_TIM_PWM_ConfigChannel+0x54>
 8008ad6:	2000      	movs	r0, #0
 8008ad8:	f884 003c 	strb.w	r0, [r4, #60]	; 0x3c
 8008adc:	bd38      	pop	{r3, r4, r5, pc}
 8008ade:	2a10      	cmp	r2, #16
 8008ae0:	d056      	beq.n	8008b90 <HAL_TIM_PWM_ConfigChannel+0xdc>
 8008ae2:	2a14      	cmp	r2, #20
 8008ae4:	d1f7      	bne.n	8008ad6 <HAL_TIM_PWM_ConfigChannel+0x22>
 8008ae6:	6800      	ldr	r0, [r0, #0]
 8008ae8:	f7ff fe06 	bl	80086f8 <TIM_OC6_SetConfig>
 8008aec:	6823      	ldr	r3, [r4, #0]
 8008aee:	6909      	ldr	r1, [r1, #16]
 8008af0:	6d5a      	ldr	r2, [r3, #84]	; 0x54
 8008af2:	f442 6200 	orr.w	r2, r2, #2048	; 0x800
 8008af6:	655a      	str	r2, [r3, #84]	; 0x54
 8008af8:	6d5a      	ldr	r2, [r3, #84]	; 0x54
 8008afa:	f422 6280 	bic.w	r2, r2, #1024	; 0x400
 8008afe:	655a      	str	r2, [r3, #84]	; 0x54
 8008b00:	6d5a      	ldr	r2, [r3, #84]	; 0x54
 8008b02:	ea42 2201 	orr.w	r2, r2, r1, lsl #8
 8008b06:	e052      	b.n	8008bae <HAL_TIM_PWM_ConfigChannel+0xfa>
 8008b08:	6800      	ldr	r0, [r0, #0]
 8008b0a:	f7ff fd29 	bl	8008560 <TIM_OC1_SetConfig>
 8008b0e:	6823      	ldr	r3, [r4, #0]
 8008b10:	6909      	ldr	r1, [r1, #16]
 8008b12:	699a      	ldr	r2, [r3, #24]
 8008b14:	f042 0208 	orr.w	r2, r2, #8
 8008b18:	619a      	str	r2, [r3, #24]
 8008b1a:	699a      	ldr	r2, [r3, #24]
 8008b1c:	f022 0204 	bic.w	r2, r2, #4
 8008b20:	619a      	str	r2, [r3, #24]
 8008b22:	699a      	ldr	r2, [r3, #24]
 8008b24:	430a      	orrs	r2, r1
 8008b26:	619a      	str	r2, [r3, #24]
 8008b28:	e7d5      	b.n	8008ad6 <HAL_TIM_PWM_ConfigChannel+0x22>
 8008b2a:	6800      	ldr	r0, [r0, #0]
 8008b2c:	f7ff ff8a 	bl	8008a44 <TIM_OC2_SetConfig>
 8008b30:	6823      	ldr	r3, [r4, #0]
 8008b32:	6909      	ldr	r1, [r1, #16]
 8008b34:	699a      	ldr	r2, [r3, #24]
 8008b36:	f442 6200 	orr.w	r2, r2, #2048	; 0x800
 8008b3a:	619a      	str	r2, [r3, #24]
 8008b3c:	699a      	ldr	r2, [r3, #24]
 8008b3e:	f422 6280 	bic.w	r2, r2, #1024	; 0x400
 8008b42:	619a      	str	r2, [r3, #24]
 8008b44:	699a      	ldr	r2, [r3, #24]
 8008b46:	ea42 2201 	orr.w	r2, r2, r1, lsl #8
 8008b4a:	e7ec      	b.n	8008b26 <HAL_TIM_PWM_ConfigChannel+0x72>
 8008b4c:	6800      	ldr	r0, [r0, #0]
 8008b4e:	f7ff fd43 	bl	80085d8 <TIM_OC3_SetConfig>
 8008b52:	6823      	ldr	r3, [r4, #0]
 8008b54:	6909      	ldr	r1, [r1, #16]
 8008b56:	69da      	ldr	r2, [r3, #28]
 8008b58:	f042 0208 	orr.w	r2, r2, #8
 8008b5c:	61da      	str	r2, [r3, #28]
 8008b5e:	69da      	ldr	r2, [r3, #28]
 8008b60:	f022 0204 	bic.w	r2, r2, #4
 8008b64:	61da      	str	r2, [r3, #28]
 8008b66:	69da      	ldr	r2, [r3, #28]
 8008b68:	430a      	orrs	r2, r1
 8008b6a:	61da      	str	r2, [r3, #28]
 8008b6c:	e7b3      	b.n	8008ad6 <HAL_TIM_PWM_ConfigChannel+0x22>
 8008b6e:	6800      	ldr	r0, [r0, #0]
 8008b70:	f7ff fd6a 	bl	8008648 <TIM_OC4_SetConfig>
 8008b74:	6823      	ldr	r3, [r4, #0]
 8008b76:	6909      	ldr	r1, [r1, #16]
 8008b78:	69da      	ldr	r2, [r3, #28]
 8008b7a:	f442 6200 	orr.w	r2, r2, #2048	; 0x800
 8008b7e:	61da      	str	r2, [r3, #28]
 8008b80:	69da      	ldr	r2, [r3, #28]
 8008b82:	f422 6280 	bic.w	r2, r2, #1024	; 0x400
 8008b86:	61da      	str	r2, [r3, #28]
 8008b88:	69da      	ldr	r2, [r3, #28]
 8008b8a:	ea42 2201 	orr.w	r2, r2, r1, lsl #8
 8008b8e:	e7ec      	b.n	8008b6a <HAL_TIM_PWM_ConfigChannel+0xb6>
 8008b90:	6800      	ldr	r0, [r0, #0]
 8008b92:	f7ff fd85 	bl	80086a0 <TIM_OC5_SetConfig>
 8008b96:	6823      	ldr	r3, [r4, #0]
 8008b98:	6909      	ldr	r1, [r1, #16]
 8008b9a:	6d5a      	ldr	r2, [r3, #84]	; 0x54
 8008b9c:	f042 0208 	orr.w	r2, r2, #8
 8008ba0:	655a      	str	r2, [r3, #84]	; 0x54
 8008ba2:	6d5a      	ldr	r2, [r3, #84]	; 0x54
 8008ba4:	f022 0204 	bic.w	r2, r2, #4
 8008ba8:	655a      	str	r2, [r3, #84]	; 0x54
 8008baa:	6d5a      	ldr	r2, [r3, #84]	; 0x54
 8008bac:	430a      	orrs	r2, r1
 8008bae:	655a      	str	r2, [r3, #84]	; 0x54
 8008bb0:	e791      	b.n	8008ad6 <HAL_TIM_PWM_ConfigChannel+0x22>
 8008bb2:	2002      	movs	r0, #2
 8008bb4:	e792      	b.n	8008adc <HAL_TIM_PWM_ConfigChannel+0x28>

08008bb6 <TIM_CCxChannelCmd>:
 8008bb6:	6a03      	ldr	r3, [r0, #32]
 8008bb8:	f001 011f 	and.w	r1, r1, #31
 8008bbc:	b510      	push	{r4, lr}
 8008bbe:	2401      	movs	r4, #1
 8008bc0:	408c      	lsls	r4, r1
 8008bc2:	ea23 0304 	bic.w	r3, r3, r4
 8008bc6:	6203      	str	r3, [r0, #32]
 8008bc8:	6a03      	ldr	r3, [r0, #32]
 8008bca:	408a      	lsls	r2, r1
 8008bcc:	431a      	orrs	r2, r3
 8008bce:	6202      	str	r2, [r0, #32]
 8008bd0:	bd10      	pop	{r4, pc}
	...

08008bd4 <HAL_TIM_OC_Start>:
 8008bd4:	b510      	push	{r4, lr}
 8008bd6:	4604      	mov	r4, r0
 8008bd8:	b929      	cbnz	r1, 8008be6 <HAL_TIM_OC_Start+0x12>
 8008bda:	f890 303e 	ldrb.w	r3, [r0, #62]	; 0x3e
 8008bde:	2b01      	cmp	r3, #1
 8008be0:	d031      	beq.n	8008c46 <HAL_TIM_OC_Start+0x72>
 8008be2:	2001      	movs	r0, #1
 8008be4:	bd10      	pop	{r4, pc}
 8008be6:	2904      	cmp	r1, #4
 8008be8:	d107      	bne.n	8008bfa <HAL_TIM_OC_Start+0x26>
 8008bea:	f890 303f 	ldrb.w	r3, [r0, #63]	; 0x3f
 8008bee:	2b01      	cmp	r3, #1
 8008bf0:	d1f7      	bne.n	8008be2 <HAL_TIM_OC_Start+0xe>
 8008bf2:	2302      	movs	r3, #2
 8008bf4:	f880 303f 	strb.w	r3, [r0, #63]	; 0x3f
 8008bf8:	e028      	b.n	8008c4c <HAL_TIM_OC_Start+0x78>
 8008bfa:	2908      	cmp	r1, #8
 8008bfc:	d107      	bne.n	8008c0e <HAL_TIM_OC_Start+0x3a>
 8008bfe:	f890 3040 	ldrb.w	r3, [r0, #64]	; 0x40
 8008c02:	2b01      	cmp	r3, #1
 8008c04:	d1ed      	bne.n	8008be2 <HAL_TIM_OC_Start+0xe>
 8008c06:	2302      	movs	r3, #2
 8008c08:	f880 3040 	strb.w	r3, [r0, #64]	; 0x40
 8008c0c:	e01e      	b.n	8008c4c <HAL_TIM_OC_Start+0x78>
 8008c0e:	290c      	cmp	r1, #12
 8008c10:	d107      	bne.n	8008c22 <HAL_TIM_OC_Start+0x4e>
 8008c12:	f890 3041 	ldrb.w	r3, [r0, #65]	; 0x41
 8008c16:	2b01      	cmp	r3, #1
 8008c18:	d1e3      	bne.n	8008be2 <HAL_TIM_OC_Start+0xe>
 8008c1a:	2302      	movs	r3, #2
 8008c1c:	f880 3041 	strb.w	r3, [r0, #65]	; 0x41
 8008c20:	e014      	b.n	8008c4c <HAL_TIM_OC_Start+0x78>
 8008c22:	2910      	cmp	r1, #16
 8008c24:	d107      	bne.n	8008c36 <HAL_TIM_OC_Start+0x62>
 8008c26:	f890 3042 	ldrb.w	r3, [r0, #66]	; 0x42
 8008c2a:	2b01      	cmp	r3, #1
 8008c2c:	d1d9      	bne.n	8008be2 <HAL_TIM_OC_Start+0xe>
 8008c2e:	2302      	movs	r3, #2
 8008c30:	f880 3042 	strb.w	r3, [r0, #66]	; 0x42
 8008c34:	e00a      	b.n	8008c4c <HAL_TIM_OC_Start+0x78>
 8008c36:	f890 3043 	ldrb.w	r3, [r0, #67]	; 0x43
 8008c3a:	2b01      	cmp	r3, #1
 8008c3c:	d1d1      	bne.n	8008be2 <HAL_TIM_OC_Start+0xe>
 8008c3e:	2302      	movs	r3, #2
 8008c40:	f880 3043 	strb.w	r3, [r0, #67]	; 0x43
 8008c44:	e002      	b.n	8008c4c <HAL_TIM_OC_Start+0x78>
 8008c46:	2302      	movs	r3, #2
 8008c48:	f880 303e 	strb.w	r3, [r0, #62]	; 0x3e
 8008c4c:	2201      	movs	r2, #1
 8008c4e:	6820      	ldr	r0, [r4, #0]
 8008c50:	f7ff ffb1 	bl	8008bb6 <TIM_CCxChannelCmd>
 8008c54:	6823      	ldr	r3, [r4, #0]
 8008c56:	4a14      	ldr	r2, [pc, #80]	; (8008ca8 <HAL_TIM_OC_Start+0xd4>)
 8008c58:	4293      	cmp	r3, r2
 8008c5a:	d006      	beq.n	8008c6a <HAL_TIM_OC_Start+0x96>
 8008c5c:	4913      	ldr	r1, [pc, #76]	; (8008cac <HAL_TIM_OC_Start+0xd8>)
 8008c5e:	428b      	cmp	r3, r1
 8008c60:	d003      	beq.n	8008c6a <HAL_TIM_OC_Start+0x96>
 8008c62:	f501 6180 	add.w	r1, r1, #1024	; 0x400
 8008c66:	428b      	cmp	r3, r1
 8008c68:	d11b      	bne.n	8008ca2 <HAL_TIM_OC_Start+0xce>
 8008c6a:	6c59      	ldr	r1, [r3, #68]	; 0x44
 8008c6c:	4293      	cmp	r3, r2
 8008c6e:	f441 4100 	orr.w	r1, r1, #32768	; 0x8000
 8008c72:	6459      	str	r1, [r3, #68]	; 0x44
 8008c74:	d106      	bne.n	8008c84 <HAL_TIM_OC_Start+0xb0>
 8008c76:	6899      	ldr	r1, [r3, #8]
 8008c78:	4a0d      	ldr	r2, [pc, #52]	; (8008cb0 <HAL_TIM_OC_Start+0xdc>)
 8008c7a:	400a      	ands	r2, r1
 8008c7c:	2a06      	cmp	r2, #6
 8008c7e:	d108      	bne.n	8008c92 <HAL_TIM_OC_Start+0xbe>
 8008c80:	2000      	movs	r0, #0
 8008c82:	e7af      	b.n	8008be4 <HAL_TIM_OC_Start+0x10>
 8008c84:	f1b3 4f80 	cmp.w	r3, #1073741824	; 0x40000000
 8008c88:	d0f5      	beq.n	8008c76 <HAL_TIM_OC_Start+0xa2>
 8008c8a:	4a08      	ldr	r2, [pc, #32]	; (8008cac <HAL_TIM_OC_Start+0xd8>)
 8008c8c:	4293      	cmp	r3, r2
 8008c8e:	d103      	bne.n	8008c98 <HAL_TIM_OC_Start+0xc4>
 8008c90:	e7f1      	b.n	8008c76 <HAL_TIM_OC_Start+0xa2>
 8008c92:	f5b2 3f80 	cmp.w	r2, #65536	; 0x10000
 8008c96:	d0f3      	beq.n	8008c80 <HAL_TIM_OC_Start+0xac>
 8008c98:	681a      	ldr	r2, [r3, #0]
 8008c9a:	f042 0201 	orr.w	r2, r2, #1
 8008c9e:	601a      	str	r2, [r3, #0]
 8008ca0:	e7ee      	b.n	8008c80 <HAL_TIM_OC_Start+0xac>
 8008ca2:	f1b3 4f80 	cmp.w	r3, #1073741824	; 0x40000000
 8008ca6:	e7f2      	b.n	8008c8e <HAL_TIM_OC_Start+0xba>
 8008ca8:	40012c00 	.word	0x40012c00
 8008cac:	40014000 	.word	0x40014000
 8008cb0:	00010007 	.word	0x00010007

08008cb4 <HAL_TIM_PWM_Start>:
 8008cb4:	f7ff bf8e 	b.w	8008bd4 <HAL_TIM_OC_Start>

08008cb8 <HAL_TIM_OC_Stop>:
 8008cb8:	b538      	push	{r3, r4, r5, lr}
 8008cba:	4604      	mov	r4, r0
 8008cbc:	2200      	movs	r2, #0
 8008cbe:	6800      	ldr	r0, [r0, #0]
 8008cc0:	460d      	mov	r5, r1
 8008cc2:	f7ff ff78 	bl	8008bb6 <TIM_CCxChannelCmd>
 8008cc6:	6823      	ldr	r3, [r4, #0]
 8008cc8:	4a21      	ldr	r2, [pc, #132]	; (8008d50 <HAL_TIM_OC_Stop+0x98>)
 8008cca:	4293      	cmp	r3, r2
 8008ccc:	d007      	beq.n	8008cde <HAL_TIM_OC_Stop+0x26>
 8008cce:	f502 52a0 	add.w	r2, r2, #5120	; 0x1400
 8008cd2:	4293      	cmp	r3, r2
 8008cd4:	d003      	beq.n	8008cde <HAL_TIM_OC_Stop+0x26>
 8008cd6:	f502 6280 	add.w	r2, r2, #1024	; 0x400
 8008cda:	4293      	cmp	r3, r2
 8008cdc:	d10d      	bne.n	8008cfa <HAL_TIM_OC_Stop+0x42>
 8008cde:	6a19      	ldr	r1, [r3, #32]
 8008ce0:	f241 1211 	movw	r2, #4369	; 0x1111
 8008ce4:	4211      	tst	r1, r2
 8008ce6:	d108      	bne.n	8008cfa <HAL_TIM_OC_Stop+0x42>
 8008ce8:	6a19      	ldr	r1, [r3, #32]
 8008cea:	f240 4244 	movw	r2, #1092	; 0x444
 8008cee:	4211      	tst	r1, r2
 8008cf0:	bf02      	ittt	eq
 8008cf2:	6c5a      	ldreq	r2, [r3, #68]	; 0x44
 8008cf4:	f422 4200 	biceq.w	r2, r2, #32768	; 0x8000
 8008cf8:	645a      	streq	r2, [r3, #68]	; 0x44
 8008cfa:	6a19      	ldr	r1, [r3, #32]
 8008cfc:	f241 1211 	movw	r2, #4369	; 0x1111
 8008d00:	4211      	tst	r1, r2
 8008d02:	d108      	bne.n	8008d16 <HAL_TIM_OC_Stop+0x5e>
 8008d04:	6a19      	ldr	r1, [r3, #32]
 8008d06:	f240 4244 	movw	r2, #1092	; 0x444
 8008d0a:	4211      	tst	r1, r2
 8008d0c:	bf02      	ittt	eq
 8008d0e:	681a      	ldreq	r2, [r3, #0]
 8008d10:	f022 0201 	biceq.w	r2, r2, #1
 8008d14:	601a      	streq	r2, [r3, #0]
 8008d16:	2301      	movs	r3, #1
 8008d18:	b91d      	cbnz	r5, 8008d22 <HAL_TIM_OC_Stop+0x6a>
 8008d1a:	f884 303e 	strb.w	r3, [r4, #62]	; 0x3e
 8008d1e:	2000      	movs	r0, #0
 8008d20:	bd38      	pop	{r3, r4, r5, pc}
 8008d22:	2d04      	cmp	r5, #4
 8008d24:	d102      	bne.n	8008d2c <HAL_TIM_OC_Stop+0x74>
 8008d26:	f884 303f 	strb.w	r3, [r4, #63]	; 0x3f
 8008d2a:	e7f8      	b.n	8008d1e <HAL_TIM_OC_Stop+0x66>
 8008d2c:	2d08      	cmp	r5, #8
 8008d2e:	d102      	bne.n	8008d36 <HAL_TIM_OC_Stop+0x7e>
 8008d30:	f884 3040 	strb.w	r3, [r4, #64]	; 0x40
 8008d34:	e7f3      	b.n	8008d1e <HAL_TIM_OC_Stop+0x66>
 8008d36:	2d0c      	cmp	r5, #12
 8008d38:	d102      	bne.n	8008d40 <HAL_TIM_OC_Stop+0x88>
 8008d3a:	f884 3041 	strb.w	r3, [r4, #65]	; 0x41
 8008d3e:	e7ee      	b.n	8008d1e <HAL_TIM_OC_Stop+0x66>
 8008d40:	2d10      	cmp	r5, #16
 8008d42:	bf0c      	ite	eq
 8008d44:	f884 3042 	strbeq.w	r3, [r4, #66]	; 0x42
 8008d48:	f884 3043 	strbne.w	r3, [r4, #67]	; 0x43
 8008d4c:	e7e7      	b.n	8008d1e <HAL_TIM_OC_Stop+0x66>
 8008d4e:	bf00      	nop
 8008d50:	40012c00 	.word	0x40012c00

08008d54 <HAL_TIM_PWM_Stop>:
 8008d54:	f7ff bfb0 	b.w	8008cb8 <HAL_TIM_OC_Stop>

08008d58 <HAL_TIMEx_MasterConfigSynchronization>:
 8008d58:	b570      	push	{r4, r5, r6, lr}
 8008d5a:	f890 303c 	ldrb.w	r3, [r0, #60]	; 0x3c
 8008d5e:	2b01      	cmp	r3, #1
 8008d60:	f04f 0302 	mov.w	r3, #2
 8008d64:	d023      	beq.n	8008dae <HAL_TIMEx_MasterConfigSynchronization+0x56>
 8008d66:	6802      	ldr	r2, [r0, #0]
 8008d68:	4d12      	ldr	r5, [pc, #72]	; (8008db4 <HAL_TIMEx_MasterConfigSynchronization+0x5c>)
 8008d6a:	f880 303d 	strb.w	r3, [r0, #61]	; 0x3d
 8008d6e:	6853      	ldr	r3, [r2, #4]
 8008d70:	6894      	ldr	r4, [r2, #8]
 8008d72:	42aa      	cmp	r2, r5
 8008d74:	bf02      	ittt	eq
 8008d76:	684e      	ldreq	r6, [r1, #4]
 8008d78:	f423 0370 	biceq.w	r3, r3, #15728640	; 0xf00000
 8008d7c:	4333      	orreq	r3, r6
 8008d7e:	680e      	ldr	r6, [r1, #0]
 8008d80:	f023 0370 	bic.w	r3, r3, #112	; 0x70
 8008d84:	4333      	orrs	r3, r6
 8008d86:	42aa      	cmp	r2, r5
 8008d88:	6053      	str	r3, [r2, #4]
 8008d8a:	d005      	beq.n	8008d98 <HAL_TIMEx_MasterConfigSynchronization+0x40>
 8008d8c:	f1b2 4f80 	cmp.w	r2, #1073741824	; 0x40000000
 8008d90:	d002      	beq.n	8008d98 <HAL_TIMEx_MasterConfigSynchronization+0x40>
 8008d92:	4b09      	ldr	r3, [pc, #36]	; (8008db8 <HAL_TIMEx_MasterConfigSynchronization+0x60>)
 8008d94:	429a      	cmp	r2, r3
 8008d96:	d104      	bne.n	8008da2 <HAL_TIMEx_MasterConfigSynchronization+0x4a>
 8008d98:	6889      	ldr	r1, [r1, #8]
 8008d9a:	f024 0380 	bic.w	r3, r4, #128	; 0x80
 8008d9e:	430b      	orrs	r3, r1
 8008da0:	6093      	str	r3, [r2, #8]
 8008da2:	2301      	movs	r3, #1
 8008da4:	f880 303d 	strb.w	r3, [r0, #61]	; 0x3d
 8008da8:	2300      	movs	r3, #0
 8008daa:	f880 303c 	strb.w	r3, [r0, #60]	; 0x3c
 8008dae:	4618      	mov	r0, r3
 8008db0:	bd70      	pop	{r4, r5, r6, pc}
 8008db2:	bf00      	nop
 8008db4:	40012c00 	.word	0x40012c00
 8008db8:	40014000 	.word	0x40014000

08008dbc <HAL_TIMEx_ConfigBreakDeadTime>:
 8008dbc:	b510      	push	{r4, lr}
 8008dbe:	f890 303c 	ldrb.w	r3, [r0, #60]	; 0x3c
 8008dc2:	2b01      	cmp	r3, #1
 8008dc4:	d034      	beq.n	8008e30 <HAL_TIMEx_ConfigBreakDeadTime+0x74>
 8008dc6:	68cb      	ldr	r3, [r1, #12]
 8008dc8:	688a      	ldr	r2, [r1, #8]
 8008dca:	4c1a      	ldr	r4, [pc, #104]	; (8008e34 <HAL_TIMEx_ConfigBreakDeadTime+0x78>)
 8008dcc:	f423 7340 	bic.w	r3, r3, #768	; 0x300
 8008dd0:	4313      	orrs	r3, r2
 8008dd2:	684a      	ldr	r2, [r1, #4]
 8008dd4:	f423 6380 	bic.w	r3, r3, #1024	; 0x400
 8008dd8:	4313      	orrs	r3, r2
 8008dda:	680a      	ldr	r2, [r1, #0]
 8008ddc:	f423 6300 	bic.w	r3, r3, #2048	; 0x800
 8008de0:	4313      	orrs	r3, r2
 8008de2:	690a      	ldr	r2, [r1, #16]
 8008de4:	f423 5380 	bic.w	r3, r3, #4096	; 0x1000
 8008de8:	4313      	orrs	r3, r2
 8008dea:	694a      	ldr	r2, [r1, #20]
 8008dec:	f423 5300 	bic.w	r3, r3, #8192	; 0x2000
 8008df0:	4313      	orrs	r3, r2
 8008df2:	6a8a      	ldr	r2, [r1, #40]	; 0x28
 8008df4:	f423 4380 	bic.w	r3, r3, #16384	; 0x4000
 8008df8:	4313      	orrs	r3, r2
 8008dfa:	698a      	ldr	r2, [r1, #24]
 8008dfc:	f423 2370 	bic.w	r3, r3, #983040	; 0xf0000
 8008e00:	ea43 4302 	orr.w	r3, r3, r2, lsl #16
 8008e04:	6802      	ldr	r2, [r0, #0]
 8008e06:	42a2      	cmp	r2, r4
 8008e08:	d10c      	bne.n	8008e24 <HAL_TIMEx_ConfigBreakDeadTime+0x68>
 8008e0a:	6a4c      	ldr	r4, [r1, #36]	; 0x24
 8008e0c:	f423 0370 	bic.w	r3, r3, #15728640	; 0xf00000
 8008e10:	ea43 5304 	orr.w	r3, r3, r4, lsl #20
 8008e14:	69cc      	ldr	r4, [r1, #28]
 8008e16:	6a09      	ldr	r1, [r1, #32]
 8008e18:	f023 7380 	bic.w	r3, r3, #16777216	; 0x1000000
 8008e1c:	4323      	orrs	r3, r4
 8008e1e:	f023 7300 	bic.w	r3, r3, #33554432	; 0x2000000
 8008e22:	430b      	orrs	r3, r1
 8008e24:	6453      	str	r3, [r2, #68]	; 0x44
 8008e26:	2300      	movs	r3, #0
 8008e28:	f880 303c 	strb.w	r3, [r0, #60]	; 0x3c
 8008e2c:	4618      	mov	r0, r3
 8008e2e:	bd10      	pop	{r4, pc}
 8008e30:	2002      	movs	r0, #2
 8008e32:	e7fc      	b.n	8008e2e <HAL_TIMEx_ConfigBreakDeadTime+0x72>
 8008e34:	40012c00 	.word	0x40012c00

08008e38 <HAL_TIMEx_CommutCallback>:
 8008e38:	4770      	bx	lr

08008e3a <HAL_TIMEx_BreakCallback>:
 8008e3a:	4770      	bx	lr

08008e3c <HAL_TIMEx_Break2Callback>:
 8008e3c:	4770      	bx	lr

08008e3e <UART_EndRxTransfer>:
 8008e3e:	6803      	ldr	r3, [r0, #0]
 8008e40:	681a      	ldr	r2, [r3, #0]
 8008e42:	f422 7290 	bic.w	r2, r2, #288	; 0x120
 8008e46:	601a      	str	r2, [r3, #0]
 8008e48:	689a      	ldr	r2, [r3, #8]
 8008e4a:	f022 0201 	bic.w	r2, r2, #1
 8008e4e:	609a      	str	r2, [r3, #8]
 8008e50:	6e02      	ldr	r2, [r0, #96]	; 0x60
 8008e52:	2a01      	cmp	r2, #1
 8008e54:	bf02      	ittt	eq
 8008e56:	681a      	ldreq	r2, [r3, #0]
 8008e58:	f022 0210 	biceq.w	r2, r2, #16
 8008e5c:	601a      	streq	r2, [r3, #0]
 8008e5e:	2320      	movs	r3, #32
 8008e60:	67c3      	str	r3, [r0, #124]	; 0x7c
 8008e62:	2300      	movs	r3, #0
 8008e64:	6603      	str	r3, [r0, #96]	; 0x60
 8008e66:	6643      	str	r3, [r0, #100]	; 0x64
 8008e68:	4770      	bx	lr

08008e6a <UART_TxISR_8BIT>:
 8008e6a:	6f83      	ldr	r3, [r0, #120]	; 0x78
 8008e6c:	2b21      	cmp	r3, #33	; 0x21
 8008e6e:	d118      	bne.n	8008ea2 <UART_TxISR_8BIT+0x38>
 8008e70:	f8b0 2052 	ldrh.w	r2, [r0, #82]	; 0x52
 8008e74:	6803      	ldr	r3, [r0, #0]
 8008e76:	b292      	uxth	r2, r2
 8008e78:	b942      	cbnz	r2, 8008e8c <UART_TxISR_8BIT+0x22>
 8008e7a:	681a      	ldr	r2, [r3, #0]
 8008e7c:	f022 0280 	bic.w	r2, r2, #128	; 0x80
 8008e80:	601a      	str	r2, [r3, #0]
 8008e82:	681a      	ldr	r2, [r3, #0]
 8008e84:	f042 0240 	orr.w	r2, r2, #64	; 0x40
 8008e88:	601a      	str	r2, [r3, #0]
 8008e8a:	4770      	bx	lr
 8008e8c:	6cc2      	ldr	r2, [r0, #76]	; 0x4c
 8008e8e:	f812 1b01 	ldrb.w	r1, [r2], #1
 8008e92:	8519      	strh	r1, [r3, #40]	; 0x28
 8008e94:	f8b0 3052 	ldrh.w	r3, [r0, #82]	; 0x52
 8008e98:	64c2      	str	r2, [r0, #76]	; 0x4c
 8008e9a:	3b01      	subs	r3, #1
 8008e9c:	b29b      	uxth	r3, r3
 8008e9e:	f8a0 3052 	strh.w	r3, [r0, #82]	; 0x52
 8008ea2:	4770      	bx	lr

08008ea4 <UART_TxISR_16BIT>:
 8008ea4:	6f83      	ldr	r3, [r0, #120]	; 0x78
 8008ea6:	2b21      	cmp	r3, #33	; 0x21
 8008ea8:	d11a      	bne.n	8008ee0 <UART_TxISR_16BIT+0x3c>
 8008eaa:	f8b0 2052 	ldrh.w	r2, [r0, #82]	; 0x52
 8008eae:	6803      	ldr	r3, [r0, #0]
 8008eb0:	b292      	uxth	r2, r2
 8008eb2:	b942      	cbnz	r2, 8008ec6 <UART_TxISR_16BIT+0x22>
 8008eb4:	681a      	ldr	r2, [r3, #0]
 8008eb6:	f022 0280 	bic.w	r2, r2, #128	; 0x80
 8008eba:	601a      	str	r2, [r3, #0]
 8008ebc:	681a      	ldr	r2, [r3, #0]
 8008ebe:	f042 0240 	orr.w	r2, r2, #64	; 0x40
 8008ec2:	601a      	str	r2, [r3, #0]
 8008ec4:	4770      	bx	lr
 8008ec6:	6cc2      	ldr	r2, [r0, #76]	; 0x4c
 8008ec8:	f832 1b02 	ldrh.w	r1, [r2], #2
 8008ecc:	f3c1 0108 	ubfx	r1, r1, #0, #9
 8008ed0:	8519      	strh	r1, [r3, #40]	; 0x28
 8008ed2:	f8b0 3052 	ldrh.w	r3, [r0, #82]	; 0x52
 8008ed6:	64c2      	str	r2, [r0, #76]	; 0x4c
 8008ed8:	3b01      	subs	r3, #1
 8008eda:	b29b      	uxth	r3, r3
 8008edc:	f8a0 3052 	strh.w	r3, [r0, #82]	; 0x52
 8008ee0:	4770      	bx	lr
	...

08008ee4 <HAL_UART_Transmit_IT>:
 8008ee4:	6f83      	ldr	r3, [r0, #120]	; 0x78
 8008ee6:	2b20      	cmp	r3, #32
 8008ee8:	d128      	bne.n	8008f3c <HAL_UART_Transmit_IT+0x58>
 8008eea:	b329      	cbz	r1, 8008f38 <HAL_UART_Transmit_IT+0x54>
 8008eec:	b322      	cbz	r2, 8008f38 <HAL_UART_Transmit_IT+0x54>
 8008eee:	f890 3074 	ldrb.w	r3, [r0, #116]	; 0x74
 8008ef2:	2b01      	cmp	r3, #1
 8008ef4:	d022      	beq.n	8008f3c <HAL_UART_Transmit_IT+0x58>
 8008ef6:	2300      	movs	r3, #0
 8008ef8:	f8a0 2052 	strh.w	r2, [r0, #82]	; 0x52
 8008efc:	f8c0 3080 	str.w	r3, [r0, #128]	; 0x80
 8008f00:	2321      	movs	r3, #33	; 0x21
 8008f02:	6783      	str	r3, [r0, #120]	; 0x78
 8008f04:	6883      	ldr	r3, [r0, #8]
 8008f06:	64c1      	str	r1, [r0, #76]	; 0x4c
 8008f08:	f5b3 5f80 	cmp.w	r3, #4096	; 0x1000
 8008f0c:	f8a0 2050 	strh.w	r2, [r0, #80]	; 0x50
 8008f10:	d110      	bne.n	8008f34 <HAL_UART_Transmit_IT+0x50>
 8008f12:	6901      	ldr	r1, [r0, #16]
 8008f14:	4b0a      	ldr	r3, [pc, #40]	; (8008f40 <HAL_UART_Transmit_IT+0x5c>)
 8008f16:	4a0b      	ldr	r2, [pc, #44]	; (8008f44 <HAL_UART_Transmit_IT+0x60>)
 8008f18:	2900      	cmp	r1, #0
 8008f1a:	bf08      	it	eq
 8008f1c:	4613      	moveq	r3, r2
 8008f1e:	6801      	ldr	r1, [r0, #0]
 8008f20:	6683      	str	r3, [r0, #104]	; 0x68
 8008f22:	2300      	movs	r3, #0
 8008f24:	f880 3074 	strb.w	r3, [r0, #116]	; 0x74
 8008f28:	680a      	ldr	r2, [r1, #0]
 8008f2a:	f042 0280 	orr.w	r2, r2, #128	; 0x80
 8008f2e:	600a      	str	r2, [r1, #0]
 8008f30:	4618      	mov	r0, r3
 8008f32:	4770      	bx	lr
 8008f34:	4b02      	ldr	r3, [pc, #8]	; (8008f40 <HAL_UART_Transmit_IT+0x5c>)
 8008f36:	e7f2      	b.n	8008f1e <HAL_UART_Transmit_IT+0x3a>
 8008f38:	2001      	movs	r0, #1
 8008f3a:	4770      	bx	lr
 8008f3c:	2002      	movs	r0, #2
 8008f3e:	4770      	bx	lr
 8008f40:	08008e6b 	.word	0x08008e6b
 8008f44:	08008ea5 	.word	0x08008ea5

08008f48 <HAL_UART_TxCpltCallback>:
 8008f48:	4770      	bx	lr

08008f4a <HAL_UART_RxHalfCpltCallback>:
 8008f4a:	4770      	bx	lr

08008f4c <HAL_UART_ErrorCallback>:
 8008f4c:	4770      	bx	lr

08008f4e <UART_DMAError>:
 8008f4e:	6a80      	ldr	r0, [r0, #40]	; 0x28
 8008f50:	6803      	ldr	r3, [r0, #0]
 8008f52:	6f82      	ldr	r2, [r0, #120]	; 0x78
 8008f54:	6fc1      	ldr	r1, [r0, #124]	; 0x7c
 8008f56:	b510      	push	{r4, lr}
 8008f58:	689c      	ldr	r4, [r3, #8]
 8008f5a:	0624      	lsls	r4, r4, #24
 8008f5c:	d50a      	bpl.n	8008f74 <UART_DMAError+0x26>
 8008f5e:	2a21      	cmp	r2, #33	; 0x21
 8008f60:	d108      	bne.n	8008f74 <UART_DMAError+0x26>
 8008f62:	2200      	movs	r2, #0
 8008f64:	f8a0 2052 	strh.w	r2, [r0, #82]	; 0x52
 8008f68:	681a      	ldr	r2, [r3, #0]
 8008f6a:	f022 02c0 	bic.w	r2, r2, #192	; 0xc0
 8008f6e:	601a      	str	r2, [r3, #0]
 8008f70:	2220      	movs	r2, #32
 8008f72:	6782      	str	r2, [r0, #120]	; 0x78
 8008f74:	689b      	ldr	r3, [r3, #8]
 8008f76:	065b      	lsls	r3, r3, #25
 8008f78:	d506      	bpl.n	8008f88 <UART_DMAError+0x3a>
 8008f7a:	2922      	cmp	r1, #34	; 0x22
 8008f7c:	d104      	bne.n	8008f88 <UART_DMAError+0x3a>
 8008f7e:	2300      	movs	r3, #0
 8008f80:	f8a0 305a 	strh.w	r3, [r0, #90]	; 0x5a
 8008f84:	f7ff ff5b 	bl	8008e3e <UART_EndRxTransfer>
 8008f88:	f8d0 3080 	ldr.w	r3, [r0, #128]	; 0x80
 8008f8c:	f043 0310 	orr.w	r3, r3, #16
 8008f90:	f8c0 3080 	str.w	r3, [r0, #128]	; 0x80
 8008f94:	f7ff ffda 	bl	8008f4c <HAL_UART_ErrorCallback>
 8008f98:	bd10      	pop	{r4, pc}

08008f9a <UART_DMAAbortOnError>:
 8008f9a:	b508      	push	{r3, lr}
 8008f9c:	6a80      	ldr	r0, [r0, #40]	; 0x28
 8008f9e:	2300      	movs	r3, #0
 8008fa0:	f8a0 305a 	strh.w	r3, [r0, #90]	; 0x5a
 8008fa4:	f8a0 3052 	strh.w	r3, [r0, #82]	; 0x52
 8008fa8:	f7ff ffd0 	bl	8008f4c <HAL_UART_ErrorCallback>
 8008fac:	bd08      	pop	{r3, pc}

08008fae <HAL_UARTEx_RxEventCallback>:
 8008fae:	4770      	bx	lr

08008fb0 <HAL_UART_IRQHandler>:
 8008fb0:	6803      	ldr	r3, [r0, #0]
 8008fb2:	69da      	ldr	r2, [r3, #28]
 8008fb4:	6819      	ldr	r1, [r3, #0]
 8008fb6:	b570      	push	{r4, r5, r6, lr}
 8008fb8:	f640 060f 	movw	r6, #2063	; 0x80f
 8008fbc:	4232      	tst	r2, r6
 8008fbe:	689d      	ldr	r5, [r3, #8]
 8008fc0:	4604      	mov	r4, r0
 8008fc2:	d109      	bne.n	8008fd8 <HAL_UART_IRQHandler+0x28>
 8008fc4:	0696      	lsls	r6, r2, #26
 8008fc6:	d57d      	bpl.n	80090c4 <HAL_UART_IRQHandler+0x114>
 8008fc8:	068e      	lsls	r6, r1, #26
 8008fca:	d57b      	bpl.n	80090c4 <HAL_UART_IRQHandler+0x114>
 8008fcc:	6e43      	ldr	r3, [r0, #100]	; 0x64
 8008fce:	2b00      	cmp	r3, #0
 8008fd0:	d072      	beq.n	80090b8 <HAL_UART_IRQHandler+0x108>
 8008fd2:	e8bd 4070 	ldmia.w	sp!, {r4, r5, r6, lr}
 8008fd6:	4718      	bx	r3
 8008fd8:	4e7a      	ldr	r6, [pc, #488]	; (80091c4 <HAL_UART_IRQHandler+0x214>)
 8008fda:	f005 0001 	and.w	r0, r5, #1
 8008fde:	400e      	ands	r6, r1
 8008fe0:	4306      	orrs	r6, r0
 8008fe2:	d06f      	beq.n	80090c4 <HAL_UART_IRQHandler+0x114>
 8008fe4:	07d5      	lsls	r5, r2, #31
 8008fe6:	d509      	bpl.n	8008ffc <HAL_UART_IRQHandler+0x4c>
 8008fe8:	05ce      	lsls	r6, r1, #23
 8008fea:	d507      	bpl.n	8008ffc <HAL_UART_IRQHandler+0x4c>
 8008fec:	2501      	movs	r5, #1
 8008fee:	621d      	str	r5, [r3, #32]
 8008ff0:	f8d4 5080 	ldr.w	r5, [r4, #128]	; 0x80
 8008ff4:	f045 0501 	orr.w	r5, r5, #1
 8008ff8:	f8c4 5080 	str.w	r5, [r4, #128]	; 0x80
 8008ffc:	0795      	lsls	r5, r2, #30
 8008ffe:	d508      	bpl.n	8009012 <HAL_UART_IRQHandler+0x62>
 8009000:	b138      	cbz	r0, 8009012 <HAL_UART_IRQHandler+0x62>
 8009002:	2502      	movs	r5, #2
 8009004:	621d      	str	r5, [r3, #32]
 8009006:	f8d4 5080 	ldr.w	r5, [r4, #128]	; 0x80
 800900a:	f045 0504 	orr.w	r5, r5, #4
 800900e:	f8c4 5080 	str.w	r5, [r4, #128]	; 0x80
 8009012:	0756      	lsls	r6, r2, #29
 8009014:	d508      	bpl.n	8009028 <HAL_UART_IRQHandler+0x78>
 8009016:	b138      	cbz	r0, 8009028 <HAL_UART_IRQHandler+0x78>
 8009018:	2504      	movs	r5, #4
 800901a:	621d      	str	r5, [r3, #32]
 800901c:	f8d4 5080 	ldr.w	r5, [r4, #128]	; 0x80
 8009020:	f045 0502 	orr.w	r5, r5, #2
 8009024:	f8c4 5080 	str.w	r5, [r4, #128]	; 0x80
 8009028:	0715      	lsls	r5, r2, #28
 800902a:	d50b      	bpl.n	8009044 <HAL_UART_IRQHandler+0x94>
 800902c:	f001 0520 	and.w	r5, r1, #32
 8009030:	4328      	orrs	r0, r5
 8009032:	d007      	beq.n	8009044 <HAL_UART_IRQHandler+0x94>
 8009034:	2008      	movs	r0, #8
 8009036:	6218      	str	r0, [r3, #32]
 8009038:	f8d4 0080 	ldr.w	r0, [r4, #128]	; 0x80
 800903c:	f040 0008 	orr.w	r0, r0, #8
 8009040:	f8c4 0080 	str.w	r0, [r4, #128]	; 0x80
 8009044:	0516      	lsls	r6, r2, #20
 8009046:	d50a      	bpl.n	800905e <HAL_UART_IRQHandler+0xae>
 8009048:	014d      	lsls	r5, r1, #5
 800904a:	d508      	bpl.n	800905e <HAL_UART_IRQHandler+0xae>
 800904c:	f44f 6000 	mov.w	r0, #2048	; 0x800
 8009050:	6218      	str	r0, [r3, #32]
 8009052:	f8d4 3080 	ldr.w	r3, [r4, #128]	; 0x80
 8009056:	f043 0320 	orr.w	r3, r3, #32
 800905a:	f8c4 3080 	str.w	r3, [r4, #128]	; 0x80
 800905e:	f8d4 3080 	ldr.w	r3, [r4, #128]	; 0x80
 8009062:	b34b      	cbz	r3, 80090b8 <HAL_UART_IRQHandler+0x108>
 8009064:	0690      	lsls	r0, r2, #26
 8009066:	d505      	bpl.n	8009074 <HAL_UART_IRQHandler+0xc4>
 8009068:	0689      	lsls	r1, r1, #26
 800906a:	d503      	bpl.n	8009074 <HAL_UART_IRQHandler+0xc4>
 800906c:	6e63      	ldr	r3, [r4, #100]	; 0x64
 800906e:	b10b      	cbz	r3, 8009074 <HAL_UART_IRQHandler+0xc4>
 8009070:	4620      	mov	r0, r4
 8009072:	4798      	blx	r3
 8009074:	6823      	ldr	r3, [r4, #0]
 8009076:	f8d4 5080 	ldr.w	r5, [r4, #128]	; 0x80
 800907a:	689b      	ldr	r3, [r3, #8]
 800907c:	f005 0528 	and.w	r5, r5, #40	; 0x28
 8009080:	f003 0340 	and.w	r3, r3, #64	; 0x40
 8009084:	431d      	orrs	r5, r3
 8009086:	4620      	mov	r0, r4
 8009088:	d017      	beq.n	80090ba <HAL_UART_IRQHandler+0x10a>
 800908a:	f7ff fed8 	bl	8008e3e <UART_EndRxTransfer>
 800908e:	6823      	ldr	r3, [r4, #0]
 8009090:	689a      	ldr	r2, [r3, #8]
 8009092:	0652      	lsls	r2, r2, #25
 8009094:	d50d      	bpl.n	80090b2 <HAL_UART_IRQHandler+0x102>
 8009096:	689a      	ldr	r2, [r3, #8]
 8009098:	6f20      	ldr	r0, [r4, #112]	; 0x70
 800909a:	f022 0240 	bic.w	r2, r2, #64	; 0x40
 800909e:	609a      	str	r2, [r3, #8]
 80090a0:	b138      	cbz	r0, 80090b2 <HAL_UART_IRQHandler+0x102>
 80090a2:	4b49      	ldr	r3, [pc, #292]	; (80091c8 <HAL_UART_IRQHandler+0x218>)
 80090a4:	6383      	str	r3, [r0, #56]	; 0x38
 80090a6:	f7fd f827 	bl	80060f8 <HAL_DMA_Abort_IT>
 80090aa:	b128      	cbz	r0, 80090b8 <HAL_UART_IRQHandler+0x108>
 80090ac:	6f20      	ldr	r0, [r4, #112]	; 0x70
 80090ae:	6b83      	ldr	r3, [r0, #56]	; 0x38
 80090b0:	e78f      	b.n	8008fd2 <HAL_UART_IRQHandler+0x22>
 80090b2:	4620      	mov	r0, r4
 80090b4:	f7ff ff4a 	bl	8008f4c <HAL_UART_ErrorCallback>
 80090b8:	bd70      	pop	{r4, r5, r6, pc}
 80090ba:	f7ff ff47 	bl	8008f4c <HAL_UART_ErrorCallback>
 80090be:	f8c4 5080 	str.w	r5, [r4, #128]	; 0x80
 80090c2:	e7f9      	b.n	80090b8 <HAL_UART_IRQHandler+0x108>
 80090c4:	6e20      	ldr	r0, [r4, #96]	; 0x60
 80090c6:	2801      	cmp	r0, #1
 80090c8:	d157      	bne.n	800917a <HAL_UART_IRQHandler+0x1ca>
 80090ca:	06d6      	lsls	r6, r2, #27
 80090cc:	d555      	bpl.n	800917a <HAL_UART_IRQHandler+0x1ca>
 80090ce:	06c8      	lsls	r0, r1, #27
 80090d0:	d553      	bpl.n	800917a <HAL_UART_IRQHandler+0x1ca>
 80090d2:	2210      	movs	r2, #16
 80090d4:	621a      	str	r2, [r3, #32]
 80090d6:	689a      	ldr	r2, [r3, #8]
 80090d8:	f012 0240 	ands.w	r2, r2, #64	; 0x40
 80090dc:	d02e      	beq.n	800913c <HAL_UART_IRQHandler+0x18c>
 80090de:	6f20      	ldr	r0, [r4, #112]	; 0x70
 80090e0:	6801      	ldr	r1, [r0, #0]
 80090e2:	684a      	ldr	r2, [r1, #4]
 80090e4:	b292      	uxth	r2, r2
 80090e6:	2a00      	cmp	r2, #0
 80090e8:	d0e6      	beq.n	80090b8 <HAL_UART_IRQHandler+0x108>
 80090ea:	f8b4 5058 	ldrh.w	r5, [r4, #88]	; 0x58
 80090ee:	4295      	cmp	r5, r2
 80090f0:	d9e2      	bls.n	80090b8 <HAL_UART_IRQHandler+0x108>
 80090f2:	f8a4 205a 	strh.w	r2, [r4, #90]	; 0x5a
 80090f6:	680a      	ldr	r2, [r1, #0]
 80090f8:	f012 0220 	ands.w	r2, r2, #32
 80090fc:	d114      	bne.n	8009128 <HAL_UART_IRQHandler+0x178>
 80090fe:	6819      	ldr	r1, [r3, #0]
 8009100:	f421 7180 	bic.w	r1, r1, #256	; 0x100
 8009104:	6019      	str	r1, [r3, #0]
 8009106:	6899      	ldr	r1, [r3, #8]
 8009108:	f021 0101 	bic.w	r1, r1, #1
 800910c:	6099      	str	r1, [r3, #8]
 800910e:	6899      	ldr	r1, [r3, #8]
 8009110:	f021 0140 	bic.w	r1, r1, #64	; 0x40
 8009114:	6099      	str	r1, [r3, #8]
 8009116:	2120      	movs	r1, #32
 8009118:	67e1      	str	r1, [r4, #124]	; 0x7c
 800911a:	6622      	str	r2, [r4, #96]	; 0x60
 800911c:	681a      	ldr	r2, [r3, #0]
 800911e:	f022 0210 	bic.w	r2, r2, #16
 8009122:	601a      	str	r2, [r3, #0]
 8009124:	f7fc ffc5 	bl	80060b2 <HAL_DMA_Abort>
 8009128:	f8b4 305a 	ldrh.w	r3, [r4, #90]	; 0x5a
 800912c:	f8b4 1058 	ldrh.w	r1, [r4, #88]	; 0x58
 8009130:	1ac9      	subs	r1, r1, r3
 8009132:	b289      	uxth	r1, r1
 8009134:	4620      	mov	r0, r4
 8009136:	f7ff ff3a 	bl	8008fae <HAL_UARTEx_RxEventCallback>
 800913a:	e7bd      	b.n	80090b8 <HAL_UART_IRQHandler+0x108>
 800913c:	f8b4 105a 	ldrh.w	r1, [r4, #90]	; 0x5a
 8009140:	b288      	uxth	r0, r1
 8009142:	f8b4 105a 	ldrh.w	r1, [r4, #90]	; 0x5a
 8009146:	b289      	uxth	r1, r1
 8009148:	2900      	cmp	r1, #0
 800914a:	d0b5      	beq.n	80090b8 <HAL_UART_IRQHandler+0x108>
 800914c:	f8b4 1058 	ldrh.w	r1, [r4, #88]	; 0x58
 8009150:	1a09      	subs	r1, r1, r0
 8009152:	b289      	uxth	r1, r1
 8009154:	2900      	cmp	r1, #0
 8009156:	d0af      	beq.n	80090b8 <HAL_UART_IRQHandler+0x108>
 8009158:	6818      	ldr	r0, [r3, #0]
 800915a:	f420 7090 	bic.w	r0, r0, #288	; 0x120
 800915e:	6018      	str	r0, [r3, #0]
 8009160:	6898      	ldr	r0, [r3, #8]
 8009162:	f020 0001 	bic.w	r0, r0, #1
 8009166:	6098      	str	r0, [r3, #8]
 8009168:	2020      	movs	r0, #32
 800916a:	67e0      	str	r0, [r4, #124]	; 0x7c
 800916c:	6622      	str	r2, [r4, #96]	; 0x60
 800916e:	6662      	str	r2, [r4, #100]	; 0x64
 8009170:	681a      	ldr	r2, [r3, #0]
 8009172:	f022 0210 	bic.w	r2, r2, #16
 8009176:	601a      	str	r2, [r3, #0]
 8009178:	e7dc      	b.n	8009134 <HAL_UART_IRQHandler+0x184>
 800917a:	02d6      	lsls	r6, r2, #11
 800917c:	d509      	bpl.n	8009192 <HAL_UART_IRQHandler+0x1e2>
 800917e:	0268      	lsls	r0, r5, #9
 8009180:	d507      	bpl.n	8009192 <HAL_UART_IRQHandler+0x1e2>
 8009182:	f44f 1280 	mov.w	r2, #1048576	; 0x100000
 8009186:	4620      	mov	r0, r4
 8009188:	621a      	str	r2, [r3, #32]
 800918a:	e8bd 4070 	ldmia.w	sp!, {r4, r5, r6, lr}
 800918e:	f000 bb23 	b.w	80097d8 <HAL_UARTEx_WakeupCallback>
 8009192:	0616      	lsls	r6, r2, #24
 8009194:	d506      	bpl.n	80091a4 <HAL_UART_IRQHandler+0x1f4>
 8009196:	060d      	lsls	r5, r1, #24
 8009198:	d504      	bpl.n	80091a4 <HAL_UART_IRQHandler+0x1f4>
 800919a:	6ea3      	ldr	r3, [r4, #104]	; 0x68
 800919c:	2b00      	cmp	r3, #0
 800919e:	d08b      	beq.n	80090b8 <HAL_UART_IRQHandler+0x108>
 80091a0:	4620      	mov	r0, r4
 80091a2:	e716      	b.n	8008fd2 <HAL_UART_IRQHandler+0x22>
 80091a4:	0650      	lsls	r0, r2, #25
 80091a6:	d587      	bpl.n	80090b8 <HAL_UART_IRQHandler+0x108>
 80091a8:	064a      	lsls	r2, r1, #25
 80091aa:	d585      	bpl.n	80090b8 <HAL_UART_IRQHandler+0x108>
 80091ac:	681a      	ldr	r2, [r3, #0]
 80091ae:	f022 0240 	bic.w	r2, r2, #64	; 0x40
 80091b2:	601a      	str	r2, [r3, #0]
 80091b4:	2320      	movs	r3, #32
 80091b6:	67a3      	str	r3, [r4, #120]	; 0x78
 80091b8:	2300      	movs	r3, #0
 80091ba:	66a3      	str	r3, [r4, #104]	; 0x68
 80091bc:	4620      	mov	r0, r4
 80091be:	f7ff fec3 	bl	8008f48 <HAL_UART_TxCpltCallback>
 80091c2:	e779      	b.n	80090b8 <HAL_UART_IRQHandler+0x108>
 80091c4:	04000120 	.word	0x04000120
 80091c8:	08008f9b 	.word	0x08008f9b

080091cc <UART_DMARxHalfCplt>:
 80091cc:	6a80      	ldr	r0, [r0, #40]	; 0x28
 80091ce:	b508      	push	{r3, lr}
 80091d0:	6e03      	ldr	r3, [r0, #96]	; 0x60
 80091d2:	2b01      	cmp	r3, #1
 80091d4:	d105      	bne.n	80091e2 <UART_DMARxHalfCplt+0x16>
 80091d6:	f8b0 1058 	ldrh.w	r1, [r0, #88]	; 0x58
 80091da:	0849      	lsrs	r1, r1, #1
 80091dc:	f7ff fee7 	bl	8008fae <HAL_UARTEx_RxEventCallback>
 80091e0:	bd08      	pop	{r3, pc}
 80091e2:	f7ff feb2 	bl	8008f4a <HAL_UART_RxHalfCpltCallback>
 80091e6:	e7fb      	b.n	80091e0 <UART_DMARxHalfCplt+0x14>

080091e8 <UART_DMAReceiveCplt>:
 80091e8:	b508      	push	{r3, lr}
 80091ea:	4603      	mov	r3, r0
 80091ec:	6a80      	ldr	r0, [r0, #40]	; 0x28
 80091ee:	681b      	ldr	r3, [r3, #0]
 80091f0:	681b      	ldr	r3, [r3, #0]
 80091f2:	f013 0320 	ands.w	r3, r3, #32
 80091f6:	d117      	bne.n	8009228 <UART_DMAReceiveCplt+0x40>
 80091f8:	f8a0 305a 	strh.w	r3, [r0, #90]	; 0x5a
 80091fc:	6803      	ldr	r3, [r0, #0]
 80091fe:	681a      	ldr	r2, [r3, #0]
 8009200:	f422 7280 	bic.w	r2, r2, #256	; 0x100
 8009204:	601a      	str	r2, [r3, #0]
 8009206:	689a      	ldr	r2, [r3, #8]
 8009208:	f022 0201 	bic.w	r2, r2, #1
 800920c:	609a      	str	r2, [r3, #8]
 800920e:	689a      	ldr	r2, [r3, #8]
 8009210:	f022 0240 	bic.w	r2, r2, #64	; 0x40
 8009214:	609a      	str	r2, [r3, #8]
 8009216:	2220      	movs	r2, #32
 8009218:	67c2      	str	r2, [r0, #124]	; 0x7c
 800921a:	6e02      	ldr	r2, [r0, #96]	; 0x60
 800921c:	2a01      	cmp	r2, #1
 800921e:	bf02      	ittt	eq
 8009220:	681a      	ldreq	r2, [r3, #0]
 8009222:	f022 0210 	biceq.w	r2, r2, #16
 8009226:	601a      	streq	r2, [r3, #0]
 8009228:	6e03      	ldr	r3, [r0, #96]	; 0x60
 800922a:	2b01      	cmp	r3, #1
 800922c:	d104      	bne.n	8009238 <UART_DMAReceiveCplt+0x50>
 800922e:	f8b0 1058 	ldrh.w	r1, [r0, #88]	; 0x58
 8009232:	f7ff febc 	bl	8008fae <HAL_UARTEx_RxEventCallback>
 8009236:	bd08      	pop	{r3, pc}
 8009238:	f7fb fed4 	bl	8004fe4 <HAL_UART_RxCpltCallback>
 800923c:	e7fb      	b.n	8009236 <UART_DMAReceiveCplt+0x4e>
	...

08009240 <UART_SetConfig>:
 8009240:	b5f8      	push	{r3, r4, r5, r6, r7, lr}
 8009242:	4604      	mov	r4, r0
 8009244:	6803      	ldr	r3, [r0, #0]
 8009246:	6921      	ldr	r1, [r4, #16]
 8009248:	68a2      	ldr	r2, [r4, #8]
 800924a:	681d      	ldr	r5, [r3, #0]
 800924c:	69c0      	ldr	r0, [r0, #28]
 800924e:	430a      	orrs	r2, r1
 8009250:	6961      	ldr	r1, [r4, #20]
 8009252:	430a      	orrs	r2, r1
 8009254:	497a      	ldr	r1, [pc, #488]	; (8009440 <UART_SetConfig+0x200>)
 8009256:	4302      	orrs	r2, r0
 8009258:	4029      	ands	r1, r5
 800925a:	430a      	orrs	r2, r1
 800925c:	601a      	str	r2, [r3, #0]
 800925e:	685a      	ldr	r2, [r3, #4]
 8009260:	68e1      	ldr	r1, [r4, #12]
 8009262:	f422 5240 	bic.w	r2, r2, #12288	; 0x3000
 8009266:	430a      	orrs	r2, r1
 8009268:	605a      	str	r2, [r3, #4]
 800926a:	4a76      	ldr	r2, [pc, #472]	; (8009444 <UART_SetConfig+0x204>)
 800926c:	69a1      	ldr	r1, [r4, #24]
 800926e:	4293      	cmp	r3, r2
 8009270:	bf1c      	itt	ne
 8009272:	6a22      	ldrne	r2, [r4, #32]
 8009274:	4311      	orrne	r1, r2
 8009276:	689a      	ldr	r2, [r3, #8]
 8009278:	f422 6230 	bic.w	r2, r2, #2816	; 0xb00
 800927c:	430a      	orrs	r2, r1
 800927e:	609a      	str	r2, [r3, #8]
 8009280:	4a71      	ldr	r2, [pc, #452]	; (8009448 <UART_SetConfig+0x208>)
 8009282:	4293      	cmp	r3, r2
 8009284:	d117      	bne.n	80092b6 <UART_SetConfig+0x76>
 8009286:	4b71      	ldr	r3, [pc, #452]	; (800944c <UART_SetConfig+0x20c>)
 8009288:	f8d3 3088 	ldr.w	r3, [r3, #136]	; 0x88
 800928c:	f003 0303 	and.w	r3, r3, #3
 8009290:	3b01      	subs	r3, #1
 8009292:	2b02      	cmp	r3, #2
 8009294:	f200 80b0 	bhi.w	80093f8 <UART_SetConfig+0x1b8>
 8009298:	4a6d      	ldr	r2, [pc, #436]	; (8009450 <UART_SetConfig+0x210>)
 800929a:	5cd3      	ldrb	r3, [r2, r3]
 800929c:	f5b0 4f00 	cmp.w	r0, #32768	; 0x8000
 80092a0:	f040 808b 	bne.w	80093ba <UART_SetConfig+0x17a>
 80092a4:	2b08      	cmp	r3, #8
 80092a6:	d822      	bhi.n	80092ee <UART_SetConfig+0xae>
 80092a8:	e8df f003 	tbb	[pc, r3]
 80092ac:	2185a968 	.word	0x2185a968
 80092b0:	21212182 	.word	0x21212182
 80092b4:	6c          	.byte	0x6c
 80092b5:	00          	.byte	0x00
 80092b6:	4a67      	ldr	r2, [pc, #412]	; (8009454 <UART_SetConfig+0x214>)
 80092b8:	4293      	cmp	r3, r2
 80092ba:	d106      	bne.n	80092ca <UART_SetConfig+0x8a>
 80092bc:	4b63      	ldr	r3, [pc, #396]	; (800944c <UART_SetConfig+0x20c>)
 80092be:	4a66      	ldr	r2, [pc, #408]	; (8009458 <UART_SetConfig+0x218>)
 80092c0:	f8d3 3088 	ldr.w	r3, [r3, #136]	; 0x88
 80092c4:	f003 030c 	and.w	r3, r3, #12
 80092c8:	e7e7      	b.n	800929a <UART_SetConfig+0x5a>
 80092ca:	4a64      	ldr	r2, [pc, #400]	; (800945c <UART_SetConfig+0x21c>)
 80092cc:	4293      	cmp	r3, r2
 80092ce:	d118      	bne.n	8009302 <UART_SetConfig+0xc2>
 80092d0:	4b5e      	ldr	r3, [pc, #376]	; (800944c <UART_SetConfig+0x20c>)
 80092d2:	f8d3 3088 	ldr.w	r3, [r3, #136]	; 0x88
 80092d6:	f003 0330 	and.w	r3, r3, #48	; 0x30
 80092da:	2b20      	cmp	r3, #32
 80092dc:	f000 8087 	beq.w	80093ee <UART_SetConfig+0x1ae>
 80092e0:	d807      	bhi.n	80092f2 <UART_SetConfig+0xb2>
 80092e2:	2b00      	cmp	r3, #0
 80092e4:	f000 8094 	beq.w	8009410 <UART_SetConfig+0x1d0>
 80092e8:	2b10      	cmp	r3, #16
 80092ea:	f000 808b 	beq.w	8009404 <UART_SetConfig+0x1c4>
 80092ee:	2001      	movs	r0, #1
 80092f0:	e024      	b.n	800933c <UART_SetConfig+0xfc>
 80092f2:	2b30      	cmp	r3, #48	; 0x30
 80092f4:	d1fb      	bne.n	80092ee <UART_SetConfig+0xae>
 80092f6:	f5b0 4f00 	cmp.w	r0, #32768	; 0x8000
 80092fa:	d043      	beq.n	8009384 <UART_SetConfig+0x144>
 80092fc:	f44f 4000 	mov.w	r0, #32768	; 0x8000
 8009300:	e08d      	b.n	800941e <UART_SetConfig+0x1de>
 8009302:	4a50      	ldr	r2, [pc, #320]	; (8009444 <UART_SetConfig+0x204>)
 8009304:	4293      	cmp	r3, r2
 8009306:	d1f2      	bne.n	80092ee <UART_SetConfig+0xae>
 8009308:	4b50      	ldr	r3, [pc, #320]	; (800944c <UART_SetConfig+0x20c>)
 800930a:	f8d3 3088 	ldr.w	r3, [r3, #136]	; 0x88
 800930e:	f403 6340 	and.w	r3, r3, #3072	; 0xc00
 8009312:	f5b3 6f00 	cmp.w	r3, #2048	; 0x800
 8009316:	d015      	beq.n	8009344 <UART_SetConfig+0x104>
 8009318:	d806      	bhi.n	8009328 <UART_SetConfig+0xe8>
 800931a:	b15b      	cbz	r3, 8009334 <UART_SetConfig+0xf4>
 800931c:	f5b3 6f80 	cmp.w	r3, #1024	; 0x400
 8009320:	d1e5      	bne.n	80092ee <UART_SetConfig+0xae>
 8009322:	f7fe fb65 	bl	80079f0 <HAL_RCC_GetSysClockFreq>
 8009326:	e007      	b.n	8009338 <UART_SetConfig+0xf8>
 8009328:	f5b3 6f40 	cmp.w	r3, #3072	; 0xc00
 800932c:	d1df      	bne.n	80092ee <UART_SetConfig+0xae>
 800932e:	f44f 4000 	mov.w	r0, #32768	; 0x8000
 8009332:	e008      	b.n	8009346 <UART_SetConfig+0x106>
 8009334:	f7fe fee8 	bl	8008108 <HAL_RCC_GetPCLK1Freq>
 8009338:	b928      	cbnz	r0, 8009346 <UART_SetConfig+0x106>
 800933a:	2000      	movs	r0, #0
 800933c:	2300      	movs	r3, #0
 800933e:	e9c4 3319 	strd	r3, r3, [r4, #100]	; 0x64
 8009342:	bdf8      	pop	{r3, r4, r5, r6, r7, pc}
 8009344:	4846      	ldr	r0, [pc, #280]	; (8009460 <UART_SetConfig+0x220>)
 8009346:	6862      	ldr	r2, [r4, #4]
 8009348:	eb02 0342 	add.w	r3, r2, r2, lsl #1
 800934c:	4283      	cmp	r3, r0
 800934e:	d8ce      	bhi.n	80092ee <UART_SetConfig+0xae>
 8009350:	ebb0 3f02 	cmp.w	r0, r2, lsl #12
 8009354:	d8cb      	bhi.n	80092ee <UART_SetConfig+0xae>
 8009356:	0856      	lsrs	r6, r2, #1
 8009358:	f44f 7180 	mov.w	r1, #256	; 0x100
 800935c:	2700      	movs	r7, #0
 800935e:	fbe1 6700 	umlal	r6, r7, r1, r0
 8009362:	2300      	movs	r3, #0
 8009364:	4630      	mov	r0, r6
 8009366:	4639      	mov	r1, r7
 8009368:	f7f7 fc8e 	bl	8000c88 <__aeabi_uldivmod>
 800936c:	4b3d      	ldr	r3, [pc, #244]	; (8009464 <UART_SetConfig+0x224>)
 800936e:	f5a0 7240 	sub.w	r2, r0, #768	; 0x300
 8009372:	429a      	cmp	r2, r3
 8009374:	d8bb      	bhi.n	80092ee <UART_SetConfig+0xae>
 8009376:	6823      	ldr	r3, [r4, #0]
 8009378:	60d8      	str	r0, [r3, #12]
 800937a:	e7de      	b.n	800933a <UART_SetConfig+0xfa>
 800937c:	f7fe fec4 	bl	8008108 <HAL_RCC_GetPCLK1Freq>
 8009380:	2800      	cmp	r0, #0
 8009382:	d0da      	beq.n	800933a <UART_SetConfig+0xfa>
 8009384:	6862      	ldr	r2, [r4, #4]
 8009386:	0853      	lsrs	r3, r2, #1
 8009388:	eb03 0040 	add.w	r0, r3, r0, lsl #1
 800938c:	fbb0 f0f2 	udiv	r0, r0, r2
 8009390:	b283      	uxth	r3, r0
 8009392:	f1a3 0110 	sub.w	r1, r3, #16
 8009396:	f64f 72ef 	movw	r2, #65519	; 0xffef
 800939a:	4291      	cmp	r1, r2
 800939c:	d8a7      	bhi.n	80092ee <UART_SetConfig+0xae>
 800939e:	f020 000f 	bic.w	r0, r0, #15
 80093a2:	6822      	ldr	r2, [r4, #0]
 80093a4:	b280      	uxth	r0, r0
 80093a6:	f3c3 0342 	ubfx	r3, r3, #1, #3
 80093aa:	4318      	orrs	r0, r3
 80093ac:	60d0      	str	r0, [r2, #12]
 80093ae:	e7c4      	b.n	800933a <UART_SetConfig+0xfa>
 80093b0:	f7fe fb1e 	bl	80079f0 <HAL_RCC_GetSysClockFreq>
 80093b4:	e7e4      	b.n	8009380 <UART_SetConfig+0x140>
 80093b6:	482a      	ldr	r0, [pc, #168]	; (8009460 <UART_SetConfig+0x220>)
 80093b8:	e7e4      	b.n	8009384 <UART_SetConfig+0x144>
 80093ba:	2b08      	cmp	r3, #8
 80093bc:	d897      	bhi.n	80092ee <UART_SetConfig+0xae>
 80093be:	a201      	add	r2, pc, #4	; (adr r2, 80093c4 <UART_SetConfig+0x184>)
 80093c0:	f852 f023 	ldr.w	pc, [r2, r3, lsl #2]
 80093c4:	08009417 	.word	0x08009417
 80093c8:	080093e9 	.word	0x080093e9
 80093cc:	080093f5 	.word	0x080093f5
 80093d0:	080092ef 	.word	0x080092ef
 80093d4:	0800940b 	.word	0x0800940b
 80093d8:	080092ef 	.word	0x080092ef
 80093dc:	080092ef 	.word	0x080092ef
 80093e0:	080092ef 	.word	0x080092ef
 80093e4:	080092fd 	.word	0x080092fd
 80093e8:	f7fe fea0 	bl	800812c <HAL_RCC_GetPCLK2Freq>
 80093ec:	e015      	b.n	800941a <UART_SetConfig+0x1da>
 80093ee:	f5b0 4f00 	cmp.w	r0, #32768	; 0x8000
 80093f2:	d0e0      	beq.n	80093b6 <UART_SetConfig+0x176>
 80093f4:	481a      	ldr	r0, [pc, #104]	; (8009460 <UART_SetConfig+0x220>)
 80093f6:	e012      	b.n	800941e <UART_SetConfig+0x1de>
 80093f8:	f5b0 4f00 	cmp.w	r0, #32768	; 0x8000
 80093fc:	d1f4      	bne.n	80093e8 <UART_SetConfig+0x1a8>
 80093fe:	f7fe fe95 	bl	800812c <HAL_RCC_GetPCLK2Freq>
 8009402:	e7bd      	b.n	8009380 <UART_SetConfig+0x140>
 8009404:	f5b0 4f00 	cmp.w	r0, #32768	; 0x8000
 8009408:	d0d2      	beq.n	80093b0 <UART_SetConfig+0x170>
 800940a:	f7fe faf1 	bl	80079f0 <HAL_RCC_GetSysClockFreq>
 800940e:	e004      	b.n	800941a <UART_SetConfig+0x1da>
 8009410:	f5b0 4f00 	cmp.w	r0, #32768	; 0x8000
 8009414:	d0b2      	beq.n	800937c <UART_SetConfig+0x13c>
 8009416:	f7fe fe77 	bl	8008108 <HAL_RCC_GetPCLK1Freq>
 800941a:	2800      	cmp	r0, #0
 800941c:	d08d      	beq.n	800933a <UART_SetConfig+0xfa>
 800941e:	6862      	ldr	r2, [r4, #4]
 8009420:	eb00 0352 	add.w	r3, r0, r2, lsr #1
 8009424:	fbb3 f3f2 	udiv	r3, r3, r2
 8009428:	b29b      	uxth	r3, r3
 800942a:	f1a3 0110 	sub.w	r1, r3, #16
 800942e:	f64f 72ef 	movw	r2, #65519	; 0xffef
 8009432:	4291      	cmp	r1, r2
 8009434:	f63f af5b 	bhi.w	80092ee <UART_SetConfig+0xae>
 8009438:	6822      	ldr	r2, [r4, #0]
 800943a:	60d3      	str	r3, [r2, #12]
 800943c:	e77d      	b.n	800933a <UART_SetConfig+0xfa>
 800943e:	bf00      	nop
 8009440:	efff69f3 	.word	0xefff69f3
 8009444:	40008000 	.word	0x40008000
 8009448:	40013800 	.word	0x40013800
 800944c:	40021000 	.word	0x40021000
 8009450:	0800fd7c 	.word	0x0800fd7c
 8009454:	40004400 	.word	0x40004400
 8009458:	0800fd7f 	.word	0x0800fd7f
 800945c:	40004800 	.word	0x40004800
 8009460:	00f42400 	.word	0x00f42400
 8009464:	000ffcff 	.word	0x000ffcff

08009468 <UART_AdvFeatureConfig>:
 8009468:	6a43      	ldr	r3, [r0, #36]	; 0x24
 800946a:	07da      	lsls	r2, r3, #31
 800946c:	b510      	push	{r4, lr}
 800946e:	d506      	bpl.n	800947e <UART_AdvFeatureConfig+0x16>
 8009470:	6801      	ldr	r1, [r0, #0]
 8009472:	6a84      	ldr	r4, [r0, #40]	; 0x28
 8009474:	684a      	ldr	r2, [r1, #4]
 8009476:	f422 3200 	bic.w	r2, r2, #131072	; 0x20000
 800947a:	4322      	orrs	r2, r4
 800947c:	604a      	str	r2, [r1, #4]
 800947e:	079c      	lsls	r4, r3, #30
 8009480:	d506      	bpl.n	8009490 <UART_AdvFeatureConfig+0x28>
 8009482:	6801      	ldr	r1, [r0, #0]
 8009484:	6ac4      	ldr	r4, [r0, #44]	; 0x2c
 8009486:	684a      	ldr	r2, [r1, #4]
 8009488:	f422 3280 	bic.w	r2, r2, #65536	; 0x10000
 800948c:	4322      	orrs	r2, r4
 800948e:	604a      	str	r2, [r1, #4]
 8009490:	0759      	lsls	r1, r3, #29
 8009492:	d506      	bpl.n	80094a2 <UART_AdvFeatureConfig+0x3a>
 8009494:	6801      	ldr	r1, [r0, #0]
 8009496:	6b04      	ldr	r4, [r0, #48]	; 0x30
 8009498:	684a      	ldr	r2, [r1, #4]
 800949a:	f422 2280 	bic.w	r2, r2, #262144	; 0x40000
 800949e:	4322      	orrs	r2, r4
 80094a0:	604a      	str	r2, [r1, #4]
 80094a2:	071a      	lsls	r2, r3, #28
 80094a4:	d506      	bpl.n	80094b4 <UART_AdvFeatureConfig+0x4c>
 80094a6:	6801      	ldr	r1, [r0, #0]
 80094a8:	6b44      	ldr	r4, [r0, #52]	; 0x34
 80094aa:	684a      	ldr	r2, [r1, #4]
 80094ac:	f422 4200 	bic.w	r2, r2, #32768	; 0x8000
 80094b0:	4322      	orrs	r2, r4
 80094b2:	604a      	str	r2, [r1, #4]
 80094b4:	06dc      	lsls	r4, r3, #27
 80094b6:	d506      	bpl.n	80094c6 <UART_AdvFeatureConfig+0x5e>
 80094b8:	6801      	ldr	r1, [r0, #0]
 80094ba:	6b84      	ldr	r4, [r0, #56]	; 0x38
 80094bc:	688a      	ldr	r2, [r1, #8]
 80094be:	f422 5280 	bic.w	r2, r2, #4096	; 0x1000
 80094c2:	4322      	orrs	r2, r4
 80094c4:	608a      	str	r2, [r1, #8]
 80094c6:	0699      	lsls	r1, r3, #26
 80094c8:	d506      	bpl.n	80094d8 <UART_AdvFeatureConfig+0x70>
 80094ca:	6801      	ldr	r1, [r0, #0]
 80094cc:	6bc4      	ldr	r4, [r0, #60]	; 0x3c
 80094ce:	688a      	ldr	r2, [r1, #8]
 80094d0:	f422 5200 	bic.w	r2, r2, #8192	; 0x2000
 80094d4:	4322      	orrs	r2, r4
 80094d6:	608a      	str	r2, [r1, #8]
 80094d8:	065a      	lsls	r2, r3, #25
 80094da:	d50f      	bpl.n	80094fc <UART_AdvFeatureConfig+0x94>
 80094dc:	6801      	ldr	r1, [r0, #0]
 80094de:	6c04      	ldr	r4, [r0, #64]	; 0x40
 80094e0:	684a      	ldr	r2, [r1, #4]
 80094e2:	f422 1280 	bic.w	r2, r2, #1048576	; 0x100000
 80094e6:	4322      	orrs	r2, r4
 80094e8:	f5b4 1f80 	cmp.w	r4, #1048576	; 0x100000
 80094ec:	604a      	str	r2, [r1, #4]
 80094ee:	d105      	bne.n	80094fc <UART_AdvFeatureConfig+0x94>
 80094f0:	684a      	ldr	r2, [r1, #4]
 80094f2:	6c44      	ldr	r4, [r0, #68]	; 0x44
 80094f4:	f422 02c0 	bic.w	r2, r2, #6291456	; 0x600000
 80094f8:	4322      	orrs	r2, r4
 80094fa:	604a      	str	r2, [r1, #4]
 80094fc:	061b      	lsls	r3, r3, #24
 80094fe:	d506      	bpl.n	800950e <UART_AdvFeatureConfig+0xa6>
 8009500:	6802      	ldr	r2, [r0, #0]
 8009502:	6c81      	ldr	r1, [r0, #72]	; 0x48
 8009504:	6853      	ldr	r3, [r2, #4]
 8009506:	f423 2300 	bic.w	r3, r3, #524288	; 0x80000
 800950a:	430b      	orrs	r3, r1
 800950c:	6053      	str	r3, [r2, #4]
 800950e:	bd10      	pop	{r4, pc}

08009510 <UART_WaitOnFlagUntilTimeout>:
 8009510:	e92d 41f0 	stmdb	sp!, {r4, r5, r6, r7, r8, lr}
 8009514:	f8dd 8018 	ldr.w	r8, [sp, #24]
 8009518:	4604      	mov	r4, r0
 800951a:	460e      	mov	r6, r1
 800951c:	4615      	mov	r5, r2
 800951e:	461f      	mov	r7, r3
 8009520:	6822      	ldr	r2, [r4, #0]
 8009522:	69d3      	ldr	r3, [r2, #28]
 8009524:	ea36 0303 	bics.w	r3, r6, r3
 8009528:	bf0c      	ite	eq
 800952a:	2301      	moveq	r3, #1
 800952c:	2300      	movne	r3, #0
 800952e:	42ab      	cmp	r3, r5
 8009530:	d001      	beq.n	8009536 <UART_WaitOnFlagUntilTimeout+0x26>
 8009532:	2000      	movs	r0, #0
 8009534:	e01a      	b.n	800956c <UART_WaitOnFlagUntilTimeout+0x5c>
 8009536:	f1b8 3fff 	cmp.w	r8, #4294967295
 800953a:	d0f2      	beq.n	8009522 <UART_WaitOnFlagUntilTimeout+0x12>
 800953c:	f7fc fc8e 	bl	8005e5c <HAL_GetTick>
 8009540:	1bc0      	subs	r0, r0, r7
 8009542:	4540      	cmp	r0, r8
 8009544:	6820      	ldr	r0, [r4, #0]
 8009546:	6803      	ldr	r3, [r0, #0]
 8009548:	d802      	bhi.n	8009550 <UART_WaitOnFlagUntilTimeout+0x40>
 800954a:	f1b8 0f00 	cmp.w	r8, #0
 800954e:	d10f      	bne.n	8009570 <UART_WaitOnFlagUntilTimeout+0x60>
 8009550:	f423 73d0 	bic.w	r3, r3, #416	; 0x1a0
 8009554:	6003      	str	r3, [r0, #0]
 8009556:	6883      	ldr	r3, [r0, #8]
 8009558:	f023 0301 	bic.w	r3, r3, #1
 800955c:	6083      	str	r3, [r0, #8]
 800955e:	2320      	movs	r3, #32
 8009560:	67a3      	str	r3, [r4, #120]	; 0x78
 8009562:	67e3      	str	r3, [r4, #124]	; 0x7c
 8009564:	2300      	movs	r3, #0
 8009566:	f884 3074 	strb.w	r3, [r4, #116]	; 0x74
 800956a:	2003      	movs	r0, #3
 800956c:	e8bd 81f0 	ldmia.w	sp!, {r4, r5, r6, r7, r8, pc}
 8009570:	075a      	lsls	r2, r3, #29
 8009572:	d5d5      	bpl.n	8009520 <UART_WaitOnFlagUntilTimeout+0x10>
 8009574:	69c3      	ldr	r3, [r0, #28]
 8009576:	051b      	lsls	r3, r3, #20
 8009578:	d5d2      	bpl.n	8009520 <UART_WaitOnFlagUntilTimeout+0x10>
 800957a:	f44f 6300 	mov.w	r3, #2048	; 0x800
 800957e:	6203      	str	r3, [r0, #32]
 8009580:	6803      	ldr	r3, [r0, #0]
 8009582:	f423 73d0 	bic.w	r3, r3, #416	; 0x1a0
 8009586:	6003      	str	r3, [r0, #0]
 8009588:	6883      	ldr	r3, [r0, #8]
 800958a:	f023 0301 	bic.w	r3, r3, #1
 800958e:	6083      	str	r3, [r0, #8]
 8009590:	2320      	movs	r3, #32
 8009592:	67a3      	str	r3, [r4, #120]	; 0x78
 8009594:	67e3      	str	r3, [r4, #124]	; 0x7c
 8009596:	f8c4 3080 	str.w	r3, [r4, #128]	; 0x80
 800959a:	e7e3      	b.n	8009564 <UART_WaitOnFlagUntilTimeout+0x54>

0800959c <HAL_UART_Transmit>:
 800959c:	e92d 41ff 	stmdb	sp!, {r0, r1, r2, r3, r4, r5, r6, r7, r8, lr}
 80095a0:	4698      	mov	r8, r3
 80095a2:	6f83      	ldr	r3, [r0, #120]	; 0x78
 80095a4:	2b20      	cmp	r3, #32
 80095a6:	4604      	mov	r4, r0
 80095a8:	460e      	mov	r6, r1
 80095aa:	4617      	mov	r7, r2
 80095ac:	d14e      	bne.n	800964c <HAL_UART_Transmit+0xb0>
 80095ae:	2900      	cmp	r1, #0
 80095b0:	d04a      	beq.n	8009648 <HAL_UART_Transmit+0xac>
 80095b2:	2a00      	cmp	r2, #0
 80095b4:	d048      	beq.n	8009648 <HAL_UART_Transmit+0xac>
 80095b6:	f890 3074 	ldrb.w	r3, [r0, #116]	; 0x74
 80095ba:	2b01      	cmp	r3, #1
 80095bc:	d046      	beq.n	800964c <HAL_UART_Transmit+0xb0>
 80095be:	2301      	movs	r3, #1
 80095c0:	f880 3074 	strb.w	r3, [r0, #116]	; 0x74
 80095c4:	2500      	movs	r5, #0
 80095c6:	2321      	movs	r3, #33	; 0x21
 80095c8:	f8c0 5080 	str.w	r5, [r0, #128]	; 0x80
 80095cc:	6783      	str	r3, [r0, #120]	; 0x78
 80095ce:	f7fc fc45 	bl	8005e5c <HAL_GetTick>
 80095d2:	68a2      	ldr	r2, [r4, #8]
 80095d4:	f8a4 7050 	strh.w	r7, [r4, #80]	; 0x50
 80095d8:	f5b2 5f80 	cmp.w	r2, #4096	; 0x1000
 80095dc:	4603      	mov	r3, r0
 80095de:	f8a4 7052 	strh.w	r7, [r4, #82]	; 0x52
 80095e2:	d103      	bne.n	80095ec <HAL_UART_Transmit+0x50>
 80095e4:	6922      	ldr	r2, [r4, #16]
 80095e6:	b90a      	cbnz	r2, 80095ec <HAL_UART_Transmit+0x50>
 80095e8:	4635      	mov	r5, r6
 80095ea:	4616      	mov	r6, r2
 80095ec:	2200      	movs	r2, #0
 80095ee:	f884 2074 	strb.w	r2, [r4, #116]	; 0x74
 80095f2:	f8b4 2052 	ldrh.w	r2, [r4, #82]	; 0x52
 80095f6:	f8cd 8000 	str.w	r8, [sp]
 80095fa:	b292      	uxth	r2, r2
 80095fc:	b93a      	cbnz	r2, 800960e <HAL_UART_Transmit+0x72>
 80095fe:	2140      	movs	r1, #64	; 0x40
 8009600:	4620      	mov	r0, r4
 8009602:	f7ff ff85 	bl	8009510 <UART_WaitOnFlagUntilTimeout>
 8009606:	b950      	cbnz	r0, 800961e <HAL_UART_Transmit+0x82>
 8009608:	2320      	movs	r3, #32
 800960a:	67a3      	str	r3, [r4, #120]	; 0x78
 800960c:	e008      	b.n	8009620 <HAL_UART_Transmit+0x84>
 800960e:	2200      	movs	r2, #0
 8009610:	2180      	movs	r1, #128	; 0x80
 8009612:	4620      	mov	r0, r4
 8009614:	9303      	str	r3, [sp, #12]
 8009616:	f7ff ff7b 	bl	8009510 <UART_WaitOnFlagUntilTimeout>
 800961a:	9b03      	ldr	r3, [sp, #12]
 800961c:	b118      	cbz	r0, 8009626 <HAL_UART_Transmit+0x8a>
 800961e:	2003      	movs	r0, #3
 8009620:	b004      	add	sp, #16
 8009622:	e8bd 81f0 	ldmia.w	sp!, {r4, r5, r6, r7, r8, pc}
 8009626:	6821      	ldr	r1, [r4, #0]
 8009628:	b95e      	cbnz	r6, 8009642 <HAL_UART_Transmit+0xa6>
 800962a:	f835 2b02 	ldrh.w	r2, [r5], #2
 800962e:	f3c2 0208 	ubfx	r2, r2, #0, #9
 8009632:	850a      	strh	r2, [r1, #40]	; 0x28
 8009634:	f8b4 2052 	ldrh.w	r2, [r4, #82]	; 0x52
 8009638:	3a01      	subs	r2, #1
 800963a:	b292      	uxth	r2, r2
 800963c:	f8a4 2052 	strh.w	r2, [r4, #82]	; 0x52
 8009640:	e7d7      	b.n	80095f2 <HAL_UART_Transmit+0x56>
 8009642:	f816 2b01 	ldrb.w	r2, [r6], #1
 8009646:	e7f4      	b.n	8009632 <HAL_UART_Transmit+0x96>
 8009648:	2001      	movs	r0, #1
 800964a:	e7e9      	b.n	8009620 <HAL_UART_Transmit+0x84>
 800964c:	2002      	movs	r0, #2
 800964e:	e7e7      	b.n	8009620 <HAL_UART_Transmit+0x84>

08009650 <UART_CheckIdleState>:
 8009650:	b530      	push	{r4, r5, lr}
 8009652:	4604      	mov	r4, r0
 8009654:	2500      	movs	r5, #0
 8009656:	b085      	sub	sp, #20
 8009658:	f8c0 5080 	str.w	r5, [r0, #128]	; 0x80
 800965c:	f7fc fbfe 	bl	8005e5c <HAL_GetTick>
 8009660:	6822      	ldr	r2, [r4, #0]
 8009662:	6812      	ldr	r2, [r2, #0]
 8009664:	0711      	lsls	r1, r2, #28
 8009666:	4603      	mov	r3, r0
 8009668:	d415      	bmi.n	8009696 <UART_CheckIdleState+0x46>
 800966a:	6822      	ldr	r2, [r4, #0]
 800966c:	6812      	ldr	r2, [r2, #0]
 800966e:	0752      	lsls	r2, r2, #29
 8009670:	d509      	bpl.n	8009686 <UART_CheckIdleState+0x36>
 8009672:	f06f 427e 	mvn.w	r2, #4261412864	; 0xfe000000
 8009676:	9200      	str	r2, [sp, #0]
 8009678:	f44f 0180 	mov.w	r1, #4194304	; 0x400000
 800967c:	2200      	movs	r2, #0
 800967e:	4620      	mov	r0, r4
 8009680:	f7ff ff46 	bl	8009510 <UART_WaitOnFlagUntilTimeout>
 8009684:	b9a0      	cbnz	r0, 80096b0 <UART_CheckIdleState+0x60>
 8009686:	2320      	movs	r3, #32
 8009688:	2000      	movs	r0, #0
 800968a:	67a3      	str	r3, [r4, #120]	; 0x78
 800968c:	f884 0074 	strb.w	r0, [r4, #116]	; 0x74
 8009690:	67e3      	str	r3, [r4, #124]	; 0x7c
 8009692:	6620      	str	r0, [r4, #96]	; 0x60
 8009694:	e00d      	b.n	80096b2 <UART_CheckIdleState+0x62>
 8009696:	f06f 427e 	mvn.w	r2, #4261412864	; 0xfe000000
 800969a:	9200      	str	r2, [sp, #0]
 800969c:	9003      	str	r0, [sp, #12]
 800969e:	462a      	mov	r2, r5
 80096a0:	f44f 1100 	mov.w	r1, #2097152	; 0x200000
 80096a4:	4620      	mov	r0, r4
 80096a6:	f7ff ff33 	bl	8009510 <UART_WaitOnFlagUntilTimeout>
 80096aa:	9b03      	ldr	r3, [sp, #12]
 80096ac:	2800      	cmp	r0, #0
 80096ae:	d0dc      	beq.n	800966a <UART_CheckIdleState+0x1a>
 80096b0:	2003      	movs	r0, #3
 80096b2:	b005      	add	sp, #20
 80096b4:	bd30      	pop	{r4, r5, pc}

080096b6 <HAL_UART_Init>:
 80096b6:	b510      	push	{r4, lr}
 80096b8:	4604      	mov	r4, r0
 80096ba:	b340      	cbz	r0, 800970e <HAL_UART_Init+0x58>
 80096bc:	6f83      	ldr	r3, [r0, #120]	; 0x78
 80096be:	b91b      	cbnz	r3, 80096c8 <HAL_UART_Init+0x12>
 80096c0:	f880 3074 	strb.w	r3, [r0, #116]	; 0x74
 80096c4:	f7fc fa6a 	bl	8005b9c <HAL_UART_MspInit>
 80096c8:	6822      	ldr	r2, [r4, #0]
 80096ca:	2324      	movs	r3, #36	; 0x24
 80096cc:	67a3      	str	r3, [r4, #120]	; 0x78
 80096ce:	6813      	ldr	r3, [r2, #0]
 80096d0:	f023 0301 	bic.w	r3, r3, #1
 80096d4:	6013      	str	r3, [r2, #0]
 80096d6:	4620      	mov	r0, r4
 80096d8:	f7ff fdb2 	bl	8009240 <UART_SetConfig>
 80096dc:	2801      	cmp	r0, #1
 80096de:	d016      	beq.n	800970e <HAL_UART_Init+0x58>
 80096e0:	6a63      	ldr	r3, [r4, #36]	; 0x24
 80096e2:	b113      	cbz	r3, 80096ea <HAL_UART_Init+0x34>
 80096e4:	4620      	mov	r0, r4
 80096e6:	f7ff febf 	bl	8009468 <UART_AdvFeatureConfig>
 80096ea:	6823      	ldr	r3, [r4, #0]
 80096ec:	685a      	ldr	r2, [r3, #4]
 80096ee:	f422 4290 	bic.w	r2, r2, #18432	; 0x4800
 80096f2:	605a      	str	r2, [r3, #4]
 80096f4:	689a      	ldr	r2, [r3, #8]
 80096f6:	f022 022a 	bic.w	r2, r2, #42	; 0x2a
 80096fa:	609a      	str	r2, [r3, #8]
 80096fc:	681a      	ldr	r2, [r3, #0]
 80096fe:	f042 0201 	orr.w	r2, r2, #1
 8009702:	4620      	mov	r0, r4
 8009704:	601a      	str	r2, [r3, #0]
 8009706:	e8bd 4010 	ldmia.w	sp!, {r4, lr}
 800970a:	f7ff bfa1 	b.w	8009650 <UART_CheckIdleState>
 800970e:	2001      	movs	r0, #1
 8009710:	bd10      	pop	{r4, pc}
	...

08009714 <UART_Start_Receive_DMA>:
 8009714:	b570      	push	{r4, r5, r6, lr}
 8009716:	2322      	movs	r3, #34	; 0x22
 8009718:	2500      	movs	r5, #0
 800971a:	f8c0 5080 	str.w	r5, [r0, #128]	; 0x80
 800971e:	4604      	mov	r4, r0
 8009720:	6541      	str	r1, [r0, #84]	; 0x54
 8009722:	f8a0 2058 	strh.w	r2, [r0, #88]	; 0x58
 8009726:	67c3      	str	r3, [r0, #124]	; 0x7c
 8009728:	6f00      	ldr	r0, [r0, #112]	; 0x70
 800972a:	b1b8      	cbz	r0, 800975c <UART_Start_Receive_DMA+0x48>
 800972c:	4b14      	ldr	r3, [pc, #80]	; (8009780 <UART_Start_Receive_DMA+0x6c>)
 800972e:	6826      	ldr	r6, [r4, #0]
 8009730:	62c3      	str	r3, [r0, #44]	; 0x2c
 8009732:	4b14      	ldr	r3, [pc, #80]	; (8009784 <UART_Start_Receive_DMA+0x70>)
 8009734:	6303      	str	r3, [r0, #48]	; 0x30
 8009736:	4b14      	ldr	r3, [pc, #80]	; (8009788 <UART_Start_Receive_DMA+0x74>)
 8009738:	e9c0 350d 	strd	r3, r5, [r0, #52]	; 0x34
 800973c:	4613      	mov	r3, r2
 800973e:	460a      	mov	r2, r1
 8009740:	f106 0124 	add.w	r1, r6, #36	; 0x24
 8009744:	f7fc fc76 	bl	8006034 <HAL_DMA_Start_IT>
 8009748:	b140      	cbz	r0, 800975c <UART_Start_Receive_DMA+0x48>
 800974a:	2310      	movs	r3, #16
 800974c:	f8c4 3080 	str.w	r3, [r4, #128]	; 0x80
 8009750:	2320      	movs	r3, #32
 8009752:	f884 5074 	strb.w	r5, [r4, #116]	; 0x74
 8009756:	67a3      	str	r3, [r4, #120]	; 0x78
 8009758:	2001      	movs	r0, #1
 800975a:	bd70      	pop	{r4, r5, r6, pc}
 800975c:	6823      	ldr	r3, [r4, #0]
 800975e:	2000      	movs	r0, #0
 8009760:	f884 0074 	strb.w	r0, [r4, #116]	; 0x74
 8009764:	681a      	ldr	r2, [r3, #0]
 8009766:	f442 7280 	orr.w	r2, r2, #256	; 0x100
 800976a:	601a      	str	r2, [r3, #0]
 800976c:	689a      	ldr	r2, [r3, #8]
 800976e:	f042 0201 	orr.w	r2, r2, #1
 8009772:	609a      	str	r2, [r3, #8]
 8009774:	689a      	ldr	r2, [r3, #8]
 8009776:	f042 0240 	orr.w	r2, r2, #64	; 0x40
 800977a:	609a      	str	r2, [r3, #8]
 800977c:	e7ed      	b.n	800975a <UART_Start_Receive_DMA+0x46>
 800977e:	bf00      	nop
 8009780:	080091e9 	.word	0x080091e9
 8009784:	080091cd 	.word	0x080091cd
 8009788:	08008f4f 	.word	0x08008f4f

0800978c <HAL_UART_Receive_DMA>:
 800978c:	6fc3      	ldr	r3, [r0, #124]	; 0x7c
 800978e:	2b20      	cmp	r3, #32
 8009790:	b410      	push	{r4}
 8009792:	d11d      	bne.n	80097d0 <HAL_UART_Receive_DMA+0x44>
 8009794:	b1c1      	cbz	r1, 80097c8 <HAL_UART_Receive_DMA+0x3c>
 8009796:	b1ba      	cbz	r2, 80097c8 <HAL_UART_Receive_DMA+0x3c>
 8009798:	f890 3074 	ldrb.w	r3, [r0, #116]	; 0x74
 800979c:	2b01      	cmp	r3, #1
 800979e:	d017      	beq.n	80097d0 <HAL_UART_Receive_DMA+0x44>
 80097a0:	2301      	movs	r3, #1
 80097a2:	f880 3074 	strb.w	r3, [r0, #116]	; 0x74
 80097a6:	2300      	movs	r3, #0
 80097a8:	4c0a      	ldr	r4, [pc, #40]	; (80097d4 <HAL_UART_Receive_DMA+0x48>)
 80097aa:	6603      	str	r3, [r0, #96]	; 0x60
 80097ac:	6803      	ldr	r3, [r0, #0]
 80097ae:	42a3      	cmp	r3, r4
 80097b0:	d006      	beq.n	80097c0 <HAL_UART_Receive_DMA+0x34>
 80097b2:	685c      	ldr	r4, [r3, #4]
 80097b4:	0224      	lsls	r4, r4, #8
 80097b6:	bf42      	ittt	mi
 80097b8:	681c      	ldrmi	r4, [r3, #0]
 80097ba:	f044 6480 	orrmi.w	r4, r4, #67108864	; 0x4000000
 80097be:	601c      	strmi	r4, [r3, #0]
 80097c0:	f85d 4b04 	ldr.w	r4, [sp], #4
 80097c4:	f7ff bfa6 	b.w	8009714 <UART_Start_Receive_DMA>
 80097c8:	2001      	movs	r0, #1
 80097ca:	f85d 4b04 	ldr.w	r4, [sp], #4
 80097ce:	4770      	bx	lr
 80097d0:	2002      	movs	r0, #2
 80097d2:	e7fa      	b.n	80097ca <HAL_UART_Receive_DMA+0x3e>
 80097d4:	40008000 	.word	0x40008000

080097d8 <HAL_UARTEx_WakeupCallback>:
 80097d8:	4770      	bx	lr

080097da <USB_CoreInit>:
 80097da:	b084      	sub	sp, #16
 80097dc:	a801      	add	r0, sp, #4
 80097de:	e880 000e 	stmia.w	r0, {r1, r2, r3}
 80097e2:	b004      	add	sp, #16
 80097e4:	2000      	movs	r0, #0
 80097e6:	4770      	bx	lr

080097e8 <USB_EnableGlobalInt>:
 80097e8:	2300      	movs	r3, #0
 80097ea:	f64b 7280 	movw	r2, #49024	; 0xbf80
 80097ee:	f8a0 3044 	strh.w	r3, [r0, #68]	; 0x44
 80097f2:	f8a0 2040 	strh.w	r2, [r0, #64]	; 0x40
 80097f6:	4618      	mov	r0, r3
 80097f8:	4770      	bx	lr

080097fa <USB_DisableGlobalInt>:
 80097fa:	f8b0 3040 	ldrh.w	r3, [r0, #64]	; 0x40
 80097fe:	f423 537e 	bic.w	r3, r3, #16256	; 0x3f80
 8009802:	045b      	lsls	r3, r3, #17
 8009804:	0c5b      	lsrs	r3, r3, #17
 8009806:	f8a0 3040 	strh.w	r3, [r0, #64]	; 0x40
 800980a:	2000      	movs	r0, #0
 800980c:	4770      	bx	lr

0800980e <USB_SetCurrentMode>:
 800980e:	2000      	movs	r0, #0
 8009810:	4770      	bx	lr

08009812 <USB_DevInit>:
 8009812:	b084      	sub	sp, #16
 8009814:	b510      	push	{r4, lr}
 8009816:	ac03      	add	r4, sp, #12
 8009818:	e884 000e 	stmia.w	r4, {r1, r2, r3}
 800981c:	e8bd 4010 	ldmia.w	sp!, {r4, lr}
 8009820:	2301      	movs	r3, #1
 8009822:	f8a0 3040 	strh.w	r3, [r0, #64]	; 0x40
 8009826:	2300      	movs	r3, #0
 8009828:	f8a0 3040 	strh.w	r3, [r0, #64]	; 0x40
 800982c:	b004      	add	sp, #16
 800982e:	f8a0 3044 	strh.w	r3, [r0, #68]	; 0x44
 8009832:	f8a0 3050 	strh.w	r3, [r0, #80]	; 0x50
 8009836:	4618      	mov	r0, r3
 8009838:	4770      	bx	lr
	...

0800983c <USB_ActivateEndpoint>:
 800983c:	b5f0      	push	{r4, r5, r6, r7, lr}
 800983e:	780d      	ldrb	r5, [r1, #0]
 8009840:	78ca      	ldrb	r2, [r1, #3]
 8009842:	f830 3025 	ldrh.w	r3, [r0, r5, lsl #2]
 8009846:	f423 43ec 	bic.w	r3, r3, #30208	; 0x7600
 800984a:	f023 0370 	bic.w	r3, r3, #112	; 0x70
 800984e:	041b      	lsls	r3, r3, #16
 8009850:	0c1b      	lsrs	r3, r3, #16
 8009852:	2a03      	cmp	r2, #3
 8009854:	d851      	bhi.n	80098fa <USB_ActivateEndpoint+0xbe>
 8009856:	e8df f002 	tbb	[pc, r2]
 800985a:	4d02      	.short	0x4d02
 800985c:	494b      	.short	0x494b
 800985e:	f443 7300 	orr.w	r3, r3, #512	; 0x200
 8009862:	f248 0480 	movw	r4, #32896	; 0x8080
 8009866:	4323      	orrs	r3, r4
 8009868:	f820 3025 	strh.w	r3, [r0, r5, lsl #2]
 800986c:	780f      	ldrb	r7, [r1, #0]
 800986e:	4d9e      	ldr	r5, [pc, #632]	; (8009ae8 <USB_ActivateEndpoint+0x2ac>)
 8009870:	f830 3027 	ldrh.w	r3, [r0, r7, lsl #2]
 8009874:	b29b      	uxth	r3, r3
 8009876:	402b      	ands	r3, r5
 8009878:	433b      	orrs	r3, r7
 800987a:	4323      	orrs	r3, r4
 800987c:	f820 3027 	strh.w	r3, [r0, r7, lsl #2]
 8009880:	7b0b      	ldrb	r3, [r1, #12]
 8009882:	780c      	ldrb	r4, [r1, #0]
 8009884:	2b00      	cmp	r3, #0
 8009886:	f040 808b 	bne.w	80099a0 <USB_ActivateEndpoint+0x164>
 800988a:	88ce      	ldrh	r6, [r1, #6]
 800988c:	784f      	ldrb	r7, [r1, #1]
 800988e:	0876      	lsrs	r6, r6, #1
 8009890:	2308      	movs	r3, #8
 8009892:	0076      	lsls	r6, r6, #1
 8009894:	fb13 0404 	smlabb	r4, r3, r4, r0
 8009898:	b38f      	cbz	r7, 80098fe <USB_ActivateEndpoint+0xc2>
 800989a:	f8b0 3050 	ldrh.w	r3, [r0, #80]	; 0x50
 800989e:	fa14 f483 	uxtah	r4, r4, r3
 80098a2:	f8a4 6400 	strh.w	r6, [r4, #1024]	; 0x400
 80098a6:	780b      	ldrb	r3, [r1, #0]
 80098a8:	f830 4023 	ldrh.w	r4, [r0, r3, lsl #2]
 80098ac:	0667      	lsls	r7, r4, #25
 80098ae:	d509      	bpl.n	80098c4 <USB_ActivateEndpoint+0x88>
 80098b0:	f830 4023 	ldrh.w	r4, [r0, r3, lsl #2]
 80098b4:	b2a4      	uxth	r4, r4
 80098b6:	402c      	ands	r4, r5
 80098b8:	f444 4400 	orr.w	r4, r4, #32768	; 0x8000
 80098bc:	f044 04c0 	orr.w	r4, r4, #192	; 0xc0
 80098c0:	f820 4023 	strh.w	r4, [r0, r3, lsl #2]
 80098c4:	78cb      	ldrb	r3, [r1, #3]
 80098c6:	780c      	ldrb	r4, [r1, #0]
 80098c8:	4988      	ldr	r1, [pc, #544]	; (8009aec <USB_ActivateEndpoint+0x2b0>)
 80098ca:	2b01      	cmp	r3, #1
 80098cc:	f830 3024 	ldrh.w	r3, [r0, r4, lsl #2]
 80098d0:	b29b      	uxth	r3, r3
 80098d2:	ea03 0301 	and.w	r3, r3, r1
 80098d6:	bf18      	it	ne
 80098d8:	f083 0320 	eorne.w	r3, r3, #32
 80098dc:	f443 4300 	orr.w	r3, r3, #32768	; 0x8000
 80098e0:	f043 0380 	orr.w	r3, r3, #128	; 0x80
 80098e4:	f820 3024 	strh.w	r3, [r0, r4, lsl #2]
 80098e8:	4610      	mov	r0, r2
 80098ea:	bdf0      	pop	{r4, r5, r6, r7, pc}
 80098ec:	f443 63c0 	orr.w	r3, r3, #1536	; 0x600
 80098f0:	2200      	movs	r2, #0
 80098f2:	e7b6      	b.n	8009862 <USB_ActivateEndpoint+0x26>
 80098f4:	f443 6380 	orr.w	r3, r3, #1024	; 0x400
 80098f8:	e7fa      	b.n	80098f0 <USB_ActivateEndpoint+0xb4>
 80098fa:	2201      	movs	r2, #1
 80098fc:	e7b1      	b.n	8009862 <USB_ActivateEndpoint+0x26>
 80098fe:	f8b0 5050 	ldrh.w	r5, [r0, #80]	; 0x50
 8009902:	fa14 f485 	uxtah	r4, r4, r5
 8009906:	f8a4 6404 	strh.w	r6, [r4, #1028]	; 0x404
 800990a:	780d      	ldrb	r5, [r1, #0]
 800990c:	f8b0 4050 	ldrh.w	r4, [r0, #80]	; 0x50
 8009910:	690e      	ldr	r6, [r1, #16]
 8009912:	fb13 0305 	smlabb	r3, r3, r5, r0
 8009916:	b2a4      	uxth	r4, r4
 8009918:	f203 4306 	addw	r3, r3, #1030	; 0x406
 800991c:	bb7e      	cbnz	r6, 800997e <USB_ActivateEndpoint+0x142>
 800991e:	5b1d      	ldrh	r5, [r3, r4]
 8009920:	f425 45f8 	bic.w	r5, r5, #31744	; 0x7c00
 8009924:	042d      	lsls	r5, r5, #16
 8009926:	0c2d      	lsrs	r5, r5, #16
 8009928:	531d      	strh	r5, [r3, r4]
 800992a:	5b1d      	ldrh	r5, [r3, r4]
 800992c:	ea6f 4545 	mvn.w	r5, r5, lsl #17
 8009930:	ea6f 4555 	mvn.w	r5, r5, lsr #17
 8009934:	b2ad      	uxth	r5, r5
 8009936:	531d      	strh	r5, [r3, r4]
 8009938:	780c      	ldrb	r4, [r1, #0]
 800993a:	f830 3024 	ldrh.w	r3, [r0, r4, lsl #2]
 800993e:	045f      	lsls	r7, r3, #17
 8009940:	d50d      	bpl.n	800995e <USB_ActivateEndpoint+0x122>
 8009942:	f830 3024 	ldrh.w	r3, [r0, r4, lsl #2]
 8009946:	f423 43e0 	bic.w	r3, r3, #28672	; 0x7000
 800994a:	f023 0370 	bic.w	r3, r3, #112	; 0x70
 800994e:	041b      	lsls	r3, r3, #16
 8009950:	0c1b      	lsrs	r3, r3, #16
 8009952:	f443 4340 	orr.w	r3, r3, #49152	; 0xc000
 8009956:	f043 0380 	orr.w	r3, r3, #128	; 0x80
 800995a:	f820 3024 	strh.w	r3, [r0, r4, lsl #2]
 800995e:	7809      	ldrb	r1, [r1, #0]
 8009960:	f830 3021 	ldrh.w	r3, [r0, r1, lsl #2]
 8009964:	f423 4380 	bic.w	r3, r3, #16384	; 0x4000
 8009968:	f023 0370 	bic.w	r3, r3, #112	; 0x70
 800996c:	041b      	lsls	r3, r3, #16
 800996e:	0c1b      	lsrs	r3, r3, #16
 8009970:	f483 5340 	eor.w	r3, r3, #12288	; 0x3000
 8009974:	f443 4300 	orr.w	r3, r3, #32768	; 0x8000
 8009978:	f043 0380 	orr.w	r3, r3, #128	; 0x80
 800997c:	e074      	b.n	8009a68 <USB_ActivateEndpoint+0x22c>
 800997e:	2e3e      	cmp	r6, #62	; 0x3e
 8009980:	d805      	bhi.n	800998e <USB_ActivateEndpoint+0x152>
 8009982:	0875      	lsrs	r5, r6, #1
 8009984:	07f6      	lsls	r6, r6, #31
 8009986:	bf48      	it	mi
 8009988:	3501      	addmi	r5, #1
 800998a:	02ad      	lsls	r5, r5, #10
 800998c:	e7d2      	b.n	8009934 <USB_ActivateEndpoint+0xf8>
 800998e:	0977      	lsrs	r7, r6, #5
 8009990:	06f5      	lsls	r5, r6, #27
 8009992:	4d57      	ldr	r5, [pc, #348]	; (8009af0 <USB_ActivateEndpoint+0x2b4>)
 8009994:	bf08      	it	eq
 8009996:	f107 37ff 	addeq.w	r7, r7, #4294967295
 800999a:	ea45 2587 	orr.w	r5, r5, r7, lsl #10
 800999e:	e7c9      	b.n	8009934 <USB_ActivateEndpoint+0xf8>
 80099a0:	b224      	sxth	r4, r4
 80099a2:	f830 3024 	ldrh.w	r3, [r0, r4, lsl #2]
 80099a6:	b29b      	uxth	r3, r3
 80099a8:	402b      	ands	r3, r5
 80099aa:	f443 4301 	orr.w	r3, r3, #33024	; 0x8100
 80099ae:	f043 0380 	orr.w	r3, r3, #128	; 0x80
 80099b2:	f820 3024 	strh.w	r3, [r0, r4, lsl #2]
 80099b6:	780c      	ldrb	r4, [r1, #0]
 80099b8:	f8b0 7050 	ldrh.w	r7, [r0, #80]	; 0x50
 80099bc:	890e      	ldrh	r6, [r1, #8]
 80099be:	2308      	movs	r3, #8
 80099c0:	fb13 0404 	smlabb	r4, r3, r4, r0
 80099c4:	f504 6480 	add.w	r4, r4, #1024	; 0x400
 80099c8:	b2bf      	uxth	r7, r7
 80099ca:	0876      	lsrs	r6, r6, #1
 80099cc:	0076      	lsls	r6, r6, #1
 80099ce:	53e6      	strh	r6, [r4, r7]
 80099d0:	780c      	ldrb	r4, [r1, #0]
 80099d2:	f8b0 6050 	ldrh.w	r6, [r0, #80]	; 0x50
 80099d6:	fb13 0304 	smlabb	r3, r3, r4, r0
 80099da:	894c      	ldrh	r4, [r1, #10]
 80099dc:	f203 4304 	addw	r3, r3, #1028	; 0x404
 80099e0:	b2b6      	uxth	r6, r6
 80099e2:	0864      	lsrs	r4, r4, #1
 80099e4:	0064      	lsls	r4, r4, #1
 80099e6:	539c      	strh	r4, [r3, r6]
 80099e8:	780b      	ldrb	r3, [r1, #0]
 80099ea:	784c      	ldrb	r4, [r1, #1]
 80099ec:	b21b      	sxth	r3, r3
 80099ee:	2c00      	cmp	r4, #0
 80099f0:	d13d      	bne.n	8009a6e <USB_ActivateEndpoint+0x232>
 80099f2:	f830 4023 	ldrh.w	r4, [r0, r3, lsl #2]
 80099f6:	0466      	lsls	r6, r4, #17
 80099f8:	d509      	bpl.n	8009a0e <USB_ActivateEndpoint+0x1d2>
 80099fa:	f830 4023 	ldrh.w	r4, [r0, r3, lsl #2]
 80099fe:	b2a4      	uxth	r4, r4
 8009a00:	402c      	ands	r4, r5
 8009a02:	f444 4440 	orr.w	r4, r4, #49152	; 0xc000
 8009a06:	f044 0480 	orr.w	r4, r4, #128	; 0x80
 8009a0a:	f820 4023 	strh.w	r4, [r0, r3, lsl #2]
 8009a0e:	780c      	ldrb	r4, [r1, #0]
 8009a10:	f830 3024 	ldrh.w	r3, [r0, r4, lsl #2]
 8009a14:	065d      	lsls	r5, r3, #25
 8009a16:	d50d      	bpl.n	8009a34 <USB_ActivateEndpoint+0x1f8>
 8009a18:	f830 3024 	ldrh.w	r3, [r0, r4, lsl #2]
 8009a1c:	f423 43e0 	bic.w	r3, r3, #28672	; 0x7000
 8009a20:	f023 0370 	bic.w	r3, r3, #112	; 0x70
 8009a24:	041b      	lsls	r3, r3, #16
 8009a26:	0c1b      	lsrs	r3, r3, #16
 8009a28:	f443 4300 	orr.w	r3, r3, #32768	; 0x8000
 8009a2c:	f043 03c0 	orr.w	r3, r3, #192	; 0xc0
 8009a30:	f820 3024 	strh.w	r3, [r0, r4, lsl #2]
 8009a34:	780d      	ldrb	r5, [r1, #0]
 8009a36:	f830 3025 	ldrh.w	r3, [r0, r5, lsl #2]
 8009a3a:	f423 4380 	bic.w	r3, r3, #16384	; 0x4000
 8009a3e:	f023 0370 	bic.w	r3, r3, #112	; 0x70
 8009a42:	041b      	lsls	r3, r3, #16
 8009a44:	0c1b      	lsrs	r3, r3, #16
 8009a46:	f248 0480 	movw	r4, #32896	; 0x8080
 8009a4a:	f483 5340 	eor.w	r3, r3, #12288	; 0x3000
 8009a4e:	4323      	orrs	r3, r4
 8009a50:	f820 3025 	strh.w	r3, [r0, r5, lsl #2]
 8009a54:	7809      	ldrb	r1, [r1, #0]
 8009a56:	f830 3021 	ldrh.w	r3, [r0, r1, lsl #2]
 8009a5a:	f423 43e0 	bic.w	r3, r3, #28672	; 0x7000
 8009a5e:	f023 0340 	bic.w	r3, r3, #64	; 0x40
 8009a62:	041b      	lsls	r3, r3, #16
 8009a64:	0c1b      	lsrs	r3, r3, #16
 8009a66:	4323      	orrs	r3, r4
 8009a68:	f820 3021 	strh.w	r3, [r0, r1, lsl #2]
 8009a6c:	e73c      	b.n	80098e8 <USB_ActivateEndpoint+0xac>
 8009a6e:	f830 4023 	ldrh.w	r4, [r0, r3, lsl #2]
 8009a72:	0464      	lsls	r4, r4, #17
 8009a74:	d509      	bpl.n	8009a8a <USB_ActivateEndpoint+0x24e>
 8009a76:	f830 4023 	ldrh.w	r4, [r0, r3, lsl #2]
 8009a7a:	b2a4      	uxth	r4, r4
 8009a7c:	402c      	ands	r4, r5
 8009a7e:	f444 4440 	orr.w	r4, r4, #49152	; 0xc000
 8009a82:	f044 0480 	orr.w	r4, r4, #128	; 0x80
 8009a86:	f820 4023 	strh.w	r4, [r0, r3, lsl #2]
 8009a8a:	780c      	ldrb	r4, [r1, #0]
 8009a8c:	f830 3024 	ldrh.w	r3, [r0, r4, lsl #2]
 8009a90:	065b      	lsls	r3, r3, #25
 8009a92:	d50d      	bpl.n	8009ab0 <USB_ActivateEndpoint+0x274>
 8009a94:	f830 3024 	ldrh.w	r3, [r0, r4, lsl #2]
 8009a98:	f423 43e0 	bic.w	r3, r3, #28672	; 0x7000
 8009a9c:	f023 0370 	bic.w	r3, r3, #112	; 0x70
 8009aa0:	041b      	lsls	r3, r3, #16
 8009aa2:	0c1b      	lsrs	r3, r3, #16
 8009aa4:	f443 4300 	orr.w	r3, r3, #32768	; 0x8000
 8009aa8:	f043 03c0 	orr.w	r3, r3, #192	; 0xc0
 8009aac:	f820 3024 	strh.w	r3, [r0, r4, lsl #2]
 8009ab0:	78cb      	ldrb	r3, [r1, #3]
 8009ab2:	780c      	ldrb	r4, [r1, #0]
 8009ab4:	4d0d      	ldr	r5, [pc, #52]	; (8009aec <USB_ActivateEndpoint+0x2b0>)
 8009ab6:	2b01      	cmp	r3, #1
 8009ab8:	f830 3024 	ldrh.w	r3, [r0, r4, lsl #2]
 8009abc:	b29b      	uxth	r3, r3
 8009abe:	ea03 0305 	and.w	r3, r3, r5
 8009ac2:	bf18      	it	ne
 8009ac4:	f083 0320 	eorne.w	r3, r3, #32
 8009ac8:	f443 4300 	orr.w	r3, r3, #32768	; 0x8000
 8009acc:	f043 0380 	orr.w	r3, r3, #128	; 0x80
 8009ad0:	f820 3024 	strh.w	r3, [r0, r4, lsl #2]
 8009ad4:	7809      	ldrb	r1, [r1, #0]
 8009ad6:	f830 3021 	ldrh.w	r3, [r0, r1, lsl #2]
 8009ada:	f423 4380 	bic.w	r3, r3, #16384	; 0x4000
 8009ade:	f023 0370 	bic.w	r3, r3, #112	; 0x70
 8009ae2:	041b      	lsls	r3, r3, #16
 8009ae4:	0c1b      	lsrs	r3, r3, #16
 8009ae6:	e745      	b.n	8009974 <USB_ActivateEndpoint+0x138>
 8009ae8:	ffff8f8f 	.word	0xffff8f8f
 8009aec:	ffff8fbf 	.word	0xffff8fbf
 8009af0:	ffff8000 	.word	0xffff8000

08009af4 <USB_EPSetStall>:
 8009af4:	784b      	ldrb	r3, [r1, #1]
 8009af6:	780a      	ldrb	r2, [r1, #0]
 8009af8:	b18b      	cbz	r3, 8009b1e <USB_EPSetStall+0x2a>
 8009afa:	f830 3022 	ldrh.w	r3, [r0, r2, lsl #2]
 8009afe:	f423 43e0 	bic.w	r3, r3, #28672	; 0x7000
 8009b02:	f023 0340 	bic.w	r3, r3, #64	; 0x40
 8009b06:	041b      	lsls	r3, r3, #16
 8009b08:	0c1b      	lsrs	r3, r3, #16
 8009b0a:	f083 0310 	eor.w	r3, r3, #16
 8009b0e:	f443 4300 	orr.w	r3, r3, #32768	; 0x8000
 8009b12:	f043 0380 	orr.w	r3, r3, #128	; 0x80
 8009b16:	f820 3022 	strh.w	r3, [r0, r2, lsl #2]
 8009b1a:	2000      	movs	r0, #0
 8009b1c:	4770      	bx	lr
 8009b1e:	f830 3022 	ldrh.w	r3, [r0, r2, lsl #2]
 8009b22:	f423 4380 	bic.w	r3, r3, #16384	; 0x4000
 8009b26:	f023 0370 	bic.w	r3, r3, #112	; 0x70
 8009b2a:	041b      	lsls	r3, r3, #16
 8009b2c:	0c1b      	lsrs	r3, r3, #16
 8009b2e:	f483 5380 	eor.w	r3, r3, #4096	; 0x1000
 8009b32:	e7ec      	b.n	8009b0e <USB_EPSetStall+0x1a>

08009b34 <USB_EPClearStall>:
 8009b34:	7b0b      	ldrb	r3, [r1, #12]
 8009b36:	bb43      	cbnz	r3, 8009b8a <USB_EPClearStall+0x56>
 8009b38:	784b      	ldrb	r3, [r1, #1]
 8009b3a:	780a      	ldrb	r2, [r1, #0]
 8009b3c:	b33b      	cbz	r3, 8009b8e <USB_EPClearStall+0x5a>
 8009b3e:	f830 3022 	ldrh.w	r3, [r0, r2, lsl #2]
 8009b42:	065b      	lsls	r3, r3, #25
 8009b44:	d50d      	bpl.n	8009b62 <USB_EPClearStall+0x2e>
 8009b46:	f830 3022 	ldrh.w	r3, [r0, r2, lsl #2]
 8009b4a:	f423 43e0 	bic.w	r3, r3, #28672	; 0x7000
 8009b4e:	f023 0370 	bic.w	r3, r3, #112	; 0x70
 8009b52:	041b      	lsls	r3, r3, #16
 8009b54:	0c1b      	lsrs	r3, r3, #16
 8009b56:	f443 4300 	orr.w	r3, r3, #32768	; 0x8000
 8009b5a:	f043 03c0 	orr.w	r3, r3, #192	; 0xc0
 8009b5e:	f820 3022 	strh.w	r3, [r0, r2, lsl #2]
 8009b62:	78cb      	ldrb	r3, [r1, #3]
 8009b64:	2b01      	cmp	r3, #1
 8009b66:	d010      	beq.n	8009b8a <USB_EPClearStall+0x56>
 8009b68:	780a      	ldrb	r2, [r1, #0]
 8009b6a:	f830 3022 	ldrh.w	r3, [r0, r2, lsl #2]
 8009b6e:	f423 43e0 	bic.w	r3, r3, #28672	; 0x7000
 8009b72:	f023 0340 	bic.w	r3, r3, #64	; 0x40
 8009b76:	041b      	lsls	r3, r3, #16
 8009b78:	0c1b      	lsrs	r3, r3, #16
 8009b7a:	f083 0320 	eor.w	r3, r3, #32
 8009b7e:	f443 4300 	orr.w	r3, r3, #32768	; 0x8000
 8009b82:	f043 0380 	orr.w	r3, r3, #128	; 0x80
 8009b86:	f820 3022 	strh.w	r3, [r0, r2, lsl #2]
 8009b8a:	2000      	movs	r0, #0
 8009b8c:	4770      	bx	lr
 8009b8e:	f830 3022 	ldrh.w	r3, [r0, r2, lsl #2]
 8009b92:	045b      	lsls	r3, r3, #17
 8009b94:	d50d      	bpl.n	8009bb2 <USB_EPClearStall+0x7e>
 8009b96:	f830 3022 	ldrh.w	r3, [r0, r2, lsl #2]
 8009b9a:	f423 43e0 	bic.w	r3, r3, #28672	; 0x7000
 8009b9e:	f023 0370 	bic.w	r3, r3, #112	; 0x70
 8009ba2:	041b      	lsls	r3, r3, #16
 8009ba4:	0c1b      	lsrs	r3, r3, #16
 8009ba6:	f443 4340 	orr.w	r3, r3, #49152	; 0xc000
 8009baa:	f043 0380 	orr.w	r3, r3, #128	; 0x80
 8009bae:	f820 3022 	strh.w	r3, [r0, r2, lsl #2]
 8009bb2:	780a      	ldrb	r2, [r1, #0]
 8009bb4:	f830 3022 	ldrh.w	r3, [r0, r2, lsl #2]
 8009bb8:	f423 4380 	bic.w	r3, r3, #16384	; 0x4000
 8009bbc:	f023 0370 	bic.w	r3, r3, #112	; 0x70
 8009bc0:	041b      	lsls	r3, r3, #16
 8009bc2:	0c1b      	lsrs	r3, r3, #16
 8009bc4:	f483 5340 	eor.w	r3, r3, #12288	; 0x3000
 8009bc8:	e7d9      	b.n	8009b7e <USB_EPClearStall+0x4a>

08009bca <USB_SetDevAddress>:
 8009bca:	b911      	cbnz	r1, 8009bd2 <USB_SetDevAddress+0x8>
 8009bcc:	2380      	movs	r3, #128	; 0x80
 8009bce:	f8a0 304c 	strh.w	r3, [r0, #76]	; 0x4c
 8009bd2:	2000      	movs	r0, #0
 8009bd4:	4770      	bx	lr

08009bd6 <USB_DevConnect>:
 8009bd6:	f8b0 3058 	ldrh.w	r3, [r0, #88]	; 0x58
 8009bda:	ea6f 4343 	mvn.w	r3, r3, lsl #17
 8009bde:	ea6f 4353 	mvn.w	r3, r3, lsr #17
 8009be2:	b29b      	uxth	r3, r3
 8009be4:	f8a0 3058 	strh.w	r3, [r0, #88]	; 0x58
 8009be8:	2000      	movs	r0, #0
 8009bea:	4770      	bx	lr

08009bec <USB_DevDisconnect>:
 8009bec:	f8b0 3058 	ldrh.w	r3, [r0, #88]	; 0x58
 8009bf0:	f3c3 030e 	ubfx	r3, r3, #0, #15
 8009bf4:	f8a0 3058 	strh.w	r3, [r0, #88]	; 0x58
 8009bf8:	2000      	movs	r0, #0
 8009bfa:	4770      	bx	lr

08009bfc <USB_ReadInterrupts>:
 8009bfc:	f8b0 0044 	ldrh.w	r0, [r0, #68]	; 0x44
 8009c00:	b280      	uxth	r0, r0
 8009c02:	4770      	bx	lr

08009c04 <USB_EP0_OutStart>:
 8009c04:	2000      	movs	r0, #0
 8009c06:	4770      	bx	lr

08009c08 <USB_WritePMA>:
 8009c08:	f502 6280 	add.w	r2, r2, #1024	; 0x400
 8009c0c:	3301      	adds	r3, #1
 8009c0e:	4410      	add	r0, r2
 8009c10:	085b      	lsrs	r3, r3, #1
 8009c12:	eb01 0343 	add.w	r3, r1, r3, lsl #1
 8009c16:	1a40      	subs	r0, r0, r1
 8009c18:	4299      	cmp	r1, r3
 8009c1a:	d100      	bne.n	8009c1e <USB_WritePMA+0x16>
 8009c1c:	4770      	bx	lr
 8009c1e:	880a      	ldrh	r2, [r1, #0]
 8009c20:	5242      	strh	r2, [r0, r1]
 8009c22:	3102      	adds	r1, #2
 8009c24:	e7f8      	b.n	8009c18 <USB_WritePMA+0x10>
	...

08009c28 <USB_EPStartXfer>:
 8009c28:	b5f8      	push	{r3, r4, r5, r6, r7, lr}
 8009c2a:	784a      	ldrb	r2, [r1, #1]
 8009c2c:	7b0f      	ldrb	r7, [r1, #12]
 8009c2e:	2a01      	cmp	r2, #1
 8009c30:	4605      	mov	r5, r0
 8009c32:	460c      	mov	r4, r1
 8009c34:	f040 8263 	bne.w	800a0fe <USB_EPStartXfer+0x4d6>
 8009c38:	690a      	ldr	r2, [r1, #16]
 8009c3a:	698e      	ldr	r6, [r1, #24]
 8009c3c:	6949      	ldr	r1, [r1, #20]
 8009c3e:	4296      	cmp	r6, r2
 8009c40:	bf28      	it	cs
 8009c42:	4616      	movcs	r6, r2
 8009c44:	bb0f      	cbnz	r7, 8009c8a <USB_EPStartXfer+0x62>
 8009c46:	b2b6      	uxth	r6, r6
 8009c48:	88e2      	ldrh	r2, [r4, #6]
 8009c4a:	4633      	mov	r3, r6
 8009c4c:	f7ff ffdc 	bl	8009c08 <USB_WritePMA>
 8009c50:	f8b5 2050 	ldrh.w	r2, [r5, #80]	; 0x50
 8009c54:	7823      	ldrb	r3, [r4, #0]
 8009c56:	f205 4102 	addw	r1, r5, #1026	; 0x402
 8009c5a:	fa11 f282 	uxtah	r2, r1, r2
 8009c5e:	eb02 02c3 	add.w	r2, r2, r3, lsl #3
 8009c62:	8016      	strh	r6, [r2, #0]
 8009c64:	7822      	ldrb	r2, [r4, #0]
 8009c66:	f835 3022 	ldrh.w	r3, [r5, r2, lsl #2]
 8009c6a:	f423 43e0 	bic.w	r3, r3, #28672	; 0x7000
 8009c6e:	f023 0340 	bic.w	r3, r3, #64	; 0x40
 8009c72:	041b      	lsls	r3, r3, #16
 8009c74:	0c1b      	lsrs	r3, r3, #16
 8009c76:	f083 0330 	eor.w	r3, r3, #48	; 0x30
 8009c7a:	f443 4300 	orr.w	r3, r3, #32768	; 0x8000
 8009c7e:	f043 0380 	orr.w	r3, r3, #128	; 0x80
 8009c82:	f825 3022 	strh.w	r3, [r5, r2, lsl #2]
 8009c86:	2000      	movs	r0, #0
 8009c88:	bdf8      	pop	{r3, r4, r5, r6, r7, pc}
 8009c8a:	f894 c003 	ldrb.w	ip, [r4, #3]
 8009c8e:	6a23      	ldr	r3, [r4, #32]
 8009c90:	7827      	ldrb	r7, [r4, #0]
 8009c92:	f1bc 0f02 	cmp.w	ip, #2
 8009c96:	f040 813e 	bne.w	8009f16 <USB_EPStartXfer+0x2ee>
 8009c9a:	429a      	cmp	r2, r3
 8009c9c:	f830 2027 	ldrh.w	r2, [r0, r7, lsl #2]
 8009ca0:	f080 811e 	bcs.w	8009ee0 <USB_EPStartXfer+0x2b8>
 8009ca4:	f422 42e0 	bic.w	r2, r2, #28672	; 0x7000
 8009ca8:	f022 0270 	bic.w	r2, r2, #112	; 0x70
 8009cac:	0412      	lsls	r2, r2, #16
 8009cae:	0c12      	lsrs	r2, r2, #16
 8009cb0:	f442 4201 	orr.w	r2, r2, #33024	; 0x8100
 8009cb4:	f042 0280 	orr.w	r2, r2, #128	; 0x80
 8009cb8:	f820 2027 	strh.w	r2, [r0, r7, lsl #2]
 8009cbc:	7820      	ldrb	r0, [r4, #0]
 8009cbe:	f835 2020 	ldrh.w	r2, [r5, r0, lsl #2]
 8009cc2:	1b9b      	subs	r3, r3, r6
 8009cc4:	f012 0f40 	tst.w	r2, #64	; 0x40
 8009cc8:	6223      	str	r3, [r4, #32]
 8009cca:	7862      	ldrb	r2, [r4, #1]
 8009ccc:	b2b3      	uxth	r3, r6
 8009cce:	f000 8084 	beq.w	8009dda <USB_EPStartXfer+0x1b2>
 8009cd2:	2a00      	cmp	r2, #0
 8009cd4:	d153      	bne.n	8009d7e <USB_EPStartXfer+0x156>
 8009cd6:	f8b5 2050 	ldrh.w	r2, [r5, #80]	; 0x50
 8009cda:	f205 4706 	addw	r7, r5, #1030	; 0x406
 8009cde:	fa17 f282 	uxtah	r2, r7, r2
 8009ce2:	eb02 02c0 	add.w	r2, r2, r0, lsl #3
 8009ce6:	2e00      	cmp	r6, #0
 8009ce8:	d138      	bne.n	8009d5c <USB_EPStartXfer+0x134>
 8009cea:	8810      	ldrh	r0, [r2, #0]
 8009cec:	f420 40f8 	bic.w	r0, r0, #31744	; 0x7c00
 8009cf0:	0400      	lsls	r0, r0, #16
 8009cf2:	0c00      	lsrs	r0, r0, #16
 8009cf4:	8010      	strh	r0, [r2, #0]
 8009cf6:	8810      	ldrh	r0, [r2, #0]
 8009cf8:	ea6f 4040 	mvn.w	r0, r0, lsl #17
 8009cfc:	ea6f 4050 	mvn.w	r0, r0, lsr #17
 8009d00:	b280      	uxth	r0, r0
 8009d02:	8010      	strh	r0, [r2, #0]
 8009d04:	8962      	ldrh	r2, [r4, #10]
 8009d06:	4628      	mov	r0, r5
 8009d08:	f7ff ff7e 	bl	8009c08 <USB_WritePMA>
 8009d0c:	6a20      	ldr	r0, [r4, #32]
 8009d0e:	6923      	ldr	r3, [r4, #16]
 8009d10:	6961      	ldr	r1, [r4, #20]
 8009d12:	7862      	ldrb	r2, [r4, #1]
 8009d14:	4298      	cmp	r0, r3
 8009d16:	bf8c      	ite	hi
 8009d18:	1b83      	subhi	r3, r0, r6
 8009d1a:	2300      	movls	r3, #0
 8009d1c:	4431      	add	r1, r6
 8009d1e:	bf88      	it	hi
 8009d20:	4630      	movhi	r0, r6
 8009d22:	6223      	str	r3, [r4, #32]
 8009d24:	6161      	str	r1, [r4, #20]
 8009d26:	b283      	uxth	r3, r0
 8009d28:	2a00      	cmp	r2, #0
 8009d2a:	d149      	bne.n	8009dc0 <USB_EPStartXfer+0x198>
 8009d2c:	f8b5 2050 	ldrh.w	r2, [r5, #80]	; 0x50
 8009d30:	7826      	ldrb	r6, [r4, #0]
 8009d32:	f205 4702 	addw	r7, r5, #1026	; 0x402
 8009d36:	fa17 f282 	uxtah	r2, r7, r2
 8009d3a:	eb02 02c6 	add.w	r2, r2, r6, lsl #3
 8009d3e:	bb50      	cbnz	r0, 8009d96 <USB_EPStartXfer+0x16e>
 8009d40:	8810      	ldrh	r0, [r2, #0]
 8009d42:	f420 40f8 	bic.w	r0, r0, #31744	; 0x7c00
 8009d46:	0400      	lsls	r0, r0, #16
 8009d48:	0c00      	lsrs	r0, r0, #16
 8009d4a:	8010      	strh	r0, [r2, #0]
 8009d4c:	8810      	ldrh	r0, [r2, #0]
 8009d4e:	ea6f 4040 	mvn.w	r0, r0, lsl #17
 8009d52:	ea6f 4050 	mvn.w	r0, r0, lsr #17
 8009d56:	b280      	uxth	r0, r0
 8009d58:	8010      	strh	r0, [r2, #0]
 8009d5a:	e025      	b.n	8009da8 <USB_EPStartXfer+0x180>
 8009d5c:	2e3e      	cmp	r6, #62	; 0x3e
 8009d5e:	d805      	bhi.n	8009d6c <USB_EPStartXfer+0x144>
 8009d60:	0870      	lsrs	r0, r6, #1
 8009d62:	07f7      	lsls	r7, r6, #31
 8009d64:	bf48      	it	mi
 8009d66:	3001      	addmi	r0, #1
 8009d68:	0280      	lsls	r0, r0, #10
 8009d6a:	e7c9      	b.n	8009d00 <USB_EPStartXfer+0xd8>
 8009d6c:	0977      	lsrs	r7, r6, #5
 8009d6e:	06f0      	lsls	r0, r6, #27
 8009d70:	48ab      	ldr	r0, [pc, #684]	; (800a020 <USB_EPStartXfer+0x3f8>)
 8009d72:	bf08      	it	eq
 8009d74:	f107 37ff 	addeq.w	r7, r7, #4294967295
 8009d78:	ea40 2087 	orr.w	r0, r0, r7, lsl #10
 8009d7c:	e7c0      	b.n	8009d00 <USB_EPStartXfer+0xd8>
 8009d7e:	2a01      	cmp	r2, #1
 8009d80:	d1c0      	bne.n	8009d04 <USB_EPStartXfer+0xdc>
 8009d82:	f8b5 2050 	ldrh.w	r2, [r5, #80]	; 0x50
 8009d86:	f205 4706 	addw	r7, r5, #1030	; 0x406
 8009d8a:	fa17 f282 	uxtah	r2, r7, r2
 8009d8e:	eb02 02c0 	add.w	r2, r2, r0, lsl #3
 8009d92:	8013      	strh	r3, [r2, #0]
 8009d94:	e7b6      	b.n	8009d04 <USB_EPStartXfer+0xdc>
 8009d96:	283e      	cmp	r0, #62	; 0x3e
 8009d98:	d809      	bhi.n	8009dae <USB_EPStartXfer+0x186>
 8009d9a:	0846      	lsrs	r6, r0, #1
 8009d9c:	07c7      	lsls	r7, r0, #31
 8009d9e:	bf48      	it	mi
 8009da0:	3601      	addmi	r6, #1
 8009da2:	02b6      	lsls	r6, r6, #10
 8009da4:	b2b6      	uxth	r6, r6
 8009da6:	8016      	strh	r6, [r2, #0]
 8009da8:	8922      	ldrh	r2, [r4, #8]
 8009daa:	4628      	mov	r0, r5
 8009dac:	e0b0      	b.n	8009f10 <USB_EPStartXfer+0x2e8>
 8009dae:	0946      	lsrs	r6, r0, #5
 8009db0:	06c0      	lsls	r0, r0, #27
 8009db2:	489b      	ldr	r0, [pc, #620]	; (800a020 <USB_EPStartXfer+0x3f8>)
 8009db4:	bf08      	it	eq
 8009db6:	f106 36ff 	addeq.w	r6, r6, #4294967295
 8009dba:	ea40 2086 	orr.w	r0, r0, r6, lsl #10
 8009dbe:	e7ca      	b.n	8009d56 <USB_EPStartXfer+0x12e>
 8009dc0:	2a01      	cmp	r2, #1
 8009dc2:	d1f1      	bne.n	8009da8 <USB_EPStartXfer+0x180>
 8009dc4:	f8b5 2050 	ldrh.w	r2, [r5, #80]	; 0x50
 8009dc8:	7820      	ldrb	r0, [r4, #0]
 8009dca:	f205 4602 	addw	r6, r5, #1026	; 0x402
 8009dce:	fa16 f282 	uxtah	r2, r6, r2
 8009dd2:	eb02 02c0 	add.w	r2, r2, r0, lsl #3
 8009dd6:	8013      	strh	r3, [r2, #0]
 8009dd8:	e7e6      	b.n	8009da8 <USB_EPStartXfer+0x180>
 8009dda:	2a00      	cmp	r2, #0
 8009ddc:	d153      	bne.n	8009e86 <USB_EPStartXfer+0x25e>
 8009dde:	f8b5 2050 	ldrh.w	r2, [r5, #80]	; 0x50
 8009de2:	f205 4702 	addw	r7, r5, #1026	; 0x402
 8009de6:	fa17 f282 	uxtah	r2, r7, r2
 8009dea:	eb02 02c0 	add.w	r2, r2, r0, lsl #3
 8009dee:	2e00      	cmp	r6, #0
 8009df0:	d138      	bne.n	8009e64 <USB_EPStartXfer+0x23c>
 8009df2:	8810      	ldrh	r0, [r2, #0]
 8009df4:	f420 40f8 	bic.w	r0, r0, #31744	; 0x7c00
 8009df8:	0400      	lsls	r0, r0, #16
 8009dfa:	0c00      	lsrs	r0, r0, #16
 8009dfc:	8010      	strh	r0, [r2, #0]
 8009dfe:	8810      	ldrh	r0, [r2, #0]
 8009e00:	ea6f 4040 	mvn.w	r0, r0, lsl #17
 8009e04:	ea6f 4050 	mvn.w	r0, r0, lsr #17
 8009e08:	b280      	uxth	r0, r0
 8009e0a:	8010      	strh	r0, [r2, #0]
 8009e0c:	8922      	ldrh	r2, [r4, #8]
 8009e0e:	4628      	mov	r0, r5
 8009e10:	f7ff fefa 	bl	8009c08 <USB_WritePMA>
 8009e14:	6a20      	ldr	r0, [r4, #32]
 8009e16:	6923      	ldr	r3, [r4, #16]
 8009e18:	6961      	ldr	r1, [r4, #20]
 8009e1a:	7862      	ldrb	r2, [r4, #1]
 8009e1c:	4298      	cmp	r0, r3
 8009e1e:	bf8c      	ite	hi
 8009e20:	1b83      	subhi	r3, r0, r6
 8009e22:	2300      	movls	r3, #0
 8009e24:	4431      	add	r1, r6
 8009e26:	bf88      	it	hi
 8009e28:	4630      	movhi	r0, r6
 8009e2a:	6223      	str	r3, [r4, #32]
 8009e2c:	6161      	str	r1, [r4, #20]
 8009e2e:	b283      	uxth	r3, r0
 8009e30:	2a00      	cmp	r2, #0
 8009e32:	d148      	bne.n	8009ec6 <USB_EPStartXfer+0x29e>
 8009e34:	f8b5 2050 	ldrh.w	r2, [r5, #80]	; 0x50
 8009e38:	7826      	ldrb	r6, [r4, #0]
 8009e3a:	f205 4706 	addw	r7, r5, #1030	; 0x406
 8009e3e:	fa17 f282 	uxtah	r2, r7, r2
 8009e42:	eb02 02c6 	add.w	r2, r2, r6, lsl #3
 8009e46:	bb50      	cbnz	r0, 8009e9e <USB_EPStartXfer+0x276>
 8009e48:	8810      	ldrh	r0, [r2, #0]
 8009e4a:	f420 40f8 	bic.w	r0, r0, #31744	; 0x7c00
 8009e4e:	0400      	lsls	r0, r0, #16
 8009e50:	0c00      	lsrs	r0, r0, #16
 8009e52:	8010      	strh	r0, [r2, #0]
 8009e54:	8810      	ldrh	r0, [r2, #0]
 8009e56:	ea6f 4040 	mvn.w	r0, r0, lsl #17
 8009e5a:	ea6f 4050 	mvn.w	r0, r0, lsr #17
 8009e5e:	b280      	uxth	r0, r0
 8009e60:	8010      	strh	r0, [r2, #0]
 8009e62:	e025      	b.n	8009eb0 <USB_EPStartXfer+0x288>
 8009e64:	2e3e      	cmp	r6, #62	; 0x3e
 8009e66:	d805      	bhi.n	8009e74 <USB_EPStartXfer+0x24c>
 8009e68:	0870      	lsrs	r0, r6, #1
 8009e6a:	07f7      	lsls	r7, r6, #31
 8009e6c:	bf48      	it	mi
 8009e6e:	3001      	addmi	r0, #1
 8009e70:	0280      	lsls	r0, r0, #10
 8009e72:	e7c9      	b.n	8009e08 <USB_EPStartXfer+0x1e0>
 8009e74:	0977      	lsrs	r7, r6, #5
 8009e76:	06f0      	lsls	r0, r6, #27
 8009e78:	4869      	ldr	r0, [pc, #420]	; (800a020 <USB_EPStartXfer+0x3f8>)
 8009e7a:	bf08      	it	eq
 8009e7c:	f107 37ff 	addeq.w	r7, r7, #4294967295
 8009e80:	ea40 2087 	orr.w	r0, r0, r7, lsl #10
 8009e84:	e7c0      	b.n	8009e08 <USB_EPStartXfer+0x1e0>
 8009e86:	2a01      	cmp	r2, #1
 8009e88:	d1c0      	bne.n	8009e0c <USB_EPStartXfer+0x1e4>
 8009e8a:	f8b5 2050 	ldrh.w	r2, [r5, #80]	; 0x50
 8009e8e:	f205 4702 	addw	r7, r5, #1026	; 0x402
 8009e92:	fa17 f282 	uxtah	r2, r7, r2
 8009e96:	eb02 02c0 	add.w	r2, r2, r0, lsl #3
 8009e9a:	8013      	strh	r3, [r2, #0]
 8009e9c:	e7b6      	b.n	8009e0c <USB_EPStartXfer+0x1e4>
 8009e9e:	283e      	cmp	r0, #62	; 0x3e
 8009ea0:	d808      	bhi.n	8009eb4 <USB_EPStartXfer+0x28c>
 8009ea2:	0846      	lsrs	r6, r0, #1
 8009ea4:	07c7      	lsls	r7, r0, #31
 8009ea6:	bf48      	it	mi
 8009ea8:	3601      	addmi	r6, #1
 8009eaa:	02b6      	lsls	r6, r6, #10
 8009eac:	b2b6      	uxth	r6, r6
 8009eae:	8016      	strh	r6, [r2, #0]
 8009eb0:	8962      	ldrh	r2, [r4, #10]
 8009eb2:	e77a      	b.n	8009daa <USB_EPStartXfer+0x182>
 8009eb4:	0946      	lsrs	r6, r0, #5
 8009eb6:	06c0      	lsls	r0, r0, #27
 8009eb8:	4859      	ldr	r0, [pc, #356]	; (800a020 <USB_EPStartXfer+0x3f8>)
 8009eba:	bf08      	it	eq
 8009ebc:	f106 36ff 	addeq.w	r6, r6, #4294967295
 8009ec0:	ea40 2086 	orr.w	r0, r0, r6, lsl #10
 8009ec4:	e7cb      	b.n	8009e5e <USB_EPStartXfer+0x236>
 8009ec6:	2a01      	cmp	r2, #1
 8009ec8:	d1f2      	bne.n	8009eb0 <USB_EPStartXfer+0x288>
 8009eca:	f8b5 2050 	ldrh.w	r2, [r5, #80]	; 0x50
 8009ece:	7820      	ldrb	r0, [r4, #0]
 8009ed0:	f205 4606 	addw	r6, r5, #1030	; 0x406
 8009ed4:	fa16 f282 	uxtah	r2, r6, r2
 8009ed8:	eb02 02c0 	add.w	r2, r2, r0, lsl #3
 8009edc:	8013      	strh	r3, [r2, #0]
 8009ede:	e7e7      	b.n	8009eb0 <USB_EPStartXfer+0x288>
 8009ee0:	f422 42e2 	bic.w	r2, r2, #28928	; 0x7100
 8009ee4:	f022 0270 	bic.w	r2, r2, #112	; 0x70
 8009ee8:	0412      	lsls	r2, r2, #16
 8009eea:	0c12      	lsrs	r2, r2, #16
 8009eec:	f442 4200 	orr.w	r2, r2, #32768	; 0x8000
 8009ef0:	f042 0280 	orr.w	r2, r2, #128	; 0x80
 8009ef4:	f820 2027 	strh.w	r2, [r0, r7, lsl #2]
 8009ef8:	f8b0 2050 	ldrh.w	r2, [r0, #80]	; 0x50
 8009efc:	7826      	ldrb	r6, [r4, #0]
 8009efe:	f200 4702 	addw	r7, r0, #1026	; 0x402
 8009f02:	fa17 f282 	uxtah	r2, r7, r2
 8009f06:	eb02 02c6 	add.w	r2, r2, r6, lsl #3
 8009f0a:	b29b      	uxth	r3, r3
 8009f0c:	8013      	strh	r3, [r2, #0]
 8009f0e:	8922      	ldrh	r2, [r4, #8]
 8009f10:	f7ff fe7a 	bl	8009c08 <USB_WritePMA>
 8009f14:	e6a6      	b.n	8009c64 <USB_EPStartXfer+0x3c>
 8009f16:	f830 2027 	ldrh.w	r2, [r0, r7, lsl #2]
 8009f1a:	f422 42e0 	bic.w	r2, r2, #28672	; 0x7000
 8009f1e:	f022 0270 	bic.w	r2, r2, #112	; 0x70
 8009f22:	0412      	lsls	r2, r2, #16
 8009f24:	0c12      	lsrs	r2, r2, #16
 8009f26:	f442 4201 	orr.w	r2, r2, #33024	; 0x8100
 8009f2a:	f042 0280 	orr.w	r2, r2, #128	; 0x80
 8009f2e:	f820 2027 	strh.w	r2, [r0, r7, lsl #2]
 8009f32:	7820      	ldrb	r0, [r4, #0]
 8009f34:	f835 2020 	ldrh.w	r2, [r5, r0, lsl #2]
 8009f38:	1b9b      	subs	r3, r3, r6
 8009f3a:	f012 0f40 	tst.w	r2, #64	; 0x40
 8009f3e:	6223      	str	r3, [r4, #32]
 8009f40:	7862      	ldrb	r2, [r4, #1]
 8009f42:	b2b3      	uxth	r3, r6
 8009f44:	d06e      	beq.n	800a024 <USB_EPStartXfer+0x3fc>
 8009f46:	2a00      	cmp	r2, #0
 8009f48:	d151      	bne.n	8009fee <USB_EPStartXfer+0x3c6>
 8009f4a:	f8b5 2050 	ldrh.w	r2, [r5, #80]	; 0x50
 8009f4e:	f205 4706 	addw	r7, r5, #1030	; 0x406
 8009f52:	fa17 f282 	uxtah	r2, r7, r2
 8009f56:	eb02 02c0 	add.w	r2, r2, r0, lsl #3
 8009f5a:	2e00      	cmp	r6, #0
 8009f5c:	d136      	bne.n	8009fcc <USB_EPStartXfer+0x3a4>
 8009f5e:	8810      	ldrh	r0, [r2, #0]
 8009f60:	f420 40f8 	bic.w	r0, r0, #31744	; 0x7c00
 8009f64:	0400      	lsls	r0, r0, #16
 8009f66:	0c00      	lsrs	r0, r0, #16
 8009f68:	8010      	strh	r0, [r2, #0]
 8009f6a:	8810      	ldrh	r0, [r2, #0]
 8009f6c:	ea6f 4040 	mvn.w	r0, r0, lsl #17
 8009f70:	ea6f 4050 	mvn.w	r0, r0, lsr #17
 8009f74:	b280      	uxth	r0, r0
 8009f76:	8010      	strh	r0, [r2, #0]
 8009f78:	8962      	ldrh	r2, [r4, #10]
 8009f7a:	4628      	mov	r0, r5
 8009f7c:	f7ff fe44 	bl	8009c08 <USB_WritePMA>
 8009f80:	6a22      	ldr	r2, [r4, #32]
 8009f82:	6923      	ldr	r3, [r4, #16]
 8009f84:	6961      	ldr	r1, [r4, #20]
 8009f86:	429a      	cmp	r2, r3
 8009f88:	bf88      	it	hi
 8009f8a:	1b93      	subhi	r3, r2, r6
 8009f8c:	4431      	add	r1, r6
 8009f8e:	bf94      	ite	ls
 8009f90:	2300      	movls	r3, #0
 8009f92:	4632      	movhi	r2, r6
 8009f94:	6161      	str	r1, [r4, #20]
 8009f96:	6223      	str	r3, [r4, #32]
 8009f98:	2a00      	cmp	r2, #0
 8009f9a:	f43f ae63 	beq.w	8009c64 <USB_EPStartXfer+0x3c>
 8009f9e:	7860      	ldrb	r0, [r4, #1]
 8009fa0:	b293      	uxth	r3, r2
 8009fa2:	2800      	cmp	r0, #0
 8009fa4:	d13a      	bne.n	800a01c <USB_EPStartXfer+0x3f4>
 8009fa6:	f8b5 6050 	ldrh.w	r6, [r5, #80]	; 0x50
 8009faa:	7820      	ldrb	r0, [r4, #0]
 8009fac:	f205 4702 	addw	r7, r5, #1026	; 0x402
 8009fb0:	fa17 f686 	uxtah	r6, r7, r6
 8009fb4:	2a3e      	cmp	r2, #62	; 0x3e
 8009fb6:	eb06 06c0 	add.w	r6, r6, r0, lsl #3
 8009fba:	d824      	bhi.n	800a006 <USB_EPStartXfer+0x3de>
 8009fbc:	0850      	lsrs	r0, r2, #1
 8009fbe:	07d7      	lsls	r7, r2, #31
 8009fc0:	bf48      	it	mi
 8009fc2:	3001      	addmi	r0, #1
 8009fc4:	0280      	lsls	r0, r0, #10
 8009fc6:	b280      	uxth	r0, r0
 8009fc8:	8030      	strh	r0, [r6, #0]
 8009fca:	e6ed      	b.n	8009da8 <USB_EPStartXfer+0x180>
 8009fcc:	2e3e      	cmp	r6, #62	; 0x3e
 8009fce:	d805      	bhi.n	8009fdc <USB_EPStartXfer+0x3b4>
 8009fd0:	0870      	lsrs	r0, r6, #1
 8009fd2:	07f7      	lsls	r7, r6, #31
 8009fd4:	bf48      	it	mi
 8009fd6:	3001      	addmi	r0, #1
 8009fd8:	0280      	lsls	r0, r0, #10
 8009fda:	e7cb      	b.n	8009f74 <USB_EPStartXfer+0x34c>
 8009fdc:	0977      	lsrs	r7, r6, #5
 8009fde:	06f0      	lsls	r0, r6, #27
 8009fe0:	480f      	ldr	r0, [pc, #60]	; (800a020 <USB_EPStartXfer+0x3f8>)
 8009fe2:	bf08      	it	eq
 8009fe4:	f107 37ff 	addeq.w	r7, r7, #4294967295
 8009fe8:	ea40 2087 	orr.w	r0, r0, r7, lsl #10
 8009fec:	e7c2      	b.n	8009f74 <USB_EPStartXfer+0x34c>
 8009fee:	2a01      	cmp	r2, #1
 8009ff0:	d1c2      	bne.n	8009f78 <USB_EPStartXfer+0x350>
 8009ff2:	f8b5 2050 	ldrh.w	r2, [r5, #80]	; 0x50
 8009ff6:	f205 4706 	addw	r7, r5, #1030	; 0x406
 8009ffa:	fa17 f282 	uxtah	r2, r7, r2
 8009ffe:	eb02 02c0 	add.w	r2, r2, r0, lsl #3
 800a002:	8013      	strh	r3, [r2, #0]
 800a004:	e7b8      	b.n	8009f78 <USB_EPStartXfer+0x350>
 800a006:	0950      	lsrs	r0, r2, #5
 800a008:	06d2      	lsls	r2, r2, #27
 800a00a:	4a05      	ldr	r2, [pc, #20]	; (800a020 <USB_EPStartXfer+0x3f8>)
 800a00c:	bf08      	it	eq
 800a00e:	f100 30ff 	addeq.w	r0, r0, #4294967295
 800a012:	ea42 2280 	orr.w	r2, r2, r0, lsl #10
 800a016:	b292      	uxth	r2, r2
 800a018:	8032      	strh	r2, [r6, #0]
 800a01a:	e6c5      	b.n	8009da8 <USB_EPStartXfer+0x180>
 800a01c:	2801      	cmp	r0, #1
 800a01e:	e6d0      	b.n	8009dc2 <USB_EPStartXfer+0x19a>
 800a020:	ffff8000 	.word	0xffff8000
 800a024:	2a00      	cmp	r2, #0
 800a026:	d151      	bne.n	800a0cc <USB_EPStartXfer+0x4a4>
 800a028:	f8b5 2050 	ldrh.w	r2, [r5, #80]	; 0x50
 800a02c:	f205 4702 	addw	r7, r5, #1026	; 0x402
 800a030:	fa17 f282 	uxtah	r2, r7, r2
 800a034:	eb02 02c0 	add.w	r2, r2, r0, lsl #3
 800a038:	2e00      	cmp	r6, #0
 800a03a:	d136      	bne.n	800a0aa <USB_EPStartXfer+0x482>
 800a03c:	8810      	ldrh	r0, [r2, #0]
 800a03e:	f420 40f8 	bic.w	r0, r0, #31744	; 0x7c00
 800a042:	0400      	lsls	r0, r0, #16
 800a044:	0c00      	lsrs	r0, r0, #16
 800a046:	8010      	strh	r0, [r2, #0]
 800a048:	8810      	ldrh	r0, [r2, #0]
 800a04a:	ea6f 4040 	mvn.w	r0, r0, lsl #17
 800a04e:	ea6f 4050 	mvn.w	r0, r0, lsr #17
 800a052:	b280      	uxth	r0, r0
 800a054:	8010      	strh	r0, [r2, #0]
 800a056:	8922      	ldrh	r2, [r4, #8]
 800a058:	4628      	mov	r0, r5
 800a05a:	f7ff fdd5 	bl	8009c08 <USB_WritePMA>
 800a05e:	6a22      	ldr	r2, [r4, #32]
 800a060:	6923      	ldr	r3, [r4, #16]
 800a062:	6961      	ldr	r1, [r4, #20]
 800a064:	429a      	cmp	r2, r3
 800a066:	bf88      	it	hi
 800a068:	1b93      	subhi	r3, r2, r6
 800a06a:	4431      	add	r1, r6
 800a06c:	bf94      	ite	ls
 800a06e:	2300      	movls	r3, #0
 800a070:	4632      	movhi	r2, r6
 800a072:	6161      	str	r1, [r4, #20]
 800a074:	6223      	str	r3, [r4, #32]
 800a076:	2a00      	cmp	r2, #0
 800a078:	f43f adf4 	beq.w	8009c64 <USB_EPStartXfer+0x3c>
 800a07c:	7860      	ldrb	r0, [r4, #1]
 800a07e:	b293      	uxth	r3, r2
 800a080:	2800      	cmp	r0, #0
 800a082:	d13a      	bne.n	800a0fa <USB_EPStartXfer+0x4d2>
 800a084:	f8b5 6050 	ldrh.w	r6, [r5, #80]	; 0x50
 800a088:	7820      	ldrb	r0, [r4, #0]
 800a08a:	f205 4706 	addw	r7, r5, #1030	; 0x406
 800a08e:	fa17 f686 	uxtah	r6, r7, r6
 800a092:	2a3e      	cmp	r2, #62	; 0x3e
 800a094:	eb06 06c0 	add.w	r6, r6, r0, lsl #3
 800a098:	d824      	bhi.n	800a0e4 <USB_EPStartXfer+0x4bc>
 800a09a:	0850      	lsrs	r0, r2, #1
 800a09c:	07d2      	lsls	r2, r2, #31
 800a09e:	bf48      	it	mi
 800a0a0:	3001      	addmi	r0, #1
 800a0a2:	0280      	lsls	r0, r0, #10
 800a0a4:	b280      	uxth	r0, r0
 800a0a6:	8030      	strh	r0, [r6, #0]
 800a0a8:	e702      	b.n	8009eb0 <USB_EPStartXfer+0x288>
 800a0aa:	2e3e      	cmp	r6, #62	; 0x3e
 800a0ac:	d805      	bhi.n	800a0ba <USB_EPStartXfer+0x492>
 800a0ae:	0870      	lsrs	r0, r6, #1
 800a0b0:	07f7      	lsls	r7, r6, #31
 800a0b2:	bf48      	it	mi
 800a0b4:	3001      	addmi	r0, #1
 800a0b6:	0280      	lsls	r0, r0, #10
 800a0b8:	e7cb      	b.n	800a052 <USB_EPStartXfer+0x42a>
 800a0ba:	0977      	lsrs	r7, r6, #5
 800a0bc:	06f0      	lsls	r0, r6, #27
 800a0be:	48a9      	ldr	r0, [pc, #676]	; (800a364 <USB_EPStartXfer+0x73c>)
 800a0c0:	bf08      	it	eq
 800a0c2:	f107 37ff 	addeq.w	r7, r7, #4294967295
 800a0c6:	ea40 2087 	orr.w	r0, r0, r7, lsl #10
 800a0ca:	e7c2      	b.n	800a052 <USB_EPStartXfer+0x42a>
 800a0cc:	2a01      	cmp	r2, #1
 800a0ce:	d1c2      	bne.n	800a056 <USB_EPStartXfer+0x42e>
 800a0d0:	f8b5 2050 	ldrh.w	r2, [r5, #80]	; 0x50
 800a0d4:	f205 4702 	addw	r7, r5, #1026	; 0x402
 800a0d8:	fa17 f282 	uxtah	r2, r7, r2
 800a0dc:	eb02 02c0 	add.w	r2, r2, r0, lsl #3
 800a0e0:	8013      	strh	r3, [r2, #0]
 800a0e2:	e7b8      	b.n	800a056 <USB_EPStartXfer+0x42e>
 800a0e4:	0950      	lsrs	r0, r2, #5
 800a0e6:	06d7      	lsls	r7, r2, #27
 800a0e8:	4a9e      	ldr	r2, [pc, #632]	; (800a364 <USB_EPStartXfer+0x73c>)
 800a0ea:	bf08      	it	eq
 800a0ec:	f100 30ff 	addeq.w	r0, r0, #4294967295
 800a0f0:	ea42 2280 	orr.w	r2, r2, r0, lsl #10
 800a0f4:	b292      	uxth	r2, r2
 800a0f6:	8032      	strh	r2, [r6, #0]
 800a0f8:	e6da      	b.n	8009eb0 <USB_EPStartXfer+0x288>
 800a0fa:	2801      	cmp	r0, #1
 800a0fc:	e6e4      	b.n	8009ec8 <USB_EPStartXfer+0x2a0>
 800a0fe:	2f00      	cmp	r7, #0
 800a100:	d13c      	bne.n	800a17c <USB_EPStartXfer+0x554>
 800a102:	698a      	ldr	r2, [r1, #24]
 800a104:	690b      	ldr	r3, [r1, #16]
 800a106:	429a      	cmp	r2, r3
 800a108:	bf84      	itt	hi
 800a10a:	1ad7      	subhi	r7, r2, r3
 800a10c:	461a      	movhi	r2, r3
 800a10e:	f8b0 3050 	ldrh.w	r3, [r0, #80]	; 0x50
 800a112:	618f      	str	r7, [r1, #24]
 800a114:	f200 4006 	addw	r0, r0, #1030	; 0x406
 800a118:	7809      	ldrb	r1, [r1, #0]
 800a11a:	fa10 f383 	uxtah	r3, r0, r3
 800a11e:	eb03 03c1 	add.w	r3, r3, r1, lsl #3
 800a122:	b96a      	cbnz	r2, 800a140 <USB_EPStartXfer+0x518>
 800a124:	881a      	ldrh	r2, [r3, #0]
 800a126:	f422 42f8 	bic.w	r2, r2, #31744	; 0x7c00
 800a12a:	0412      	lsls	r2, r2, #16
 800a12c:	0c12      	lsrs	r2, r2, #16
 800a12e:	801a      	strh	r2, [r3, #0]
 800a130:	881a      	ldrh	r2, [r3, #0]
 800a132:	ea6f 4242 	mvn.w	r2, r2, lsl #17
 800a136:	ea6f 4252 	mvn.w	r2, r2, lsr #17
 800a13a:	b292      	uxth	r2, r2
 800a13c:	801a      	strh	r2, [r3, #0]
 800a13e:	e008      	b.n	800a152 <USB_EPStartXfer+0x52a>
 800a140:	2a3e      	cmp	r2, #62	; 0x3e
 800a142:	d812      	bhi.n	800a16a <USB_EPStartXfer+0x542>
 800a144:	0851      	lsrs	r1, r2, #1
 800a146:	07d0      	lsls	r0, r2, #31
 800a148:	bf48      	it	mi
 800a14a:	3101      	addmi	r1, #1
 800a14c:	0289      	lsls	r1, r1, #10
 800a14e:	b289      	uxth	r1, r1
 800a150:	8019      	strh	r1, [r3, #0]
 800a152:	7822      	ldrb	r2, [r4, #0]
 800a154:	f835 3022 	ldrh.w	r3, [r5, r2, lsl #2]
 800a158:	f423 4380 	bic.w	r3, r3, #16384	; 0x4000
 800a15c:	f023 0370 	bic.w	r3, r3, #112	; 0x70
 800a160:	041b      	lsls	r3, r3, #16
 800a162:	0c1b      	lsrs	r3, r3, #16
 800a164:	f483 5340 	eor.w	r3, r3, #12288	; 0x3000
 800a168:	e587      	b.n	8009c7a <USB_EPStartXfer+0x52>
 800a16a:	0951      	lsrs	r1, r2, #5
 800a16c:	06d2      	lsls	r2, r2, #27
 800a16e:	4a7d      	ldr	r2, [pc, #500]	; (800a364 <USB_EPStartXfer+0x73c>)
 800a170:	bf08      	it	eq
 800a172:	f101 31ff 	addeq.w	r1, r1, #4294967295
 800a176:	ea42 2281 	orr.w	r2, r2, r1, lsl #10
 800a17a:	e7de      	b.n	800a13a <USB_EPStartXfer+0x512>
 800a17c:	78cb      	ldrb	r3, [r1, #3]
 800a17e:	2b02      	cmp	r3, #2
 800a180:	f040 8081 	bne.w	800a286 <USB_EPStartXfer+0x65e>
 800a184:	b9c2      	cbnz	r2, 800a1b8 <USB_EPStartXfer+0x590>
 800a186:	f8b0 3050 	ldrh.w	r3, [r0, #80]	; 0x50
 800a18a:	780a      	ldrb	r2, [r1, #0]
 800a18c:	f200 4102 	addw	r1, r0, #1026	; 0x402
 800a190:	fa11 f383 	uxtah	r3, r1, r3
 800a194:	6921      	ldr	r1, [r4, #16]
 800a196:	eb03 03c2 	add.w	r3, r3, r2, lsl #3
 800a19a:	2900      	cmp	r1, #0
 800a19c:	d145      	bne.n	800a22a <USB_EPStartXfer+0x602>
 800a19e:	881a      	ldrh	r2, [r3, #0]
 800a1a0:	f422 42f8 	bic.w	r2, r2, #31744	; 0x7c00
 800a1a4:	0412      	lsls	r2, r2, #16
 800a1a6:	0c12      	lsrs	r2, r2, #16
 800a1a8:	801a      	strh	r2, [r3, #0]
 800a1aa:	881a      	ldrh	r2, [r3, #0]
 800a1ac:	ea6f 4242 	mvn.w	r2, r2, lsl #17
 800a1b0:	ea6f 4252 	mvn.w	r2, r2, lsr #17
 800a1b4:	b292      	uxth	r2, r2
 800a1b6:	801a      	strh	r2, [r3, #0]
 800a1b8:	7862      	ldrb	r2, [r4, #1]
 800a1ba:	7823      	ldrb	r3, [r4, #0]
 800a1bc:	2a00      	cmp	r2, #0
 800a1be:	d156      	bne.n	800a26e <USB_EPStartXfer+0x646>
 800a1c0:	f8b5 2050 	ldrh.w	r2, [r5, #80]	; 0x50
 800a1c4:	f205 4106 	addw	r1, r5, #1030	; 0x406
 800a1c8:	fa11 f282 	uxtah	r2, r1, r2
 800a1cc:	6921      	ldr	r1, [r4, #16]
 800a1ce:	eb02 03c3 	add.w	r3, r2, r3, lsl #3
 800a1d2:	2900      	cmp	r1, #0
 800a1d4:	d13a      	bne.n	800a24c <USB_EPStartXfer+0x624>
 800a1d6:	881a      	ldrh	r2, [r3, #0]
 800a1d8:	f422 42f8 	bic.w	r2, r2, #31744	; 0x7c00
 800a1dc:	0412      	lsls	r2, r2, #16
 800a1de:	0c12      	lsrs	r2, r2, #16
 800a1e0:	801a      	strh	r2, [r3, #0]
 800a1e2:	881a      	ldrh	r2, [r3, #0]
 800a1e4:	ea6f 4242 	mvn.w	r2, r2, lsl #17
 800a1e8:	ea6f 4252 	mvn.w	r2, r2, lsr #17
 800a1ec:	b292      	uxth	r2, r2
 800a1ee:	801a      	strh	r2, [r3, #0]
 800a1f0:	69e3      	ldr	r3, [r4, #28]
 800a1f2:	2b00      	cmp	r3, #0
 800a1f4:	d0ad      	beq.n	800a152 <USB_EPStartXfer+0x52a>
 800a1f6:	7822      	ldrb	r2, [r4, #0]
 800a1f8:	f835 1022 	ldrh.w	r1, [r5, r2, lsl #2]
 800a1fc:	f244 0340 	movw	r3, #16448	; 0x4040
 800a200:	ea03 0001 	and.w	r0, r3, r1
 800a204:	438b      	bics	r3, r1
 800a206:	d001      	beq.n	800a20c <USB_EPStartXfer+0x5e4>
 800a208:	2800      	cmp	r0, #0
 800a20a:	d1a2      	bne.n	800a152 <USB_EPStartXfer+0x52a>
 800a20c:	f835 3022 	ldrh.w	r3, [r5, r2, lsl #2]
 800a210:	f423 43e0 	bic.w	r3, r3, #28672	; 0x7000
 800a214:	f023 0370 	bic.w	r3, r3, #112	; 0x70
 800a218:	041b      	lsls	r3, r3, #16
 800a21a:	0c1b      	lsrs	r3, r3, #16
 800a21c:	f443 4300 	orr.w	r3, r3, #32768	; 0x8000
 800a220:	f043 03c0 	orr.w	r3, r3, #192	; 0xc0
 800a224:	f825 3022 	strh.w	r3, [r5, r2, lsl #2]
 800a228:	e793      	b.n	800a152 <USB_EPStartXfer+0x52a>
 800a22a:	293e      	cmp	r1, #62	; 0x3e
 800a22c:	d805      	bhi.n	800a23a <USB_EPStartXfer+0x612>
 800a22e:	084a      	lsrs	r2, r1, #1
 800a230:	07cf      	lsls	r7, r1, #31
 800a232:	bf48      	it	mi
 800a234:	3201      	addmi	r2, #1
 800a236:	0292      	lsls	r2, r2, #10
 800a238:	e7bc      	b.n	800a1b4 <USB_EPStartXfer+0x58c>
 800a23a:	0948      	lsrs	r0, r1, #5
 800a23c:	4a49      	ldr	r2, [pc, #292]	; (800a364 <USB_EPStartXfer+0x73c>)
 800a23e:	06ce      	lsls	r6, r1, #27
 800a240:	bf08      	it	eq
 800a242:	f100 30ff 	addeq.w	r0, r0, #4294967295
 800a246:	ea42 2280 	orr.w	r2, r2, r0, lsl #10
 800a24a:	e7b3      	b.n	800a1b4 <USB_EPStartXfer+0x58c>
 800a24c:	293e      	cmp	r1, #62	; 0x3e
 800a24e:	d805      	bhi.n	800a25c <USB_EPStartXfer+0x634>
 800a250:	084a      	lsrs	r2, r1, #1
 800a252:	07c9      	lsls	r1, r1, #31
 800a254:	bf48      	it	mi
 800a256:	3201      	addmi	r2, #1
 800a258:	0292      	lsls	r2, r2, #10
 800a25a:	e7c7      	b.n	800a1ec <USB_EPStartXfer+0x5c4>
 800a25c:	0948      	lsrs	r0, r1, #5
 800a25e:	06ca      	lsls	r2, r1, #27
 800a260:	4a40      	ldr	r2, [pc, #256]	; (800a364 <USB_EPStartXfer+0x73c>)
 800a262:	bf08      	it	eq
 800a264:	f100 30ff 	addeq.w	r0, r0, #4294967295
 800a268:	ea42 2280 	orr.w	r2, r2, r0, lsl #10
 800a26c:	e7be      	b.n	800a1ec <USB_EPStartXfer+0x5c4>
 800a26e:	2a01      	cmp	r2, #1
 800a270:	d1be      	bne.n	800a1f0 <USB_EPStartXfer+0x5c8>
 800a272:	f8b5 2050 	ldrh.w	r2, [r5, #80]	; 0x50
 800a276:	f205 4106 	addw	r1, r5, #1030	; 0x406
 800a27a:	fa11 f282 	uxtah	r2, r1, r2
 800a27e:	eb02 03c3 	add.w	r3, r2, r3, lsl #3
 800a282:	8a22      	ldrh	r2, [r4, #16]
 800a284:	e7b3      	b.n	800a1ee <USB_EPStartXfer+0x5c6>
 800a286:	2b01      	cmp	r3, #1
 800a288:	d16a      	bne.n	800a360 <USB_EPStartXfer+0x738>
 800a28a:	698b      	ldr	r3, [r1, #24]
 800a28c:	6909      	ldr	r1, [r1, #16]
 800a28e:	428b      	cmp	r3, r1
 800a290:	bf8a      	itet	hi
 800a292:	1a58      	subhi	r0, r3, r1
 800a294:	2000      	movls	r0, #0
 800a296:	460b      	movhi	r3, r1
 800a298:	61a0      	str	r0, [r4, #24]
 800a29a:	b9b2      	cbnz	r2, 800a2ca <USB_EPStartXfer+0x6a2>
 800a29c:	f8b5 2050 	ldrh.w	r2, [r5, #80]	; 0x50
 800a2a0:	7821      	ldrb	r1, [r4, #0]
 800a2a2:	f205 4002 	addw	r0, r5, #1026	; 0x402
 800a2a6:	fa10 f282 	uxtah	r2, r0, r2
 800a2aa:	eb02 02c1 	add.w	r2, r2, r1, lsl #3
 800a2ae:	bb3b      	cbnz	r3, 800a300 <USB_EPStartXfer+0x6d8>
 800a2b0:	8811      	ldrh	r1, [r2, #0]
 800a2b2:	f421 41f8 	bic.w	r1, r1, #31744	; 0x7c00
 800a2b6:	0409      	lsls	r1, r1, #16
 800a2b8:	0c09      	lsrs	r1, r1, #16
 800a2ba:	8011      	strh	r1, [r2, #0]
 800a2bc:	8811      	ldrh	r1, [r2, #0]
 800a2be:	ea6f 4141 	mvn.w	r1, r1, lsl #17
 800a2c2:	ea6f 4151 	mvn.w	r1, r1, lsr #17
 800a2c6:	b289      	uxth	r1, r1
 800a2c8:	8011      	strh	r1, [r2, #0]
 800a2ca:	7861      	ldrb	r1, [r4, #1]
 800a2cc:	7822      	ldrb	r2, [r4, #0]
 800a2ce:	2900      	cmp	r1, #0
 800a2d0:	d13a      	bne.n	800a348 <USB_EPStartXfer+0x720>
 800a2d2:	f8b5 1050 	ldrh.w	r1, [r5, #80]	; 0x50
 800a2d6:	f205 4006 	addw	r0, r5, #1030	; 0x406
 800a2da:	fa10 f181 	uxtah	r1, r0, r1
 800a2de:	eb01 02c2 	add.w	r2, r1, r2, lsl #3
 800a2e2:	b9f3      	cbnz	r3, 800a322 <USB_EPStartXfer+0x6fa>
 800a2e4:	8813      	ldrh	r3, [r2, #0]
 800a2e6:	f423 43f8 	bic.w	r3, r3, #31744	; 0x7c00
 800a2ea:	041b      	lsls	r3, r3, #16
 800a2ec:	0c1b      	lsrs	r3, r3, #16
 800a2ee:	8013      	strh	r3, [r2, #0]
 800a2f0:	8813      	ldrh	r3, [r2, #0]
 800a2f2:	ea6f 4343 	mvn.w	r3, r3, lsl #17
 800a2f6:	ea6f 4353 	mvn.w	r3, r3, lsr #17
 800a2fa:	b29b      	uxth	r3, r3
 800a2fc:	8013      	strh	r3, [r2, #0]
 800a2fe:	e728      	b.n	800a152 <USB_EPStartXfer+0x52a>
 800a300:	2b3e      	cmp	r3, #62	; 0x3e
 800a302:	d805      	bhi.n	800a310 <USB_EPStartXfer+0x6e8>
 800a304:	0859      	lsrs	r1, r3, #1
 800a306:	07df      	lsls	r7, r3, #31
 800a308:	bf48      	it	mi
 800a30a:	3101      	addmi	r1, #1
 800a30c:	0289      	lsls	r1, r1, #10
 800a30e:	e7da      	b.n	800a2c6 <USB_EPStartXfer+0x69e>
 800a310:	0958      	lsrs	r0, r3, #5
 800a312:	4914      	ldr	r1, [pc, #80]	; (800a364 <USB_EPStartXfer+0x73c>)
 800a314:	06de      	lsls	r6, r3, #27
 800a316:	bf08      	it	eq
 800a318:	f100 30ff 	addeq.w	r0, r0, #4294967295
 800a31c:	ea41 2180 	orr.w	r1, r1, r0, lsl #10
 800a320:	e7d1      	b.n	800a2c6 <USB_EPStartXfer+0x69e>
 800a322:	2b3e      	cmp	r3, #62	; 0x3e
 800a324:	d807      	bhi.n	800a336 <USB_EPStartXfer+0x70e>
 800a326:	0859      	lsrs	r1, r3, #1
 800a328:	07d8      	lsls	r0, r3, #31
 800a32a:	bf48      	it	mi
 800a32c:	3101      	addmi	r1, #1
 800a32e:	0289      	lsls	r1, r1, #10
 800a330:	b289      	uxth	r1, r1
 800a332:	8011      	strh	r1, [r2, #0]
 800a334:	e70d      	b.n	800a152 <USB_EPStartXfer+0x52a>
 800a336:	0959      	lsrs	r1, r3, #5
 800a338:	06db      	lsls	r3, r3, #27
 800a33a:	4b0a      	ldr	r3, [pc, #40]	; (800a364 <USB_EPStartXfer+0x73c>)
 800a33c:	bf08      	it	eq
 800a33e:	f101 31ff 	addeq.w	r1, r1, #4294967295
 800a342:	ea43 2381 	orr.w	r3, r3, r1, lsl #10
 800a346:	e7d8      	b.n	800a2fa <USB_EPStartXfer+0x6d2>
 800a348:	2901      	cmp	r1, #1
 800a34a:	f47f af02 	bne.w	800a152 <USB_EPStartXfer+0x52a>
 800a34e:	f8b5 1050 	ldrh.w	r1, [r5, #80]	; 0x50
 800a352:	f205 4006 	addw	r0, r5, #1030	; 0x406
 800a356:	fa10 f181 	uxtah	r1, r0, r1
 800a35a:	eb01 02c2 	add.w	r2, r1, r2, lsl #3
 800a35e:	e7cc      	b.n	800a2fa <USB_EPStartXfer+0x6d2>
 800a360:	2001      	movs	r0, #1
 800a362:	e491      	b.n	8009c88 <USB_EPStartXfer+0x60>
 800a364:	ffff8000 	.word	0xffff8000

0800a368 <USB_ReadPMA>:
 800a368:	f502 6280 	add.w	r2, r2, #1024	; 0x400
 800a36c:	b5f0      	push	{r4, r5, r6, r7, lr}
 800a36e:	4410      	add	r0, r2
 800a370:	085e      	lsrs	r6, r3, #1
 800a372:	460d      	mov	r5, r1
 800a374:	4632      	mov	r2, r6
 800a376:	1a47      	subs	r7, r0, r1
 800a378:	197c      	adds	r4, r7, r5
 800a37a:	3502      	adds	r5, #2
 800a37c:	b932      	cbnz	r2, 800a38c <USB_ReadPMA+0x24>
 800a37e:	07db      	lsls	r3, r3, #31
 800a380:	bf44      	itt	mi
 800a382:	f830 3016 	ldrhmi.w	r3, [r0, r6, lsl #1]
 800a386:	f801 3016 	strbmi.w	r3, [r1, r6, lsl #1]
 800a38a:	bdf0      	pop	{r4, r5, r6, r7, pc}
 800a38c:	8824      	ldrh	r4, [r4, #0]
 800a38e:	b2a4      	uxth	r4, r4
 800a390:	f805 4c02 	strb.w	r4, [r5, #-2]
 800a394:	0a24      	lsrs	r4, r4, #8
 800a396:	f805 4c01 	strb.w	r4, [r5, #-1]
 800a39a:	3a01      	subs	r2, #1
 800a39c:	e7ec      	b.n	800a378 <USB_ReadPMA+0x10>
	...

0800a3a0 <USBD_DFU_GetCfgDesc>:
 800a3a0:	231b      	movs	r3, #27
 800a3a2:	8003      	strh	r3, [r0, #0]
 800a3a4:	4800      	ldr	r0, [pc, #0]	; (800a3a8 <USBD_DFU_GetCfgDesc+0x8>)
 800a3a6:	4770      	bx	lr
 800a3a8:	20000694 	.word	0x20000694

0800a3ac <USBD_DFU_EP0_RxReady>:
 800a3ac:	2000      	movs	r0, #0
 800a3ae:	4770      	bx	lr

0800a3b0 <USBD_DFU_GetDeviceQualifierDesc>:
 800a3b0:	230a      	movs	r3, #10
 800a3b2:	8003      	strh	r3, [r0, #0]
 800a3b4:	4800      	ldr	r0, [pc, #0]	; (800a3b8 <USBD_DFU_GetDeviceQualifierDesc+0x8>)
 800a3b6:	4770      	bx	lr
 800a3b8:	200006b0 	.word	0x200006b0

0800a3bc <USBD_DFU_GetUsrStringDesc>:
 800a3bc:	2906      	cmp	r1, #6
 800a3be:	b508      	push	{r3, lr}
 800a3c0:	d807      	bhi.n	800a3d2 <USBD_DFU_GetUsrStringDesc+0x16>
 800a3c2:	f8d0 32c0 	ldr.w	r3, [r0, #704]	; 0x2c0
 800a3c6:	4904      	ldr	r1, [pc, #16]	; (800a3d8 <USBD_DFU_GetUsrStringDesc+0x1c>)
 800a3c8:	6818      	ldr	r0, [r3, #0]
 800a3ca:	f000 fe0b 	bl	800afe4 <USBD_GetString>
 800a3ce:	4802      	ldr	r0, [pc, #8]	; (800a3d8 <USBD_DFU_GetUsrStringDesc+0x1c>)
 800a3d0:	bd08      	pop	{r3, pc}
 800a3d2:	2000      	movs	r0, #0
 800a3d4:	e7fc      	b.n	800a3d0 <USBD_DFU_GetUsrStringDesc+0x14>
 800a3d6:	bf00      	nop
 800a3d8:	200009fc 	.word	0x200009fc

0800a3dc <USBD_DFU_EP0_TxReady>:
 800a3dc:	b513      	push	{r0, r1, r4, lr}
 800a3de:	f8d0 42bc 	ldr.w	r4, [r0, #700]	; 0x2bc
 800a3e2:	2c00      	cmp	r4, #0
 800a3e4:	d040      	beq.n	800a468 <USBD_DFU_EP0_TxReady+0x8c>
 800a3e6:	f894 2418 	ldrb.w	r2, [r4, #1048]	; 0x418
 800a3ea:	2a04      	cmp	r2, #4
 800a3ec:	d156      	bne.n	800a49c <USBD_DFU_EP0_TxReady+0xc0>
 800a3ee:	f8d4 1400 	ldr.w	r1, [r4, #1024]	; 0x400
 800a3f2:	f8d0 32c0 	ldr.w	r3, [r0, #704]	; 0x2c0
 800a3f6:	2900      	cmp	r1, #0
 800a3f8:	d143      	bne.n	800a482 <USBD_DFU_EP0_TxReady+0xa6>
 800a3fa:	f8d4 2404 	ldr.w	r2, [r4, #1028]	; 0x404
 800a3fe:	2a01      	cmp	r2, #1
 800a400:	d010      	beq.n	800a424 <USBD_DFU_EP0_TxReady+0x48>
 800a402:	2a05      	cmp	r2, #5
 800a404:	d132      	bne.n	800a46c <USBD_DFU_EP0_TxReady+0x90>
 800a406:	7822      	ldrb	r2, [r4, #0]
 800a408:	2a21      	cmp	r2, #33	; 0x21
 800a40a:	d11b      	bne.n	800a444 <USBD_DFU_EP0_TxReady+0x68>
 800a40c:	78e3      	ldrb	r3, [r4, #3]
 800a40e:	78a2      	ldrb	r2, [r4, #2]
 800a410:	041b      	lsls	r3, r3, #16
 800a412:	eb03 2302 	add.w	r3, r3, r2, lsl #8
 800a416:	7862      	ldrb	r2, [r4, #1]
 800a418:	4413      	add	r3, r2
 800a41a:	7922      	ldrb	r2, [r4, #4]
 800a41c:	eb03 6302 	add.w	r3, r3, r2, lsl #24
 800a420:	f8c4 3408 	str.w	r3, [r4, #1032]	; 0x408
 800a424:	2000      	movs	r0, #0
 800a426:	2303      	movs	r3, #3
 800a428:	f8c4 0404 	str.w	r0, [r4, #1028]	; 0x404
 800a42c:	f8c4 0400 	str.w	r0, [r4, #1024]	; 0x400
 800a430:	f884 3418 	strb.w	r3, [r4, #1048]	; 0x418
 800a434:	f884 0411 	strb.w	r0, [r4, #1041]	; 0x411
 800a438:	f8a4 0412 	strh.w	r0, [r4, #1042]	; 0x412
 800a43c:	f884 3414 	strb.w	r3, [r4, #1044]	; 0x414
 800a440:	b002      	add	sp, #8
 800a442:	bd10      	pop	{r4, pc}
 800a444:	2a41      	cmp	r2, #65	; 0x41
 800a446:	d10f      	bne.n	800a468 <USBD_DFU_EP0_TxReady+0x8c>
 800a448:	78e0      	ldrb	r0, [r4, #3]
 800a44a:	78a2      	ldrb	r2, [r4, #2]
 800a44c:	68db      	ldr	r3, [r3, #12]
 800a44e:	0400      	lsls	r0, r0, #16
 800a450:	eb00 2002 	add.w	r0, r0, r2, lsl #8
 800a454:	7862      	ldrb	r2, [r4, #1]
 800a456:	4410      	add	r0, r2
 800a458:	7922      	ldrb	r2, [r4, #4]
 800a45a:	eb00 6002 	add.w	r0, r0, r2, lsl #24
 800a45e:	f8c4 0408 	str.w	r0, [r4, #1032]	; 0x408
 800a462:	4798      	blx	r3
 800a464:	2800      	cmp	r0, #0
 800a466:	d0dd      	beq.n	800a424 <USBD_DFU_EP0_TxReady+0x48>
 800a468:	2003      	movs	r0, #3
 800a46a:	e7e9      	b.n	800a440 <USBD_DFU_EP0_TxReady+0x64>
 800a46c:	f8c4 1404 	str.w	r1, [r4, #1028]	; 0x404
 800a470:	f88d 1000 	strb.w	r1, [sp]
 800a474:	2301      	movs	r3, #1
 800a476:	4669      	mov	r1, sp
 800a478:	f8ad 3006 	strh.w	r3, [sp, #6]
 800a47c:	f000 fda7 	bl	800afce <USBD_CtlError>
 800a480:	e7d0      	b.n	800a424 <USBD_DFU_EP0_TxReady+0x48>
 800a482:	2901      	cmp	r1, #1
 800a484:	d9ce      	bls.n	800a424 <USBD_DFU_EP0_TxReady+0x48>
 800a486:	f8d4 0408 	ldr.w	r0, [r4, #1032]	; 0x408
 800a48a:	691b      	ldr	r3, [r3, #16]
 800a48c:	f8d4 2404 	ldr.w	r2, [r4, #1028]	; 0x404
 800a490:	3902      	subs	r1, #2
 800a492:	eb00 2181 	add.w	r1, r0, r1, lsl #10
 800a496:	4620      	mov	r0, r4
 800a498:	4798      	blx	r3
 800a49a:	e7e3      	b.n	800a464 <USBD_DFU_EP0_TxReady+0x88>
 800a49c:	2a07      	cmp	r2, #7
 800a49e:	d1e3      	bne.n	800a468 <USBD_DFU_EP0_TxReady+0x8c>
 800a4a0:	4a15      	ldr	r2, [pc, #84]	; (800a4f8 <USBD_DFU_EP0_TxReady+0x11c>)
 800a4a2:	7d12      	ldrb	r2, [r2, #20]
 800a4a4:	2300      	movs	r3, #0
 800a4a6:	f012 0204 	ands.w	r2, r2, #4
 800a4aa:	f884 3419 	strb.w	r3, [r4, #1049]	; 0x419
 800a4ae:	d00a      	beq.n	800a4c6 <USBD_DFU_EP0_TxReady+0xea>
 800a4b0:	2206      	movs	r2, #6
 800a4b2:	f884 2418 	strb.w	r2, [r4, #1048]	; 0x418
 800a4b6:	f884 3411 	strb.w	r3, [r4, #1041]	; 0x411
 800a4ba:	f8a4 3412 	strh.w	r3, [r4, #1042]	; 0x412
 800a4be:	f884 2414 	strb.w	r2, [r4, #1044]	; 0x414
 800a4c2:	4618      	mov	r0, r3
 800a4c4:	e7bc      	b.n	800a440 <USBD_DFU_EP0_TxReady+0x64>
 800a4c6:	2308      	movs	r3, #8
 800a4c8:	f884 3418 	strb.w	r3, [r4, #1048]	; 0x418
 800a4cc:	f884 2411 	strb.w	r2, [r4, #1041]	; 0x411
 800a4d0:	f8a4 2412 	strh.w	r2, [r4, #1042]	; 0x412
 800a4d4:	f884 3414 	strb.w	r3, [r4, #1044]	; 0x414
 800a4d8:	f000 fa2e 	bl	800a938 <USBD_Stop>
 800a4dc:	f3bf 8f4f 	dsb	sy
 800a4e0:	4906      	ldr	r1, [pc, #24]	; (800a4fc <USBD_DFU_EP0_TxReady+0x120>)
 800a4e2:	4b07      	ldr	r3, [pc, #28]	; (800a500 <USBD_DFU_EP0_TxReady+0x124>)
 800a4e4:	68ca      	ldr	r2, [r1, #12]
 800a4e6:	f402 62e0 	and.w	r2, r2, #1792	; 0x700
 800a4ea:	4313      	orrs	r3, r2
 800a4ec:	60cb      	str	r3, [r1, #12]
 800a4ee:	f3bf 8f4f 	dsb	sy
 800a4f2:	bf00      	nop
 800a4f4:	e7fd      	b.n	800a4f2 <USBD_DFU_EP0_TxReady+0x116>
 800a4f6:	bf00      	nop
 800a4f8:	20000694 	.word	0x20000694
 800a4fc:	e000ed00 	.word	0xe000ed00
 800a500:	05fa0004 	.word	0x05fa0004

0800a504 <USBD_DFU_DeInit>:
 800a504:	f8d0 22bc 	ldr.w	r2, [r0, #700]	; 0x2bc
 800a508:	b538      	push	{r3, r4, r5, lr}
 800a50a:	4604      	mov	r4, r0
 800a50c:	2302      	movs	r3, #2
 800a50e:	b1b2      	cbz	r2, 800a53e <USBD_DFU_DeInit+0x3a>
 800a510:	2500      	movs	r5, #0
 800a512:	f882 3418 	strb.w	r3, [r2, #1048]	; 0x418
 800a516:	f882 5410 	strb.w	r5, [r2, #1040]	; 0x410
 800a51a:	f882 3414 	strb.w	r3, [r2, #1044]	; 0x414
 800a51e:	f8d0 32c0 	ldr.w	r3, [r0, #704]	; 0x2c0
 800a522:	f8c2 5400 	str.w	r5, [r2, #1024]	; 0x400
 800a526:	689b      	ldr	r3, [r3, #8]
 800a528:	f8c2 5404 	str.w	r5, [r2, #1028]	; 0x404
 800a52c:	4798      	blx	r3
 800a52e:	f8d4 02bc 	ldr.w	r0, [r4, #700]	; 0x2bc
 800a532:	f000 ffb7 	bl	800b4a4 <USBD_static_free>
 800a536:	f8c4 52bc 	str.w	r5, [r4, #700]	; 0x2bc
 800a53a:	4628      	mov	r0, r5
 800a53c:	bd38      	pop	{r3, r4, r5, pc}
 800a53e:	4618      	mov	r0, r3
 800a540:	e7fc      	b.n	800a53c <USBD_DFU_DeInit+0x38>

0800a542 <USBD_DFU_Init>:
 800a542:	b510      	push	{r4, lr}
 800a544:	4604      	mov	r4, r0
 800a546:	f240 401c 	movw	r0, #1052	; 0x41c
 800a54a:	f000 ffa7 	bl	800b49c <USBD_static_malloc>
 800a54e:	2302      	movs	r3, #2
 800a550:	f8c4 02bc 	str.w	r0, [r4, #700]	; 0x2bc
 800a554:	b908      	cbnz	r0, 800a55a <USBD_DFU_Init+0x18>
 800a556:	4618      	mov	r0, r3
 800a558:	bd10      	pop	{r4, pc}
 800a55a:	2200      	movs	r2, #0
 800a55c:	f8a0 3418 	strh.w	r3, [r0, #1048]	; 0x418
 800a560:	f8c0 2410 	str.w	r2, [r0, #1040]	; 0x410
 800a564:	f8a0 3414 	strh.w	r3, [r0, #1044]	; 0x414
 800a568:	f8d4 32c0 	ldr.w	r3, [r4, #704]	; 0x2c0
 800a56c:	f8c0 2400 	str.w	r2, [r0, #1024]	; 0x400
 800a570:	f04f 6100 	mov.w	r1, #134217728	; 0x8000000
 800a574:	685b      	ldr	r3, [r3, #4]
 800a576:	f8c0 2404 	str.w	r2, [r0, #1028]	; 0x404
 800a57a:	f8c0 1408 	str.w	r1, [r0, #1032]	; 0x408
 800a57e:	f8c0 240c 	str.w	r2, [r0, #1036]	; 0x40c
 800a582:	4798      	blx	r3
 800a584:	2800      	cmp	r0, #0
 800a586:	bf0c      	ite	eq
 800a588:	2000      	moveq	r0, #0
 800a58a:	2003      	movne	r0, #3
 800a58c:	e7e4      	b.n	800a558 <USBD_DFU_Init+0x16>
	...

0800a590 <USBD_DFU_Setup>:
 800a590:	b5f7      	push	{r0, r1, r2, r4, r5, r6, r7, lr}
 800a592:	f8d0 42bc 	ldr.w	r4, [r0, #700]	; 0x2bc
 800a596:	2300      	movs	r3, #0
 800a598:	4606      	mov	r6, r0
 800a59a:	f8ad 3006 	strh.w	r3, [sp, #6]
 800a59e:	2c00      	cmp	r4, #0
 800a5a0:	f000 8170 	beq.w	800a884 <USBD_DFU_Setup+0x2f4>
 800a5a4:	780d      	ldrb	r5, [r1, #0]
 800a5a6:	f015 0560 	ands.w	r5, r5, #96	; 0x60
 800a5aa:	f000 813e 	beq.w	800a82a <USBD_DFU_Setup+0x29a>
 800a5ae:	2d20      	cmp	r5, #32
 800a5b0:	f040 8165 	bne.w	800a87e <USBD_DFU_Setup+0x2ee>
 800a5b4:	784d      	ldrb	r5, [r1, #1]
 800a5b6:	2d06      	cmp	r5, #6
 800a5b8:	f200 8161 	bhi.w	800a87e <USBD_DFU_Setup+0x2ee>
 800a5bc:	e8df f015 	tbh	[pc, r5, lsl #1]
 800a5c0:	0007010f 	.word	0x0007010f
 800a5c4:	00960036 	.word	0x00960036
 800a5c8:	00f200dc 	.word	0x00f200dc
 800a5cc:	00f6      	.short	0x00f6
 800a5ce:	88ca      	ldrh	r2, [r1, #6]
 800a5d0:	f894 3418 	ldrb.w	r3, [r4, #1048]	; 0x418
 800a5d4:	b1ba      	cbz	r2, 800a606 <USBD_DFU_Setup+0x76>
 800a5d6:	2b02      	cmp	r3, #2
 800a5d8:	d001      	beq.n	800a5de <USBD_DFU_Setup+0x4e>
 800a5da:	2b05      	cmp	r3, #5
 800a5dc:	d10f      	bne.n	800a5fe <USBD_DFU_Setup+0x6e>
 800a5de:	884b      	ldrh	r3, [r1, #2]
 800a5e0:	f8c4 3400 	str.w	r3, [r4, #1024]	; 0x400
 800a5e4:	2303      	movs	r3, #3
 800a5e6:	f8c4 2404 	str.w	r2, [r4, #1028]	; 0x404
 800a5ea:	f884 3418 	strb.w	r3, [r4, #1048]	; 0x418
 800a5ee:	f884 3414 	strb.w	r3, [r4, #1044]	; 0x414
 800a5f2:	4621      	mov	r1, r4
 800a5f4:	4630      	mov	r0, r6
 800a5f6:	f000 fd26 	bl	800b046 <USBD_CtlPrepareRx>
 800a5fa:	2500      	movs	r5, #0
 800a5fc:	e013      	b.n	800a626 <USBD_DFU_Setup+0x96>
 800a5fe:	4630      	mov	r0, r6
 800a600:	f000 fce5 	bl	800afce <USBD_CtlError>
 800a604:	e7f9      	b.n	800a5fa <USBD_DFU_Setup+0x6a>
 800a606:	2b05      	cmp	r3, #5
 800a608:	d001      	beq.n	800a60e <USBD_DFU_Setup+0x7e>
 800a60a:	2b02      	cmp	r3, #2
 800a60c:	d1f7      	bne.n	800a5fe <USBD_DFU_Setup+0x6e>
 800a60e:	f44f 7383 	mov.w	r3, #262	; 0x106
 800a612:	2500      	movs	r5, #0
 800a614:	f8a4 3418 	strh.w	r3, [r4, #1048]	; 0x418
 800a618:	2306      	movs	r3, #6
 800a61a:	f884 5411 	strb.w	r5, [r4, #1041]	; 0x411
 800a61e:	f8a4 5412 	strh.w	r5, [r4, #1042]	; 0x412
 800a622:	f884 3414 	strb.w	r3, [r4, #1044]	; 0x414
 800a626:	4628      	mov	r0, r5
 800a628:	b003      	add	sp, #12
 800a62a:	bdf0      	pop	{r4, r5, r6, r7, pc}
 800a62c:	88ca      	ldrh	r2, [r1, #6]
 800a62e:	2a00      	cmp	r2, #0
 800a630:	d052      	beq.n	800a6d8 <USBD_DFU_Setup+0x148>
 800a632:	f894 3418 	ldrb.w	r3, [r4, #1048]	; 0x418
 800a636:	2b02      	cmp	r3, #2
 800a638:	d001      	beq.n	800a63e <USBD_DFU_Setup+0xae>
 800a63a:	2b09      	cmp	r3, #9
 800a63c:	d146      	bne.n	800a6cc <USBD_DFU_Setup+0x13c>
 800a63e:	884f      	ldrh	r7, [r1, #2]
 800a640:	f8d6 02c0 	ldr.w	r0, [r6, #704]	; 0x2c0
 800a644:	f8c4 7400 	str.w	r7, [r4, #1024]	; 0x400
 800a648:	f8c4 2404 	str.w	r2, [r4, #1028]	; 0x404
 800a64c:	b9af      	cbnz	r7, 800a67a <USBD_DFU_Setup+0xea>
 800a64e:	2a03      	cmp	r2, #3
 800a650:	f44f 5304 	mov.w	r3, #8448	; 0x2100
 800a654:	bf98      	it	ls
 800a656:	2509      	movls	r5, #9
 800a658:	8023      	strh	r3, [r4, #0]
 800a65a:	2341      	movs	r3, #65	; 0x41
 800a65c:	f884 5418 	strb.w	r5, [r4, #1048]	; 0x418
 800a660:	f884 7411 	strb.w	r7, [r4, #1041]	; 0x411
 800a664:	f8a4 7412 	strh.w	r7, [r4, #1042]	; 0x412
 800a668:	f884 5414 	strb.w	r5, [r4, #1044]	; 0x414
 800a66c:	70a3      	strb	r3, [r4, #2]
 800a66e:	2203      	movs	r2, #3
 800a670:	4621      	mov	r1, r4
 800a672:	4630      	mov	r0, r6
 800a674:	f000 fcd2 	bl	800b01c <USBD_CtlSendData>
 800a678:	e7bf      	b.n	800a5fa <USBD_DFU_Setup+0x6a>
 800a67a:	2f01      	cmp	r7, #1
 800a67c:	f04f 0500 	mov.w	r5, #0
 800a680:	d017      	beq.n	800a6b2 <USBD_DFU_Setup+0x122>
 800a682:	2309      	movs	r3, #9
 800a684:	f884 3418 	strb.w	r3, [r4, #1048]	; 0x418
 800a688:	f884 5411 	strb.w	r5, [r4, #1041]	; 0x411
 800a68c:	f8a4 5412 	strh.w	r5, [r4, #1042]	; 0x412
 800a690:	f884 3414 	strb.w	r3, [r4, #1044]	; 0x414
 800a694:	6943      	ldr	r3, [r0, #20]
 800a696:	f8d4 0408 	ldr.w	r0, [r4, #1032]	; 0x408
 800a69a:	3f02      	subs	r7, #2
 800a69c:	4621      	mov	r1, r4
 800a69e:	eb00 2087 	add.w	r0, r0, r7, lsl #10
 800a6a2:	4798      	blx	r3
 800a6a4:	f8d4 2404 	ldr.w	r2, [r4, #1028]	; 0x404
 800a6a8:	4601      	mov	r1, r0
 800a6aa:	4630      	mov	r0, r6
 800a6ac:	f000 fcb6 	bl	800b01c <USBD_CtlSendData>
 800a6b0:	e7b9      	b.n	800a626 <USBD_DFU_Setup+0x96>
 800a6b2:	230f      	movs	r3, #15
 800a6b4:	f884 3418 	strb.w	r3, [r4, #1048]	; 0x418
 800a6b8:	f884 5411 	strb.w	r5, [r4, #1041]	; 0x411
 800a6bc:	f8a4 5412 	strh.w	r5, [r4, #1042]	; 0x412
 800a6c0:	f884 3414 	strb.w	r3, [r4, #1044]	; 0x414
 800a6c4:	4630      	mov	r0, r6
 800a6c6:	f000 fc82 	bl	800afce <USBD_CtlError>
 800a6ca:	e7ac      	b.n	800a626 <USBD_DFU_Setup+0x96>
 800a6cc:	2500      	movs	r5, #0
 800a6ce:	f8c4 5404 	str.w	r5, [r4, #1028]	; 0x404
 800a6d2:	f8c4 5400 	str.w	r5, [r4, #1024]	; 0x400
 800a6d6:	e7f5      	b.n	800a6c4 <USBD_DFU_Setup+0x134>
 800a6d8:	2302      	movs	r3, #2
 800a6da:	f884 3418 	strb.w	r3, [r4, #1048]	; 0x418
 800a6de:	f884 2411 	strb.w	r2, [r4, #1041]	; 0x411
 800a6e2:	f8a4 2412 	strh.w	r2, [r4, #1042]	; 0x412
 800a6e6:	f884 3414 	strb.w	r3, [r4, #1044]	; 0x414
 800a6ea:	e786      	b.n	800a5fa <USBD_DFU_Setup+0x6a>
 800a6ec:	f894 3418 	ldrb.w	r3, [r4, #1048]	; 0x418
 800a6f0:	2b03      	cmp	r3, #3
 800a6f2:	f504 6582 	add.w	r5, r4, #1040	; 0x410
 800a6f6:	d004      	beq.n	800a702 <USBD_DFU_Setup+0x172>
 800a6f8:	2b06      	cmp	r3, #6
 800a6fa:	d026      	beq.n	800a74a <USBD_DFU_Setup+0x1ba>
 800a6fc:	2206      	movs	r2, #6
 800a6fe:	4629      	mov	r1, r5
 800a700:	e7b7      	b.n	800a672 <USBD_DFU_Setup+0xe2>
 800a702:	f8d4 3404 	ldr.w	r3, [r4, #1028]	; 0x404
 800a706:	b1d3      	cbz	r3, 800a73e <USBD_DFU_Setup+0x1ae>
 800a708:	f8d0 12c0 	ldr.w	r1, [r0, #704]	; 0x2c0
 800a70c:	f8d4 0408 	ldr.w	r0, [r4, #1032]	; 0x408
 800a710:	2304      	movs	r3, #4
 800a712:	2200      	movs	r2, #0
 800a714:	f884 3418 	strb.w	r3, [r4, #1048]	; 0x418
 800a718:	f884 2411 	strb.w	r2, [r4, #1041]	; 0x411
 800a71c:	f8a4 2412 	strh.w	r2, [r4, #1042]	; 0x412
 800a720:	f884 3414 	strb.w	r3, [r4, #1044]	; 0x414
 800a724:	698b      	ldr	r3, [r1, #24]
 800a726:	f8d4 1400 	ldr.w	r1, [r4, #1024]	; 0x400
 800a72a:	b929      	cbnz	r1, 800a738 <USBD_DFU_Setup+0x1a8>
 800a72c:	7822      	ldrb	r2, [r4, #0]
 800a72e:	2a41      	cmp	r2, #65	; 0x41
 800a730:	d102      	bne.n	800a738 <USBD_DFU_Setup+0x1a8>
 800a732:	462a      	mov	r2, r5
 800a734:	4798      	blx	r3
 800a736:	e7e1      	b.n	800a6fc <USBD_DFU_Setup+0x16c>
 800a738:	462a      	mov	r2, r5
 800a73a:	2101      	movs	r1, #1
 800a73c:	e7fa      	b.n	800a734 <USBD_DFU_Setup+0x1a4>
 800a73e:	2205      	movs	r2, #5
 800a740:	f884 2418 	strb.w	r2, [r4, #1048]	; 0x418
 800a744:	f884 3411 	strb.w	r3, [r4, #1041]	; 0x411
 800a748:	e009      	b.n	800a75e <USBD_DFU_Setup+0x1ce>
 800a74a:	f894 3419 	ldrb.w	r3, [r4, #1049]	; 0x419
 800a74e:	2b01      	cmp	r3, #1
 800a750:	d10a      	bne.n	800a768 <USBD_DFU_Setup+0x1d8>
 800a752:	2207      	movs	r2, #7
 800a754:	f884 3411 	strb.w	r3, [r4, #1041]	; 0x411
 800a758:	f884 2418 	strb.w	r2, [r4, #1048]	; 0x418
 800a75c:	2300      	movs	r3, #0
 800a75e:	f8a4 3412 	strh.w	r3, [r4, #1042]	; 0x412
 800a762:	f884 2414 	strb.w	r2, [r4, #1044]	; 0x414
 800a766:	e7c9      	b.n	800a6fc <USBD_DFU_Setup+0x16c>
 800a768:	2b00      	cmp	r3, #0
 800a76a:	d1c7      	bne.n	800a6fc <USBD_DFU_Setup+0x16c>
 800a76c:	4a56      	ldr	r2, [pc, #344]	; (800a8c8 <USBD_DFU_Setup+0x338>)
 800a76e:	7d12      	ldrb	r2, [r2, #20]
 800a770:	0752      	lsls	r2, r2, #29
 800a772:	d5c3      	bpl.n	800a6fc <USBD_DFU_Setup+0x16c>
 800a774:	2202      	movs	r2, #2
 800a776:	e7e3      	b.n	800a740 <USBD_DFU_Setup+0x1b0>
 800a778:	f894 3418 	ldrb.w	r3, [r4, #1048]	; 0x418
 800a77c:	2b0a      	cmp	r3, #10
 800a77e:	d108      	bne.n	800a792 <USBD_DFU_Setup+0x202>
 800a780:	2302      	movs	r3, #2
 800a782:	2500      	movs	r5, #0
 800a784:	f884 3418 	strb.w	r3, [r4, #1048]	; 0x418
 800a788:	f8c4 5410 	str.w	r5, [r4, #1040]	; 0x410
 800a78c:	f8a4 3414 	strh.w	r3, [r4, #1044]	; 0x414
 800a790:	e749      	b.n	800a626 <USBD_DFU_Setup+0x96>
 800a792:	230a      	movs	r3, #10
 800a794:	220e      	movs	r2, #14
 800a796:	f884 3418 	strb.w	r3, [r4, #1048]	; 0x418
 800a79a:	f8c4 2410 	str.w	r2, [r4, #1040]	; 0x410
 800a79e:	f8a4 3414 	strh.w	r3, [r4, #1044]	; 0x414
 800a7a2:	e72a      	b.n	800a5fa <USBD_DFU_Setup+0x6a>
 800a7a4:	2201      	movs	r2, #1
 800a7a6:	f504 6183 	add.w	r1, r4, #1048	; 0x418
 800a7aa:	e762      	b.n	800a672 <USBD_DFU_Setup+0xe2>
 800a7ac:	f894 3418 	ldrb.w	r3, [r4, #1048]	; 0x418
 800a7b0:	2b09      	cmp	r3, #9
 800a7b2:	f63f af22 	bhi.w	800a5fa <USBD_DFU_Setup+0x6a>
 800a7b6:	f44f 751b 	mov.w	r5, #620	; 0x26c
 800a7ba:	40dd      	lsrs	r5, r3
 800a7bc:	43ed      	mvns	r5, r5
 800a7be:	f015 0501 	ands.w	r5, r5, #1
 800a7c2:	f47f af1a 	bne.w	800a5fa <USBD_DFU_Setup+0x6a>
 800a7c6:	2302      	movs	r3, #2
 800a7c8:	f884 3418 	strb.w	r3, [r4, #1048]	; 0x418
 800a7cc:	f8c4 5410 	str.w	r5, [r4, #1040]	; 0x410
 800a7d0:	f8a4 3414 	strh.w	r3, [r4, #1044]	; 0x414
 800a7d4:	f8c4 5400 	str.w	r5, [r4, #1024]	; 0x400
 800a7d8:	f8c4 5404 	str.w	r5, [r4, #1028]	; 0x404
 800a7dc:	e723      	b.n	800a626 <USBD_DFU_Setup+0x96>
 800a7de:	f894 2418 	ldrb.w	r2, [r4, #1048]	; 0x418
 800a7e2:	2a09      	cmp	r2, #9
 800a7e4:	d811      	bhi.n	800a80a <USBD_DFU_Setup+0x27a>
 800a7e6:	f44f 731b 	mov.w	r3, #620	; 0x26c
 800a7ea:	40d3      	lsrs	r3, r2
 800a7ec:	43db      	mvns	r3, r3
 800a7ee:	f013 0301 	ands.w	r3, r3, #1
 800a7f2:	d10a      	bne.n	800a80a <USBD_DFU_Setup+0x27a>
 800a7f4:	2202      	movs	r2, #2
 800a7f6:	f884 2418 	strb.w	r2, [r4, #1048]	; 0x418
 800a7fa:	f8c4 3410 	str.w	r3, [r4, #1040]	; 0x410
 800a7fe:	f8a4 2414 	strh.w	r2, [r4, #1044]	; 0x414
 800a802:	f8c4 3400 	str.w	r3, [r4, #1024]	; 0x400
 800a806:	f8c4 3404 	str.w	r3, [r4, #1028]	; 0x404
 800a80a:	4b2f      	ldr	r3, [pc, #188]	; (800a8c8 <USBD_DFU_Setup+0x338>)
 800a80c:	7d5b      	ldrb	r3, [r3, #21]
 800a80e:	f013 0410 	ands.w	r4, r3, #16
 800a812:	d006      	beq.n	800a822 <USBD_DFU_Setup+0x292>
 800a814:	4630      	mov	r0, r6
 800a816:	f000 f88f 	bl	800a938 <USBD_Stop>
 800a81a:	4630      	mov	r0, r6
 800a81c:	f000 f88a 	bl	800a934 <USBD_Start>
 800a820:	e701      	b.n	800a626 <USBD_DFU_Setup+0x96>
 800a822:	8848      	ldrh	r0, [r1, #2]
 800a824:	f7fb fb20 	bl	8005e68 <HAL_Delay>
 800a828:	e6e7      	b.n	800a5fa <USBD_DFU_Setup+0x6a>
 800a82a:	784f      	ldrb	r7, [r1, #1]
 800a82c:	2f0b      	cmp	r7, #11
 800a82e:	d826      	bhi.n	800a87e <USBD_DFU_Setup+0x2ee>
 800a830:	a301      	add	r3, pc, #4	; (adr r3, 800a838 <USBD_DFU_Setup+0x2a8>)
 800a832:	f853 f027 	ldr.w	pc, [r3, r7, lsl #2]
 800a836:	bf00      	nop
 800a838:	0800a869 	.word	0x0800a869
 800a83c:	0800a627 	.word	0x0800a627
 800a840:	0800a87f 	.word	0x0800a87f
 800a844:	0800a87f 	.word	0x0800a87f
 800a848:	0800a87f 	.word	0x0800a87f
 800a84c:	0800a87f 	.word	0x0800a87f
 800a850:	0800a889 	.word	0x0800a889
 800a854:	0800a87f 	.word	0x0800a87f
 800a858:	0800a87f 	.word	0x0800a87f
 800a85c:	0800a87f 	.word	0x0800a87f
 800a860:	0800a8a3 	.word	0x0800a8a3
 800a864:	0800a8b3 	.word	0x0800a8b3
 800a868:	f890 329c 	ldrb.w	r3, [r0, #668]	; 0x29c
 800a86c:	2b03      	cmp	r3, #3
 800a86e:	d106      	bne.n	800a87e <USBD_DFU_Setup+0x2ee>
 800a870:	2202      	movs	r2, #2
 800a872:	f10d 0106 	add.w	r1, sp, #6
 800a876:	f000 fbd1 	bl	800b01c <USBD_CtlSendData>
 800a87a:	463d      	mov	r5, r7
 800a87c:	e6d3      	b.n	800a626 <USBD_DFU_Setup+0x96>
 800a87e:	4630      	mov	r0, r6
 800a880:	f000 fba5 	bl	800afce <USBD_CtlError>
 800a884:	2503      	movs	r5, #3
 800a886:	e6ce      	b.n	800a626 <USBD_DFU_Setup+0x96>
 800a888:	884b      	ldrh	r3, [r1, #2]
 800a88a:	0a1b      	lsrs	r3, r3, #8
 800a88c:	2b21      	cmp	r3, #33	; 0x21
 800a88e:	d105      	bne.n	800a89c <USBD_DFU_Setup+0x30c>
 800a890:	88ca      	ldrh	r2, [r1, #6]
 800a892:	490e      	ldr	r1, [pc, #56]	; (800a8cc <USBD_DFU_Setup+0x33c>)
 800a894:	2a09      	cmp	r2, #9
 800a896:	bf28      	it	cs
 800a898:	2209      	movcs	r2, #9
 800a89a:	e706      	b.n	800a6aa <USBD_DFU_Setup+0x11a>
 800a89c:	2200      	movs	r2, #0
 800a89e:	4611      	mov	r1, r2
 800a8a0:	e703      	b.n	800a6aa <USBD_DFU_Setup+0x11a>
 800a8a2:	f890 329c 	ldrb.w	r3, [r0, #668]	; 0x29c
 800a8a6:	2b03      	cmp	r3, #3
 800a8a8:	d1e9      	bne.n	800a87e <USBD_DFU_Setup+0x2ee>
 800a8aa:	2201      	movs	r2, #1
 800a8ac:	f204 410c 	addw	r1, r4, #1036	; 0x40c
 800a8b0:	e6fb      	b.n	800a6aa <USBD_DFU_Setup+0x11a>
 800a8b2:	788d      	ldrb	r5, [r1, #2]
 800a8b4:	2d00      	cmp	r5, #0
 800a8b6:	d1e2      	bne.n	800a87e <USBD_DFU_Setup+0x2ee>
 800a8b8:	f890 329c 	ldrb.w	r3, [r0, #668]	; 0x29c
 800a8bc:	2b03      	cmp	r3, #3
 800a8be:	d1de      	bne.n	800a87e <USBD_DFU_Setup+0x2ee>
 800a8c0:	f8c4 540c 	str.w	r5, [r4, #1036]	; 0x40c
 800a8c4:	e6af      	b.n	800a626 <USBD_DFU_Setup+0x96>
 800a8c6:	bf00      	nop
 800a8c8:	20000694 	.word	0x20000694
 800a8cc:	200006a6 	.word	0x200006a6

0800a8d0 <USBD_DFU_SOF>:
 800a8d0:	2000      	movs	r0, #0
 800a8d2:	4770      	bx	lr

0800a8d4 <USBD_DFU_RegisterMedia>:
 800a8d4:	b119      	cbz	r1, 800a8de <USBD_DFU_RegisterMedia+0xa>
 800a8d6:	f8c0 12c0 	str.w	r1, [r0, #704]	; 0x2c0
 800a8da:	2000      	movs	r0, #0
 800a8dc:	4770      	bx	lr
 800a8de:	2003      	movs	r0, #3
 800a8e0:	4770      	bx	lr

0800a8e2 <USBD_Init>:
 800a8e2:	b178      	cbz	r0, 800a904 <USBD_Init+0x22>
 800a8e4:	2300      	movs	r3, #0
 800a8e6:	f8c0 32b8 	str.w	r3, [r0, #696]	; 0x2b8
 800a8ea:	f8c0 32c0 	str.w	r3, [r0, #704]	; 0x2c0
 800a8ee:	f8c0 32cc 	str.w	r3, [r0, #716]	; 0x2cc
 800a8f2:	b109      	cbz	r1, 800a8f8 <USBD_Init+0x16>
 800a8f4:	f8c0 12b4 	str.w	r1, [r0, #692]	; 0x2b4
 800a8f8:	2301      	movs	r3, #1
 800a8fa:	f880 329c 	strb.w	r3, [r0, #668]	; 0x29c
 800a8fe:	7002      	strb	r2, [r0, #0]
 800a900:	f000 bcf4 	b.w	800b2ec <USBD_LL_Init>
 800a904:	2003      	movs	r0, #3
 800a906:	4770      	bx	lr

0800a908 <USBD_RegisterClass>:
 800a908:	b537      	push	{r0, r1, r2, r4, r5, lr}
 800a90a:	2500      	movs	r5, #0
 800a90c:	4604      	mov	r4, r0
 800a90e:	f8ad 5006 	strh.w	r5, [sp, #6]
 800a912:	b159      	cbz	r1, 800a92c <USBD_RegisterClass+0x24>
 800a914:	6acb      	ldr	r3, [r1, #44]	; 0x2c
 800a916:	f8c0 12b8 	str.w	r1, [r0, #696]	; 0x2b8
 800a91a:	b14b      	cbz	r3, 800a930 <USBD_RegisterClass+0x28>
 800a91c:	f10d 0006 	add.w	r0, sp, #6
 800a920:	4798      	blx	r3
 800a922:	f8c4 02cc 	str.w	r0, [r4, #716]	; 0x2cc
 800a926:	4628      	mov	r0, r5
 800a928:	b003      	add	sp, #12
 800a92a:	bd30      	pop	{r4, r5, pc}
 800a92c:	2003      	movs	r0, #3
 800a92e:	e7fb      	b.n	800a928 <USBD_RegisterClass+0x20>
 800a930:	4618      	mov	r0, r3
 800a932:	e7f9      	b.n	800a928 <USBD_RegisterClass+0x20>

0800a934 <USBD_Start>:
 800a934:	f000 bd08 	b.w	800b348 <USBD_LL_Start>

0800a938 <USBD_Stop>:
 800a938:	b510      	push	{r4, lr}
 800a93a:	4604      	mov	r4, r0
 800a93c:	f000 fd12 	bl	800b364 <USBD_LL_Stop>
 800a940:	f8d4 32b8 	ldr.w	r3, [r4, #696]	; 0x2b8
 800a944:	b11b      	cbz	r3, 800a94e <USBD_Stop+0x16>
 800a946:	685b      	ldr	r3, [r3, #4]
 800a948:	7921      	ldrb	r1, [r4, #4]
 800a94a:	4620      	mov	r0, r4
 800a94c:	4798      	blx	r3
 800a94e:	2000      	movs	r0, #0
 800a950:	bd10      	pop	{r4, pc}

0800a952 <USBD_SetClassConfig>:
 800a952:	f8d0 32b8 	ldr.w	r3, [r0, #696]	; 0x2b8
 800a956:	b10b      	cbz	r3, 800a95c <USBD_SetClassConfig+0xa>
 800a958:	681b      	ldr	r3, [r3, #0]
 800a95a:	4718      	bx	r3
 800a95c:	2003      	movs	r0, #3
 800a95e:	4770      	bx	lr

0800a960 <USBD_ClrClassConfig>:
 800a960:	b508      	push	{r3, lr}
 800a962:	f8d0 32b8 	ldr.w	r3, [r0, #696]	; 0x2b8
 800a966:	b10b      	cbz	r3, 800a96c <USBD_ClrClassConfig+0xc>
 800a968:	685b      	ldr	r3, [r3, #4]
 800a96a:	4798      	blx	r3
 800a96c:	2000      	movs	r0, #0
 800a96e:	bd08      	pop	{r3, pc}

0800a970 <USBD_LL_SetupStage>:
 800a970:	b538      	push	{r3, r4, r5, lr}
 800a972:	4604      	mov	r4, r0
 800a974:	f200 25aa 	addw	r5, r0, #682	; 0x2aa
 800a978:	4628      	mov	r0, r5
 800a97a:	f000 fb14 	bl	800afa6 <USBD_ParseSetupRequest>
 800a97e:	2301      	movs	r3, #1
 800a980:	f894 12aa 	ldrb.w	r1, [r4, #682]	; 0x2aa
 800a984:	f8c4 3294 	str.w	r3, [r4, #660]	; 0x294
 800a988:	f8b4 32b0 	ldrh.w	r3, [r4, #688]	; 0x2b0
 800a98c:	f8c4 3298 	str.w	r3, [r4, #664]	; 0x298
 800a990:	f001 031f 	and.w	r3, r1, #31
 800a994:	2b01      	cmp	r3, #1
 800a996:	d008      	beq.n	800a9aa <USBD_LL_SetupStage+0x3a>
 800a998:	2b02      	cmp	r3, #2
 800a99a:	d00c      	beq.n	800a9b6 <USBD_LL_SetupStage+0x46>
 800a99c:	b98b      	cbnz	r3, 800a9c2 <USBD_LL_SetupStage+0x52>
 800a99e:	4629      	mov	r1, r5
 800a9a0:	4620      	mov	r0, r4
 800a9a2:	e8bd 4038 	ldmia.w	sp!, {r3, r4, r5, lr}
 800a9a6:	f000 b8f5 	b.w	800ab94 <USBD_StdDevReq>
 800a9aa:	4629      	mov	r1, r5
 800a9ac:	4620      	mov	r0, r4
 800a9ae:	e8bd 4038 	ldmia.w	sp!, {r3, r4, r5, lr}
 800a9b2:	f000 ba43 	b.w	800ae3c <USBD_StdItfReq>
 800a9b6:	4629      	mov	r1, r5
 800a9b8:	4620      	mov	r0, r4
 800a9ba:	e8bd 4038 	ldmia.w	sp!, {r3, r4, r5, lr}
 800a9be:	f000 ba63 	b.w	800ae88 <USBD_StdEPReq>
 800a9c2:	4620      	mov	r0, r4
 800a9c4:	f001 0180 	and.w	r1, r1, #128	; 0x80
 800a9c8:	e8bd 4038 	ldmia.w	sp!, {r3, r4, r5, lr}
 800a9cc:	f000 bce8 	b.w	800b3a0 <USBD_LL_StallEP>

0800a9d0 <USBD_LL_DataOutStage>:
 800a9d0:	b570      	push	{r4, r5, r6, lr}
 800a9d2:	4604      	mov	r4, r0
 800a9d4:	4615      	mov	r5, r2
 800a9d6:	b9f9      	cbnz	r1, 800aa18 <USBD_LL_DataOutStage+0x48>
 800a9d8:	f8d0 3294 	ldr.w	r3, [r0, #660]	; 0x294
 800a9dc:	2b03      	cmp	r3, #3
 800a9de:	d10c      	bne.n	800a9fa <USBD_LL_DataOutStage+0x2a>
 800a9e0:	e9d0 3257 	ldrd	r3, r2, [r0, #348]	; 0x15c
 800a9e4:	4293      	cmp	r3, r2
 800a9e6:	d90a      	bls.n	800a9fe <USBD_LL_DataOutStage+0x2e>
 800a9e8:	1a9b      	subs	r3, r3, r2
 800a9ea:	429a      	cmp	r2, r3
 800a9ec:	f8c0 315c 	str.w	r3, [r0, #348]	; 0x15c
 800a9f0:	bf28      	it	cs
 800a9f2:	461a      	movcs	r2, r3
 800a9f4:	4629      	mov	r1, r5
 800a9f6:	f000 fb33 	bl	800b060 <USBD_CtlContinueRx>
 800a9fa:	2000      	movs	r0, #0
 800a9fc:	bd70      	pop	{r4, r5, r6, pc}
 800a9fe:	f890 329c 	ldrb.w	r3, [r0, #668]	; 0x29c
 800aa02:	2b03      	cmp	r3, #3
 800aa04:	d104      	bne.n	800aa10 <USBD_LL_DataOutStage+0x40>
 800aa06:	f8d0 32b8 	ldr.w	r3, [r0, #696]	; 0x2b8
 800aa0a:	691b      	ldr	r3, [r3, #16]
 800aa0c:	b103      	cbz	r3, 800aa10 <USBD_LL_DataOutStage+0x40>
 800aa0e:	4798      	blx	r3
 800aa10:	4620      	mov	r0, r4
 800aa12:	f000 fb2d 	bl	800b070 <USBD_CtlSendStatus>
 800aa16:	e7f0      	b.n	800a9fa <USBD_LL_DataOutStage+0x2a>
 800aa18:	f890 329c 	ldrb.w	r3, [r0, #668]	; 0x29c
 800aa1c:	2b03      	cmp	r3, #3
 800aa1e:	d1ec      	bne.n	800a9fa <USBD_LL_DataOutStage+0x2a>
 800aa20:	f8d0 32b8 	ldr.w	r3, [r0, #696]	; 0x2b8
 800aa24:	699b      	ldr	r3, [r3, #24]
 800aa26:	2b00      	cmp	r3, #0
 800aa28:	d0e7      	beq.n	800a9fa <USBD_LL_DataOutStage+0x2a>
 800aa2a:	e8bd 4070 	ldmia.w	sp!, {r4, r5, r6, lr}
 800aa2e:	4718      	bx	r3

0800aa30 <USBD_LL_DataInStage>:
 800aa30:	b573      	push	{r0, r1, r4, r5, r6, lr}
 800aa32:	4604      	mov	r4, r0
 800aa34:	4616      	mov	r6, r2
 800aa36:	2900      	cmp	r1, #0
 800aa38:	d13f      	bne.n	800aaba <USBD_LL_DataInStage+0x8a>
 800aa3a:	f8d0 2294 	ldr.w	r2, [r0, #660]	; 0x294
 800aa3e:	2a02      	cmp	r2, #2
 800aa40:	d10f      	bne.n	800aa62 <USBD_LL_DataInStage+0x32>
 800aa42:	e9d0 5207 	ldrd	r5, r2, [r0, #28]
 800aa46:	4295      	cmp	r5, r2
 800aa48:	d915      	bls.n	800aa76 <USBD_LL_DataInStage+0x46>
 800aa4a:	1aaa      	subs	r2, r5, r2
 800aa4c:	9101      	str	r1, [sp, #4]
 800aa4e:	61c2      	str	r2, [r0, #28]
 800aa50:	4631      	mov	r1, r6
 800aa52:	f000 faf0 	bl	800b036 <USBD_CtlContinueSendData>
 800aa56:	9b01      	ldr	r3, [sp, #4]
 800aa58:	461a      	mov	r2, r3
 800aa5a:	4619      	mov	r1, r3
 800aa5c:	4620      	mov	r0, r4
 800aa5e:	f000 fceb 	bl	800b438 <USBD_LL_PrepareReceive>
 800aa62:	f894 32a0 	ldrb.w	r3, [r4, #672]	; 0x2a0
 800aa66:	2b01      	cmp	r3, #1
 800aa68:	d102      	bne.n	800aa70 <USBD_LL_DataInStage+0x40>
 800aa6a:	2300      	movs	r3, #0
 800aa6c:	f884 32a0 	strb.w	r3, [r4, #672]	; 0x2a0
 800aa70:	2000      	movs	r0, #0
 800aa72:	b002      	add	sp, #8
 800aa74:	bd70      	pop	{r4, r5, r6, pc}
 800aa76:	d10e      	bne.n	800aa96 <USBD_LL_DataInStage+0x66>
 800aa78:	6982      	ldr	r2, [r0, #24]
 800aa7a:	4295      	cmp	r5, r2
 800aa7c:	d80b      	bhi.n	800aa96 <USBD_LL_DataInStage+0x66>
 800aa7e:	f8d0 5298 	ldr.w	r5, [r0, #664]	; 0x298
 800aa82:	42aa      	cmp	r2, r5
 800aa84:	d207      	bcs.n	800aa96 <USBD_LL_DataInStage+0x66>
 800aa86:	460a      	mov	r2, r1
 800aa88:	9101      	str	r1, [sp, #4]
 800aa8a:	f000 fad4 	bl	800b036 <USBD_CtlContinueSendData>
 800aa8e:	9b01      	ldr	r3, [sp, #4]
 800aa90:	f8c4 3298 	str.w	r3, [r4, #664]	; 0x298
 800aa94:	e7e0      	b.n	800aa58 <USBD_LL_DataInStage+0x28>
 800aa96:	f894 329c 	ldrb.w	r3, [r4, #668]	; 0x29c
 800aa9a:	2b03      	cmp	r3, #3
 800aa9c:	d105      	bne.n	800aaaa <USBD_LL_DataInStage+0x7a>
 800aa9e:	f8d4 32b8 	ldr.w	r3, [r4, #696]	; 0x2b8
 800aaa2:	68db      	ldr	r3, [r3, #12]
 800aaa4:	b10b      	cbz	r3, 800aaaa <USBD_LL_DataInStage+0x7a>
 800aaa6:	4620      	mov	r0, r4
 800aaa8:	4798      	blx	r3
 800aaaa:	2180      	movs	r1, #128	; 0x80
 800aaac:	4620      	mov	r0, r4
 800aaae:	f000 fc77 	bl	800b3a0 <USBD_LL_StallEP>
 800aab2:	4620      	mov	r0, r4
 800aab4:	f000 fae7 	bl	800b086 <USBD_CtlReceiveStatus>
 800aab8:	e7d3      	b.n	800aa62 <USBD_LL_DataInStage+0x32>
 800aaba:	f890 329c 	ldrb.w	r3, [r0, #668]	; 0x29c
 800aabe:	2b03      	cmp	r3, #3
 800aac0:	d1d6      	bne.n	800aa70 <USBD_LL_DataInStage+0x40>
 800aac2:	f8d0 32b8 	ldr.w	r3, [r0, #696]	; 0x2b8
 800aac6:	695b      	ldr	r3, [r3, #20]
 800aac8:	2b00      	cmp	r3, #0
 800aaca:	d0d1      	beq.n	800aa70 <USBD_LL_DataInStage+0x40>
 800aacc:	b002      	add	sp, #8
 800aace:	e8bd 4070 	ldmia.w	sp!, {r4, r5, r6, lr}
 800aad2:	4718      	bx	r3

0800aad4 <USBD_LL_Reset>:
 800aad4:	2301      	movs	r3, #1
 800aad6:	b570      	push	{r4, r5, r6, lr}
 800aad8:	f880 329c 	strb.w	r3, [r0, #668]	; 0x29c
 800aadc:	f8d0 32b8 	ldr.w	r3, [r0, #696]	; 0x2b8
 800aae0:	2100      	movs	r1, #0
 800aae2:	4604      	mov	r4, r0
 800aae4:	f8c0 1294 	str.w	r1, [r0, #660]	; 0x294
 800aae8:	6041      	str	r1, [r0, #4]
 800aaea:	f8c0 12a4 	str.w	r1, [r0, #676]	; 0x2a4
 800aaee:	b1db      	cbz	r3, 800ab28 <USBD_LL_Reset+0x54>
 800aaf0:	f8d0 22bc 	ldr.w	r2, [r0, #700]	; 0x2bc
 800aaf4:	b112      	cbz	r2, 800aafc <USBD_LL_Reset+0x28>
 800aaf6:	685b      	ldr	r3, [r3, #4]
 800aaf8:	b103      	cbz	r3, 800aafc <USBD_LL_Reset+0x28>
 800aafa:	4798      	blx	r3
 800aafc:	2200      	movs	r2, #0
 800aafe:	4611      	mov	r1, r2
 800ab00:	2540      	movs	r5, #64	; 0x40
 800ab02:	2340      	movs	r3, #64	; 0x40
 800ab04:	2601      	movs	r6, #1
 800ab06:	4620      	mov	r0, r4
 800ab08:	f000 fc3a 	bl	800b380 <USBD_LL_OpenEP>
 800ab0c:	f8a4 6164 	strh.w	r6, [r4, #356]	; 0x164
 800ab10:	f8c4 5160 	str.w	r5, [r4, #352]	; 0x160
 800ab14:	462b      	mov	r3, r5
 800ab16:	2200      	movs	r2, #0
 800ab18:	2180      	movs	r1, #128	; 0x80
 800ab1a:	4620      	mov	r0, r4
 800ab1c:	f000 fc30 	bl	800b380 <USBD_LL_OpenEP>
 800ab20:	84a6      	strh	r6, [r4, #36]	; 0x24
 800ab22:	6225      	str	r5, [r4, #32]
 800ab24:	2000      	movs	r0, #0
 800ab26:	bd70      	pop	{r4, r5, r6, pc}
 800ab28:	2003      	movs	r0, #3
 800ab2a:	e7fc      	b.n	800ab26 <USBD_LL_Reset+0x52>

0800ab2c <USBD_LL_SetSpeed>:
 800ab2c:	7401      	strb	r1, [r0, #16]
 800ab2e:	2000      	movs	r0, #0
 800ab30:	4770      	bx	lr

0800ab32 <USBD_LL_Suspend>:
 800ab32:	f890 329c 	ldrb.w	r3, [r0, #668]	; 0x29c
 800ab36:	b2db      	uxtb	r3, r3
 800ab38:	f880 329d 	strb.w	r3, [r0, #669]	; 0x29d
 800ab3c:	2304      	movs	r3, #4
 800ab3e:	f880 329c 	strb.w	r3, [r0, #668]	; 0x29c
 800ab42:	2000      	movs	r0, #0
 800ab44:	4770      	bx	lr

0800ab46 <USBD_LL_Resume>:
 800ab46:	f890 329c 	ldrb.w	r3, [r0, #668]	; 0x29c
 800ab4a:	2b04      	cmp	r3, #4
 800ab4c:	bf02      	ittt	eq
 800ab4e:	f890 329d 	ldrbeq.w	r3, [r0, #669]	; 0x29d
 800ab52:	b2db      	uxtbeq	r3, r3
 800ab54:	f880 329c 	strbeq.w	r3, [r0, #668]	; 0x29c
 800ab58:	2000      	movs	r0, #0
 800ab5a:	4770      	bx	lr

0800ab5c <USBD_LL_SOF>:
 800ab5c:	f8d0 22b8 	ldr.w	r2, [r0, #696]	; 0x2b8
 800ab60:	b508      	push	{r3, lr}
 800ab62:	b142      	cbz	r2, 800ab76 <USBD_LL_SOF+0x1a>
 800ab64:	f890 329c 	ldrb.w	r3, [r0, #668]	; 0x29c
 800ab68:	2b03      	cmp	r3, #3
 800ab6a:	d102      	bne.n	800ab72 <USBD_LL_SOF+0x16>
 800ab6c:	69d3      	ldr	r3, [r2, #28]
 800ab6e:	b123      	cbz	r3, 800ab7a <USBD_LL_SOF+0x1e>
 800ab70:	4798      	blx	r3
 800ab72:	2000      	movs	r0, #0
 800ab74:	e000      	b.n	800ab78 <USBD_LL_SOF+0x1c>
 800ab76:	2003      	movs	r0, #3
 800ab78:	bd08      	pop	{r3, pc}
 800ab7a:	4618      	mov	r0, r3
 800ab7c:	e7fc      	b.n	800ab78 <USBD_LL_SOF+0x1c>

0800ab7e <USBD_CtlError.constprop.0>:
 800ab7e:	b510      	push	{r4, lr}
 800ab80:	2180      	movs	r1, #128	; 0x80
 800ab82:	4604      	mov	r4, r0
 800ab84:	f000 fc0c 	bl	800b3a0 <USBD_LL_StallEP>
 800ab88:	4620      	mov	r0, r4
 800ab8a:	2100      	movs	r1, #0
 800ab8c:	e8bd 4010 	ldmia.w	sp!, {r4, lr}
 800ab90:	f000 bc06 	b.w	800b3a0 <USBD_LL_StallEP>

0800ab94 <USBD_StdDevReq>:
 800ab94:	b5f7      	push	{r0, r1, r2, r4, r5, r6, r7, lr}
 800ab96:	780d      	ldrb	r5, [r1, #0]
 800ab98:	f005 0560 	and.w	r5, r5, #96	; 0x60
 800ab9c:	2d20      	cmp	r5, #32
 800ab9e:	4604      	mov	r4, r0
 800aba0:	460e      	mov	r6, r1
 800aba2:	d014      	beq.n	800abce <USBD_StdDevReq+0x3a>
 800aba4:	2d40      	cmp	r5, #64	; 0x40
 800aba6:	d012      	beq.n	800abce <USBD_StdDevReq+0x3a>
 800aba8:	2d00      	cmp	r5, #0
 800abaa:	f040 8111 	bne.w	800add0 <USBD_StdDevReq+0x23c>
 800abae:	784f      	ldrb	r7, [r1, #1]
 800abb0:	2f09      	cmp	r7, #9
 800abb2:	f200 810d 	bhi.w	800add0 <USBD_StdDevReq+0x23c>
 800abb6:	e8df f017 	tbh	[pc, r7, lsl #1]
 800abba:	0112      	.short	0x0112
 800abbc:	010b0134 	.word	0x010b0134
 800abc0:	010b012a 	.word	0x010b012a
 800abc4:	00140092 	.word	0x00140092
 800abc8:	00fa010b 	.word	0x00fa010b
 800abcc:	00ae      	.short	0x00ae
 800abce:	f8d4 32b8 	ldr.w	r3, [r4, #696]	; 0x2b8
 800abd2:	4631      	mov	r1, r6
 800abd4:	689b      	ldr	r3, [r3, #8]
 800abd6:	4620      	mov	r0, r4
 800abd8:	4798      	blx	r3
 800abda:	4605      	mov	r5, r0
 800abdc:	4628      	mov	r0, r5
 800abde:	b003      	add	sp, #12
 800abe0:	bdf0      	pop	{r4, r5, r6, r7, pc}
 800abe2:	8849      	ldrh	r1, [r1, #2]
 800abe4:	2300      	movs	r3, #0
 800abe6:	f8ad 3006 	strh.w	r3, [sp, #6]
 800abea:	0a0b      	lsrs	r3, r1, #8
 800abec:	3b01      	subs	r3, #1
 800abee:	2b0e      	cmp	r3, #14
 800abf0:	d80d      	bhi.n	800ac0e <USBD_StdDevReq+0x7a>
 800abf2:	e8df f003 	tbb	[pc, r3]
 800abf6:	2910      	.short	0x2910
 800abf8:	5f0c0c36 	.word	0x5f0c0c36
 800abfc:	0c0c0c69 	.word	0x0c0c0c69
 800ac00:	0c0c0c0c 	.word	0x0c0c0c0c
 800ac04:	08          	.byte	0x08
 800ac05:	00          	.byte	0x00
 800ac06:	f8d0 32b4 	ldr.w	r3, [r0, #692]	; 0x2b4
 800ac0a:	69db      	ldr	r3, [r3, #28]
 800ac0c:	b933      	cbnz	r3, 800ac1c <USBD_StdDevReq+0x88>
 800ac0e:	4620      	mov	r0, r4
 800ac10:	f7ff ffb5 	bl	800ab7e <USBD_CtlError.constprop.0>
 800ac14:	e7e2      	b.n	800abdc <USBD_StdDevReq+0x48>
 800ac16:	f8d0 32b4 	ldr.w	r3, [r0, #692]	; 0x2b4
 800ac1a:	681b      	ldr	r3, [r3, #0]
 800ac1c:	7c20      	ldrb	r0, [r4, #16]
 800ac1e:	f10d 0106 	add.w	r1, sp, #6
 800ac22:	4798      	blx	r3
 800ac24:	88f2      	ldrh	r2, [r6, #6]
 800ac26:	2a00      	cmp	r2, #0
 800ac28:	f000 80f7 	beq.w	800ae1a <USBD_StdDevReq+0x286>
 800ac2c:	f8bd 3006 	ldrh.w	r3, [sp, #6]
 800ac30:	2b00      	cmp	r3, #0
 800ac32:	d0ec      	beq.n	800ac0e <USBD_StdDevReq+0x7a>
 800ac34:	429a      	cmp	r2, r3
 800ac36:	bf28      	it	cs
 800ac38:	461a      	movcs	r2, r3
 800ac3a:	f8ad 2006 	strh.w	r2, [sp, #6]
 800ac3e:	4601      	mov	r1, r0
 800ac40:	4620      	mov	r0, r4
 800ac42:	f000 f9eb 	bl	800b01c <USBD_CtlSendData>
 800ac46:	e7c9      	b.n	800abdc <USBD_StdDevReq+0x48>
 800ac48:	7c02      	ldrb	r2, [r0, #16]
 800ac4a:	f8d0 32b8 	ldr.w	r3, [r0, #696]	; 0x2b8
 800ac4e:	b932      	cbnz	r2, 800ac5e <USBD_StdDevReq+0xca>
 800ac50:	6a9b      	ldr	r3, [r3, #40]	; 0x28
 800ac52:	f10d 0006 	add.w	r0, sp, #6
 800ac56:	4798      	blx	r3
 800ac58:	2302      	movs	r3, #2
 800ac5a:	7043      	strb	r3, [r0, #1]
 800ac5c:	e7e2      	b.n	800ac24 <USBD_StdDevReq+0x90>
 800ac5e:	6adb      	ldr	r3, [r3, #44]	; 0x2c
 800ac60:	e7f7      	b.n	800ac52 <USBD_StdDevReq+0xbe>
 800ac62:	b2c9      	uxtb	r1, r1
 800ac64:	2905      	cmp	r1, #5
 800ac66:	d81c      	bhi.n	800aca2 <USBD_StdDevReq+0x10e>
 800ac68:	e8df f001 	tbb	[pc, r1]
 800ac6c:	0f0b0703 	.word	0x0f0b0703
 800ac70:	1713      	.short	0x1713
 800ac72:	f8d0 32b4 	ldr.w	r3, [r0, #692]	; 0x2b4
 800ac76:	685b      	ldr	r3, [r3, #4]
 800ac78:	e7c8      	b.n	800ac0c <USBD_StdDevReq+0x78>
 800ac7a:	f8d0 32b4 	ldr.w	r3, [r0, #692]	; 0x2b4
 800ac7e:	689b      	ldr	r3, [r3, #8]
 800ac80:	e7c4      	b.n	800ac0c <USBD_StdDevReq+0x78>
 800ac82:	f8d0 32b4 	ldr.w	r3, [r0, #692]	; 0x2b4
 800ac86:	68db      	ldr	r3, [r3, #12]
 800ac88:	e7c0      	b.n	800ac0c <USBD_StdDevReq+0x78>
 800ac8a:	f8d0 32b4 	ldr.w	r3, [r0, #692]	; 0x2b4
 800ac8e:	691b      	ldr	r3, [r3, #16]
 800ac90:	e7bc      	b.n	800ac0c <USBD_StdDevReq+0x78>
 800ac92:	f8d0 32b4 	ldr.w	r3, [r0, #692]	; 0x2b4
 800ac96:	695b      	ldr	r3, [r3, #20]
 800ac98:	e7b8      	b.n	800ac0c <USBD_StdDevReq+0x78>
 800ac9a:	f8d0 32b4 	ldr.w	r3, [r0, #692]	; 0x2b4
 800ac9e:	699b      	ldr	r3, [r3, #24]
 800aca0:	e7b4      	b.n	800ac0c <USBD_StdDevReq+0x78>
 800aca2:	f8d0 32b8 	ldr.w	r3, [r0, #696]	; 0x2b8
 800aca6:	6b9b      	ldr	r3, [r3, #56]	; 0x38
 800aca8:	2b00      	cmp	r3, #0
 800acaa:	d0b0      	beq.n	800ac0e <USBD_StdDevReq+0x7a>
 800acac:	f10d 0206 	add.w	r2, sp, #6
 800acb0:	4798      	blx	r3
 800acb2:	e7b7      	b.n	800ac24 <USBD_StdDevReq+0x90>
 800acb4:	7c03      	ldrb	r3, [r0, #16]
 800acb6:	2b00      	cmp	r3, #0
 800acb8:	d1a9      	bne.n	800ac0e <USBD_StdDevReq+0x7a>
 800acba:	f8d0 32b8 	ldr.w	r3, [r0, #696]	; 0x2b8
 800acbe:	f10d 0006 	add.w	r0, sp, #6
 800acc2:	6b5b      	ldr	r3, [r3, #52]	; 0x34
 800acc4:	4798      	blx	r3
 800acc6:	e7ad      	b.n	800ac24 <USBD_StdDevReq+0x90>
 800acc8:	7c03      	ldrb	r3, [r0, #16]
 800acca:	2b00      	cmp	r3, #0
 800accc:	d19f      	bne.n	800ac0e <USBD_StdDevReq+0x7a>
 800acce:	f8d0 32b8 	ldr.w	r3, [r0, #696]	; 0x2b8
 800acd2:	f10d 0006 	add.w	r0, sp, #6
 800acd6:	6b1b      	ldr	r3, [r3, #48]	; 0x30
 800acd8:	4798      	blx	r3
 800acda:	2307      	movs	r3, #7
 800acdc:	e7bd      	b.n	800ac5a <USBD_StdDevReq+0xc6>
 800acde:	888b      	ldrh	r3, [r1, #4]
 800ace0:	2b00      	cmp	r3, #0
 800ace2:	d194      	bne.n	800ac0e <USBD_StdDevReq+0x7a>
 800ace4:	88cb      	ldrh	r3, [r1, #6]
 800ace6:	2b00      	cmp	r3, #0
 800ace8:	d191      	bne.n	800ac0e <USBD_StdDevReq+0x7a>
 800acea:	884e      	ldrh	r6, [r1, #2]
 800acec:	2e7f      	cmp	r6, #127	; 0x7f
 800acee:	d88e      	bhi.n	800ac0e <USBD_StdDevReq+0x7a>
 800acf0:	f890 329c 	ldrb.w	r3, [r0, #668]	; 0x29c
 800acf4:	2b03      	cmp	r3, #3
 800acf6:	d08a      	beq.n	800ac0e <USBD_StdDevReq+0x7a>
 800acf8:	b2f1      	uxtb	r1, r6
 800acfa:	f880 129e 	strb.w	r1, [r0, #670]	; 0x29e
 800acfe:	f000 fb7f 	bl	800b400 <USBD_LL_SetUSBAddress>
 800ad02:	4620      	mov	r0, r4
 800ad04:	f000 f9b4 	bl	800b070 <USBD_CtlSendStatus>
 800ad08:	b11e      	cbz	r6, 800ad12 <USBD_StdDevReq+0x17e>
 800ad0a:	2302      	movs	r3, #2
 800ad0c:	f884 329c 	strb.w	r3, [r4, #668]	; 0x29c
 800ad10:	e764      	b.n	800abdc <USBD_StdDevReq+0x48>
 800ad12:	2301      	movs	r3, #1
 800ad14:	e7fa      	b.n	800ad0c <USBD_StdDevReq+0x178>
 800ad16:	788e      	ldrb	r6, [r1, #2]
 800ad18:	4f47      	ldr	r7, [pc, #284]	; (800ae38 <USBD_StdDevReq+0x2a4>)
 800ad1a:	2e01      	cmp	r6, #1
 800ad1c:	703e      	strb	r6, [r7, #0]
 800ad1e:	d903      	bls.n	800ad28 <USBD_StdDevReq+0x194>
 800ad20:	f7ff ff2d 	bl	800ab7e <USBD_CtlError.constprop.0>
 800ad24:	2503      	movs	r5, #3
 800ad26:	e759      	b.n	800abdc <USBD_StdDevReq+0x48>
 800ad28:	f890 329c 	ldrb.w	r3, [r0, #668]	; 0x29c
 800ad2c:	2b02      	cmp	r3, #2
 800ad2e:	b2da      	uxtb	r2, r3
 800ad30:	d008      	beq.n	800ad44 <USBD_StdDevReq+0x1b0>
 800ad32:	2a03      	cmp	r2, #3
 800ad34:	d015      	beq.n	800ad62 <USBD_StdDevReq+0x1ce>
 800ad36:	f7ff ff22 	bl	800ab7e <USBD_CtlError.constprop.0>
 800ad3a:	7839      	ldrb	r1, [r7, #0]
 800ad3c:	4620      	mov	r0, r4
 800ad3e:	f7ff fe0f 	bl	800a960 <USBD_ClrClassConfig>
 800ad42:	e7ef      	b.n	800ad24 <USBD_StdDevReq+0x190>
 800ad44:	2e00      	cmp	r6, #0
 800ad46:	d068      	beq.n	800ae1a <USBD_StdDevReq+0x286>
 800ad48:	2101      	movs	r1, #1
 800ad4a:	6041      	str	r1, [r0, #4]
 800ad4c:	f7ff fe01 	bl	800a952 <USBD_SetClassConfig>
 800ad50:	4605      	mov	r5, r0
 800ad52:	4620      	mov	r0, r4
 800ad54:	2d00      	cmp	r5, #0
 800ad56:	f47f af5b 	bne.w	800ac10 <USBD_StdDevReq+0x7c>
 800ad5a:	f000 f989 	bl	800b070 <USBD_CtlSendStatus>
 800ad5e:	2303      	movs	r3, #3
 800ad60:	e7d4      	b.n	800ad0c <USBD_StdDevReq+0x178>
 800ad62:	b95e      	cbnz	r6, 800ad7c <USBD_StdDevReq+0x1e8>
 800ad64:	2302      	movs	r3, #2
 800ad66:	f880 329c 	strb.w	r3, [r0, #668]	; 0x29c
 800ad6a:	6046      	str	r6, [r0, #4]
 800ad6c:	4631      	mov	r1, r6
 800ad6e:	f7ff fdf7 	bl	800a960 <USBD_ClrClassConfig>
 800ad72:	4620      	mov	r0, r4
 800ad74:	f000 f97c 	bl	800b070 <USBD_CtlSendStatus>
 800ad78:	4635      	mov	r5, r6
 800ad7a:	e72f      	b.n	800abdc <USBD_StdDevReq+0x48>
 800ad7c:	6841      	ldr	r1, [r0, #4]
 800ad7e:	2901      	cmp	r1, #1
 800ad80:	d04b      	beq.n	800ae1a <USBD_StdDevReq+0x286>
 800ad82:	b2c9      	uxtb	r1, r1
 800ad84:	f7ff fdec 	bl	800a960 <USBD_ClrClassConfig>
 800ad88:	7839      	ldrb	r1, [r7, #0]
 800ad8a:	6061      	str	r1, [r4, #4]
 800ad8c:	4620      	mov	r0, r4
 800ad8e:	f7ff fde0 	bl	800a952 <USBD_SetClassConfig>
 800ad92:	4606      	mov	r6, r0
 800ad94:	2800      	cmp	r0, #0
 800ad96:	d040      	beq.n	800ae1a <USBD_StdDevReq+0x286>
 800ad98:	4620      	mov	r0, r4
 800ad9a:	f7ff fef0 	bl	800ab7e <USBD_CtlError.constprop.0>
 800ad9e:	7921      	ldrb	r1, [r4, #4]
 800ada0:	4620      	mov	r0, r4
 800ada2:	f7ff fddd 	bl	800a960 <USBD_ClrClassConfig>
 800ada6:	2302      	movs	r3, #2
 800ada8:	f884 329c 	strb.w	r3, [r4, #668]	; 0x29c
 800adac:	e7e4      	b.n	800ad78 <USBD_StdDevReq+0x1e4>
 800adae:	88ca      	ldrh	r2, [r1, #6]
 800adb0:	2a01      	cmp	r2, #1
 800adb2:	f47f af2c 	bne.w	800ac0e <USBD_StdDevReq+0x7a>
 800adb6:	f890 129c 	ldrb.w	r1, [r0, #668]	; 0x29c
 800adba:	2902      	cmp	r1, #2
 800adbc:	b2cb      	uxtb	r3, r1
 800adbe:	d805      	bhi.n	800adcc <USBD_StdDevReq+0x238>
 800adc0:	b133      	cbz	r3, 800add0 <USBD_StdDevReq+0x23c>
 800adc2:	4601      	mov	r1, r0
 800adc4:	2300      	movs	r3, #0
 800adc6:	f841 3f08 	str.w	r3, [r1, #8]!
 800adca:	e739      	b.n	800ac40 <USBD_StdDevReq+0xac>
 800adcc:	2b03      	cmp	r3, #3
 800adce:	d004      	beq.n	800adda <USBD_StdDevReq+0x246>
 800add0:	4620      	mov	r0, r4
 800add2:	f7ff fed4 	bl	800ab7e <USBD_CtlError.constprop.0>
 800add6:	2500      	movs	r5, #0
 800add8:	e700      	b.n	800abdc <USBD_StdDevReq+0x48>
 800adda:	1d01      	adds	r1, r0, #4
 800addc:	e730      	b.n	800ac40 <USBD_StdDevReq+0xac>
 800adde:	f890 329c 	ldrb.w	r3, [r0, #668]	; 0x29c
 800ade2:	3b01      	subs	r3, #1
 800ade4:	2b02      	cmp	r3, #2
 800ade6:	d8f3      	bhi.n	800add0 <USBD_StdDevReq+0x23c>
 800ade8:	88cb      	ldrh	r3, [r1, #6]
 800adea:	2b02      	cmp	r3, #2
 800adec:	f47f af0f 	bne.w	800ac0e <USBD_StdDevReq+0x7a>
 800adf0:	2301      	movs	r3, #1
 800adf2:	60c3      	str	r3, [r0, #12]
 800adf4:	f8d0 32a4 	ldr.w	r3, [r0, #676]	; 0x2a4
 800adf8:	b10b      	cbz	r3, 800adfe <USBD_StdDevReq+0x26a>
 800adfa:	2303      	movs	r3, #3
 800adfc:	60c3      	str	r3, [r0, #12]
 800adfe:	2202      	movs	r2, #2
 800ae00:	f104 010c 	add.w	r1, r4, #12
 800ae04:	4620      	mov	r0, r4
 800ae06:	f000 f909 	bl	800b01c <USBD_CtlSendData>
 800ae0a:	463d      	mov	r5, r7
 800ae0c:	e6e6      	b.n	800abdc <USBD_StdDevReq+0x48>
 800ae0e:	884b      	ldrh	r3, [r1, #2]
 800ae10:	2b01      	cmp	r3, #1
 800ae12:	f47f aee3 	bne.w	800abdc <USBD_StdDevReq+0x48>
 800ae16:	f8c4 32a4 	str.w	r3, [r4, #676]	; 0x2a4
 800ae1a:	4620      	mov	r0, r4
 800ae1c:	f000 f928 	bl	800b070 <USBD_CtlSendStatus>
 800ae20:	e6dc      	b.n	800abdc <USBD_StdDevReq+0x48>
 800ae22:	f890 329c 	ldrb.w	r3, [r0, #668]	; 0x29c
 800ae26:	3b01      	subs	r3, #1
 800ae28:	2b02      	cmp	r3, #2
 800ae2a:	d8d1      	bhi.n	800add0 <USBD_StdDevReq+0x23c>
 800ae2c:	884b      	ldrh	r3, [r1, #2]
 800ae2e:	2b01      	cmp	r3, #1
 800ae30:	f47f aed4 	bne.w	800abdc <USBD_StdDevReq+0x48>
 800ae34:	2300      	movs	r3, #0
 800ae36:	e7ee      	b.n	800ae16 <USBD_StdDevReq+0x282>
 800ae38:	20000afb 	.word	0x20000afb

0800ae3c <USBD_StdItfReq>:
 800ae3c:	b570      	push	{r4, r5, r6, lr}
 800ae3e:	780b      	ldrb	r3, [r1, #0]
 800ae40:	f003 0260 	and.w	r2, r3, #96	; 0x60
 800ae44:	2a40      	cmp	r2, #64	; 0x40
 800ae46:	4604      	mov	r4, r0
 800ae48:	460e      	mov	r6, r1
 800ae4a:	d001      	beq.n	800ae50 <USBD_StdItfReq+0x14>
 800ae4c:	065b      	lsls	r3, r3, #25
 800ae4e:	d416      	bmi.n	800ae7e <USBD_StdItfReq+0x42>
 800ae50:	f894 329c 	ldrb.w	r3, [r4, #668]	; 0x29c
 800ae54:	3b01      	subs	r3, #1
 800ae56:	2b02      	cmp	r3, #2
 800ae58:	d811      	bhi.n	800ae7e <USBD_StdItfReq+0x42>
 800ae5a:	7933      	ldrb	r3, [r6, #4]
 800ae5c:	2b01      	cmp	r3, #1
 800ae5e:	d80e      	bhi.n	800ae7e <USBD_StdItfReq+0x42>
 800ae60:	f8d4 32b8 	ldr.w	r3, [r4, #696]	; 0x2b8
 800ae64:	4631      	mov	r1, r6
 800ae66:	689b      	ldr	r3, [r3, #8]
 800ae68:	4620      	mov	r0, r4
 800ae6a:	4798      	blx	r3
 800ae6c:	88f3      	ldrh	r3, [r6, #6]
 800ae6e:	4605      	mov	r5, r0
 800ae70:	b91b      	cbnz	r3, 800ae7a <USBD_StdItfReq+0x3e>
 800ae72:	b910      	cbnz	r0, 800ae7a <USBD_StdItfReq+0x3e>
 800ae74:	4620      	mov	r0, r4
 800ae76:	f000 f8fb 	bl	800b070 <USBD_CtlSendStatus>
 800ae7a:	4628      	mov	r0, r5
 800ae7c:	bd70      	pop	{r4, r5, r6, pc}
 800ae7e:	4620      	mov	r0, r4
 800ae80:	f7ff fe7d 	bl	800ab7e <USBD_CtlError.constprop.0>
 800ae84:	2500      	movs	r5, #0
 800ae86:	e7f8      	b.n	800ae7a <USBD_StdItfReq+0x3e>

0800ae88 <USBD_StdEPReq>:
 800ae88:	b570      	push	{r4, r5, r6, lr}
 800ae8a:	780b      	ldrb	r3, [r1, #0]
 800ae8c:	f003 0360 	and.w	r3, r3, #96	; 0x60
 800ae90:	2b20      	cmp	r3, #32
 800ae92:	4604      	mov	r4, r0
 800ae94:	460d      	mov	r5, r1
 800ae96:	d052      	beq.n	800af3e <USBD_StdEPReq+0xb6>
 800ae98:	2b40      	cmp	r3, #64	; 0x40
 800ae9a:	d050      	beq.n	800af3e <USBD_StdEPReq+0xb6>
 800ae9c:	bb6b      	cbnz	r3, 800aefa <USBD_StdEPReq+0x72>
 800ae9e:	786b      	ldrb	r3, [r5, #1]
 800aea0:	888a      	ldrh	r2, [r1, #4]
 800aea2:	7909      	ldrb	r1, [r1, #4]
 800aea4:	2b01      	cmp	r3, #1
 800aea6:	d039      	beq.n	800af1c <USBD_StdEPReq+0x94>
 800aea8:	2b03      	cmp	r3, #3
 800aeaa:	d01f      	beq.n	800aeec <USBD_StdEPReq+0x64>
 800aeac:	bb2b      	cbnz	r3, 800aefa <USBD_StdEPReq+0x72>
 800aeae:	f890 329c 	ldrb.w	r3, [r0, #668]	; 0x29c
 800aeb2:	2b02      	cmp	r3, #2
 800aeb4:	b2d8      	uxtb	r0, r3
 800aeb6:	d053      	beq.n	800af60 <USBD_StdEPReq+0xd8>
 800aeb8:	2803      	cmp	r0, #3
 800aeba:	d11e      	bne.n	800aefa <USBD_StdEPReq+0x72>
 800aebc:	f001 030f 	and.w	r3, r1, #15
 800aec0:	f012 0f80 	tst.w	r2, #128	; 0x80
 800aec4:	f04f 0214 	mov.w	r2, #20
 800aec8:	fb02 4303 	mla	r3, r2, r3, r4
 800aecc:	d057      	beq.n	800af7e <USBD_StdEPReq+0xf6>
 800aece:	8c9b      	ldrh	r3, [r3, #36]	; 0x24
 800aed0:	b19b      	cbz	r3, 800aefa <USBD_StdEPReq+0x72>
 800aed2:	f001 057f 	and.w	r5, r1, #127	; 0x7f
 800aed6:	2314      	movs	r3, #20
 800aed8:	fb05 3303 	mla	r3, r5, r3, r3
 800aedc:	18e5      	adds	r5, r4, r3
 800aede:	f011 037f 	ands.w	r3, r1, #127	; 0x7f
 800aee2:	d158      	bne.n	800af96 <USBD_StdEPReq+0x10e>
 800aee4:	602b      	str	r3, [r5, #0]
 800aee6:	2202      	movs	r2, #2
 800aee8:	4629      	mov	r1, r5
 800aeea:	e044      	b.n	800af76 <USBD_StdEPReq+0xee>
 800aeec:	f890 329c 	ldrb.w	r3, [r0, #668]	; 0x29c
 800aef0:	2b02      	cmp	r3, #2
 800aef2:	b2da      	uxtb	r2, r3
 800aef4:	d02b      	beq.n	800af4e <USBD_StdEPReq+0xc6>
 800aef6:	2a03      	cmp	r2, #3
 800aef8:	d003      	beq.n	800af02 <USBD_StdEPReq+0x7a>
 800aefa:	4620      	mov	r0, r4
 800aefc:	f7ff fe3f 	bl	800ab7e <USBD_CtlError.constprop.0>
 800af00:	e00a      	b.n	800af18 <USBD_StdEPReq+0x90>
 800af02:	886b      	ldrh	r3, [r5, #2]
 800af04:	b92b      	cbnz	r3, 800af12 <USBD_StdEPReq+0x8a>
 800af06:	064a      	lsls	r2, r1, #25
 800af08:	d003      	beq.n	800af12 <USBD_StdEPReq+0x8a>
 800af0a:	88eb      	ldrh	r3, [r5, #6]
 800af0c:	b90b      	cbnz	r3, 800af12 <USBD_StdEPReq+0x8a>
 800af0e:	f000 fa47 	bl	800b3a0 <USBD_LL_StallEP>
 800af12:	4620      	mov	r0, r4
 800af14:	f000 f8ac 	bl	800b070 <USBD_CtlSendStatus>
 800af18:	2000      	movs	r0, #0
 800af1a:	bd70      	pop	{r4, r5, r6, pc}
 800af1c:	f890 329c 	ldrb.w	r3, [r0, #668]	; 0x29c
 800af20:	2b02      	cmp	r3, #2
 800af22:	b2da      	uxtb	r2, r3
 800af24:	d013      	beq.n	800af4e <USBD_StdEPReq+0xc6>
 800af26:	2a03      	cmp	r2, #3
 800af28:	d1e7      	bne.n	800aefa <USBD_StdEPReq+0x72>
 800af2a:	886b      	ldrh	r3, [r5, #2]
 800af2c:	2b00      	cmp	r3, #0
 800af2e:	d1f3      	bne.n	800af18 <USBD_StdEPReq+0x90>
 800af30:	064e      	lsls	r6, r1, #25
 800af32:	d001      	beq.n	800af38 <USBD_StdEPReq+0xb0>
 800af34:	f000 fa42 	bl	800b3bc <USBD_LL_ClearStallEP>
 800af38:	4620      	mov	r0, r4
 800af3a:	f000 f899 	bl	800b070 <USBD_CtlSendStatus>
 800af3e:	f8d4 32b8 	ldr.w	r3, [r4, #696]	; 0x2b8
 800af42:	4629      	mov	r1, r5
 800af44:	4620      	mov	r0, r4
 800af46:	689b      	ldr	r3, [r3, #8]
 800af48:	e8bd 4070 	ldmia.w	sp!, {r4, r5, r6, lr}
 800af4c:	4718      	bx	r3
 800af4e:	064b      	lsls	r3, r1, #25
 800af50:	d0d3      	beq.n	800aefa <USBD_StdEPReq+0x72>
 800af52:	f000 fa25 	bl	800b3a0 <USBD_LL_StallEP>
 800af56:	2180      	movs	r1, #128	; 0x80
 800af58:	4620      	mov	r0, r4
 800af5a:	f000 fa21 	bl	800b3a0 <USBD_LL_StallEP>
 800af5e:	e7db      	b.n	800af18 <USBD_StdEPReq+0x90>
 800af60:	0649      	lsls	r1, r1, #25
 800af62:	d1ca      	bne.n	800aefa <USBD_StdEPReq+0x72>
 800af64:	0613      	lsls	r3, r2, #24
 800af66:	bf4c      	ite	mi
 800af68:	f104 0114 	addmi.w	r1, r4, #20
 800af6c:	f504 71aa 	addpl.w	r1, r4, #340	; 0x154
 800af70:	2300      	movs	r3, #0
 800af72:	600b      	str	r3, [r1, #0]
 800af74:	2202      	movs	r2, #2
 800af76:	4620      	mov	r0, r4
 800af78:	f000 f850 	bl	800b01c <USBD_CtlSendData>
 800af7c:	e7cc      	b.n	800af18 <USBD_StdEPReq+0x90>
 800af7e:	f8b3 3164 	ldrh.w	r3, [r3, #356]	; 0x164
 800af82:	2b00      	cmp	r3, #0
 800af84:	d0b9      	beq.n	800aefa <USBD_StdEPReq+0x72>
 800af86:	f001 057f 	and.w	r5, r1, #127	; 0x7f
 800af8a:	2314      	movs	r3, #20
 800af8c:	fb03 4505 	mla	r5, r3, r5, r4
 800af90:	f505 75aa 	add.w	r5, r5, #340	; 0x154
 800af94:	e7a3      	b.n	800aede <USBD_StdEPReq+0x56>
 800af96:	4620      	mov	r0, r4
 800af98:	f000 fa1e 	bl	800b3d8 <USBD_LL_IsStallEP>
 800af9c:	b108      	cbz	r0, 800afa2 <USBD_StdEPReq+0x11a>
 800af9e:	2301      	movs	r3, #1
 800afa0:	e7a0      	b.n	800aee4 <USBD_StdEPReq+0x5c>
 800afa2:	6028      	str	r0, [r5, #0]
 800afa4:	e79f      	b.n	800aee6 <USBD_StdEPReq+0x5e>

0800afa6 <USBD_ParseSetupRequest>:
 800afa6:	780b      	ldrb	r3, [r1, #0]
 800afa8:	7003      	strb	r3, [r0, #0]
 800afaa:	784b      	ldrb	r3, [r1, #1]
 800afac:	7043      	strb	r3, [r0, #1]
 800afae:	78ca      	ldrb	r2, [r1, #3]
 800afb0:	788b      	ldrb	r3, [r1, #2]
 800afb2:	ea43 2302 	orr.w	r3, r3, r2, lsl #8
 800afb6:	8043      	strh	r3, [r0, #2]
 800afb8:	794a      	ldrb	r2, [r1, #5]
 800afba:	790b      	ldrb	r3, [r1, #4]
 800afbc:	ea43 2302 	orr.w	r3, r3, r2, lsl #8
 800afc0:	8083      	strh	r3, [r0, #4]
 800afc2:	79ca      	ldrb	r2, [r1, #7]
 800afc4:	798b      	ldrb	r3, [r1, #6]
 800afc6:	ea43 2302 	orr.w	r3, r3, r2, lsl #8
 800afca:	80c3      	strh	r3, [r0, #6]
 800afcc:	4770      	bx	lr

0800afce <USBD_CtlError>:
 800afce:	b510      	push	{r4, lr}
 800afd0:	2180      	movs	r1, #128	; 0x80
 800afd2:	4604      	mov	r4, r0
 800afd4:	f000 f9e4 	bl	800b3a0 <USBD_LL_StallEP>
 800afd8:	4620      	mov	r0, r4
 800afda:	2100      	movs	r1, #0
 800afdc:	e8bd 4010 	ldmia.w	sp!, {r4, lr}
 800afe0:	f000 b9de 	b.w	800b3a0 <USBD_LL_StallEP>

0800afe4 <USBD_GetString>:
 800afe4:	b530      	push	{r4, r5, lr}
 800afe6:	b188      	cbz	r0, 800b00c <USBD_GetString+0x28>
 800afe8:	2500      	movs	r5, #0
 800afea:	3801      	subs	r0, #1
 800afec:	462b      	mov	r3, r5
 800afee:	3501      	adds	r5, #1
 800aff0:	5d44      	ldrb	r4, [r0, r5]
 800aff2:	2c00      	cmp	r4, #0
 800aff4:	d1fa      	bne.n	800afec <USBD_GetString+0x8>
 800aff6:	b2db      	uxtb	r3, r3
 800aff8:	3301      	adds	r3, #1
 800affa:	005b      	lsls	r3, r3, #1
 800affc:	8013      	strh	r3, [r2, #0]
 800affe:	700b      	strb	r3, [r1, #0]
 800b000:	2303      	movs	r3, #3
 800b002:	704b      	strb	r3, [r1, #1]
 800b004:	2302      	movs	r3, #2
 800b006:	f810 2f01 	ldrb.w	r2, [r0, #1]!
 800b00a:	b902      	cbnz	r2, 800b00e <USBD_GetString+0x2a>
 800b00c:	bd30      	pop	{r4, r5, pc}
 800b00e:	54ca      	strb	r2, [r1, r3]
 800b010:	1c5a      	adds	r2, r3, #1
 800b012:	b2d2      	uxtb	r2, r2
 800b014:	3302      	adds	r3, #2
 800b016:	548c      	strb	r4, [r1, r2]
 800b018:	b2db      	uxtb	r3, r3
 800b01a:	e7f4      	b.n	800b006 <USBD_GetString+0x22>

0800b01c <USBD_CtlSendData>:
 800b01c:	b510      	push	{r4, lr}
 800b01e:	2402      	movs	r4, #2
 800b020:	4613      	mov	r3, r2
 800b022:	e9c0 2206 	strd	r2, r2, [r0, #24]
 800b026:	f8c0 4294 	str.w	r4, [r0, #660]	; 0x294
 800b02a:	460a      	mov	r2, r1
 800b02c:	2100      	movs	r1, #0
 800b02e:	f000 f9f5 	bl	800b41c <USBD_LL_Transmit>
 800b032:	2000      	movs	r0, #0
 800b034:	bd10      	pop	{r4, pc}

0800b036 <USBD_CtlContinueSendData>:
 800b036:	b508      	push	{r3, lr}
 800b038:	4613      	mov	r3, r2
 800b03a:	460a      	mov	r2, r1
 800b03c:	2100      	movs	r1, #0
 800b03e:	f000 f9ed 	bl	800b41c <USBD_LL_Transmit>
 800b042:	2000      	movs	r0, #0
 800b044:	bd08      	pop	{r3, pc}

0800b046 <USBD_CtlPrepareRx>:
 800b046:	b510      	push	{r4, lr}
 800b048:	2403      	movs	r4, #3
 800b04a:	4613      	mov	r3, r2
 800b04c:	e9c0 2256 	strd	r2, r2, [r0, #344]	; 0x158
 800b050:	f8c0 4294 	str.w	r4, [r0, #660]	; 0x294
 800b054:	460a      	mov	r2, r1
 800b056:	2100      	movs	r1, #0
 800b058:	f000 f9ee 	bl	800b438 <USBD_LL_PrepareReceive>
 800b05c:	2000      	movs	r0, #0
 800b05e:	bd10      	pop	{r4, pc}

0800b060 <USBD_CtlContinueRx>:
 800b060:	b508      	push	{r3, lr}
 800b062:	4613      	mov	r3, r2
 800b064:	460a      	mov	r2, r1
 800b066:	2100      	movs	r1, #0
 800b068:	f000 f9e6 	bl	800b438 <USBD_LL_PrepareReceive>
 800b06c:	2000      	movs	r0, #0
 800b06e:	bd08      	pop	{r3, pc}

0800b070 <USBD_CtlSendStatus>:
 800b070:	b508      	push	{r3, lr}
 800b072:	2204      	movs	r2, #4
 800b074:	2300      	movs	r3, #0
 800b076:	f8c0 2294 	str.w	r2, [r0, #660]	; 0x294
 800b07a:	4619      	mov	r1, r3
 800b07c:	461a      	mov	r2, r3
 800b07e:	f000 f9cd 	bl	800b41c <USBD_LL_Transmit>
 800b082:	2000      	movs	r0, #0
 800b084:	bd08      	pop	{r3, pc}

0800b086 <USBD_CtlReceiveStatus>:
 800b086:	b508      	push	{r3, lr}
 800b088:	2205      	movs	r2, #5
 800b08a:	2300      	movs	r3, #0
 800b08c:	f8c0 2294 	str.w	r2, [r0, #660]	; 0x294
 800b090:	4619      	mov	r1, r3
 800b092:	461a      	mov	r2, r3
 800b094:	f000 f9d0 	bl	800b438 <USBD_LL_PrepareReceive>
 800b098:	2000      	movs	r0, #0
 800b09a:	bd08      	pop	{r3, pc}

0800b09c <MX_USB_DEVICE_Init>:
 800b09c:	b508      	push	{r3, lr}
 800b09e:	490f      	ldr	r1, [pc, #60]	; (800b0dc <MX_USB_DEVICE_Init+0x40>)
 800b0a0:	480f      	ldr	r0, [pc, #60]	; (800b0e0 <MX_USB_DEVICE_Init+0x44>)
 800b0a2:	2200      	movs	r2, #0
 800b0a4:	f7ff fc1d 	bl	800a8e2 <USBD_Init>
 800b0a8:	b108      	cbz	r0, 800b0ae <MX_USB_DEVICE_Init+0x12>
 800b0aa:	f7fa fb73 	bl	8005794 <Error_Handler>
 800b0ae:	490d      	ldr	r1, [pc, #52]	; (800b0e4 <MX_USB_DEVICE_Init+0x48>)
 800b0b0:	480b      	ldr	r0, [pc, #44]	; (800b0e0 <MX_USB_DEVICE_Init+0x44>)
 800b0b2:	f7ff fc29 	bl	800a908 <USBD_RegisterClass>
 800b0b6:	b108      	cbz	r0, 800b0bc <MX_USB_DEVICE_Init+0x20>
 800b0b8:	f7fa fb6c 	bl	8005794 <Error_Handler>
 800b0bc:	490a      	ldr	r1, [pc, #40]	; (800b0e8 <MX_USB_DEVICE_Init+0x4c>)
 800b0be:	4808      	ldr	r0, [pc, #32]	; (800b0e0 <MX_USB_DEVICE_Init+0x44>)
 800b0c0:	f7ff fc08 	bl	800a8d4 <USBD_DFU_RegisterMedia>
 800b0c4:	b108      	cbz	r0, 800b0ca <MX_USB_DEVICE_Init+0x2e>
 800b0c6:	f7fa fb65 	bl	8005794 <Error_Handler>
 800b0ca:	4805      	ldr	r0, [pc, #20]	; (800b0e0 <MX_USB_DEVICE_Init+0x44>)
 800b0cc:	f7ff fc32 	bl	800a934 <USBD_Start>
 800b0d0:	b118      	cbz	r0, 800b0da <MX_USB_DEVICE_Init+0x3e>
 800b0d2:	e8bd 4008 	ldmia.w	sp!, {r3, lr}
 800b0d6:	f7fa bb5d 	b.w	8005794 <Error_Handler>
 800b0da:	bd08      	pop	{r3, pc}
 800b0dc:	200006bc 	.word	0x200006bc
 800b0e0:	2000278c 	.word	0x2000278c
 800b0e4:	20000658 	.word	0x20000658
 800b0e8:	2000071c 	.word	0x2000071c

0800b0ec <USB_DFU>:
 800b0ec:	f7ff bfd6 	b.w	800b09c <MX_USB_DEVICE_Init>

0800b0f0 <USBD_FS_DeviceDescriptor>:
 800b0f0:	2312      	movs	r3, #18
 800b0f2:	4801      	ldr	r0, [pc, #4]	; (800b0f8 <USBD_FS_DeviceDescriptor+0x8>)
 800b0f4:	800b      	strh	r3, [r1, #0]
 800b0f6:	4770      	bx	lr
 800b0f8:	200006e8 	.word	0x200006e8

0800b0fc <USBD_FS_LangIDStrDescriptor>:
 800b0fc:	2304      	movs	r3, #4
 800b0fe:	4801      	ldr	r0, [pc, #4]	; (800b104 <USBD_FS_LangIDStrDescriptor+0x8>)
 800b100:	800b      	strh	r3, [r1, #0]
 800b102:	4770      	bx	lr
 800b104:	200006fc 	.word	0x200006fc

0800b108 <USBD_FS_USR_BOSDescriptor>:
 800b108:	230c      	movs	r3, #12
 800b10a:	4801      	ldr	r0, [pc, #4]	; (800b110 <USBD_FS_USR_BOSDescriptor+0x8>)
 800b10c:	800b      	strh	r3, [r1, #0]
 800b10e:	4770      	bx	lr
 800b110:	200006dc 	.word	0x200006dc

0800b114 <IntToUnicode>:
 800b114:	2300      	movs	r3, #0
 800b116:	b570      	push	{r4, r5, r6, lr}
 800b118:	1c4d      	adds	r5, r1, #1
 800b11a:	461e      	mov	r6, r3
 800b11c:	0f04      	lsrs	r4, r0, #28
 800b11e:	f1b0 4f20 	cmp.w	r0, #2684354560	; 0xa0000000
 800b122:	bf34      	ite	cc
 800b124:	3430      	addcc	r4, #48	; 0x30
 800b126:	3437      	addcs	r4, #55	; 0x37
 800b128:	f801 4013 	strb.w	r4, [r1, r3, lsl #1]
 800b12c:	f805 6013 	strb.w	r6, [r5, r3, lsl #1]
 800b130:	3301      	adds	r3, #1
 800b132:	b2dc      	uxtb	r4, r3
 800b134:	42a2      	cmp	r2, r4
 800b136:	ea4f 1000 	mov.w	r0, r0, lsl #4
 800b13a:	d8ef      	bhi.n	800b11c <IntToUnicode+0x8>
 800b13c:	bd70      	pop	{r4, r5, r6, pc}
	...

0800b140 <USBD_FS_SerialStrDescriptor>:
 800b140:	231a      	movs	r3, #26
 800b142:	b510      	push	{r4, lr}
 800b144:	800b      	strh	r3, [r1, #0]
 800b146:	4b09      	ldr	r3, [pc, #36]	; (800b16c <USBD_FS_SerialStrDescriptor+0x2c>)
 800b148:	6818      	ldr	r0, [r3, #0]
 800b14a:	3308      	adds	r3, #8
 800b14c:	681b      	ldr	r3, [r3, #0]
 800b14e:	18c0      	adds	r0, r0, r3
 800b150:	d00a      	beq.n	800b168 <USBD_FS_SerialStrDescriptor+0x28>
 800b152:	4b07      	ldr	r3, [pc, #28]	; (800b170 <USBD_FS_SerialStrDescriptor+0x30>)
 800b154:	4907      	ldr	r1, [pc, #28]	; (800b174 <USBD_FS_SerialStrDescriptor+0x34>)
 800b156:	681c      	ldr	r4, [r3, #0]
 800b158:	2208      	movs	r2, #8
 800b15a:	f7ff ffdb 	bl	800b114 <IntToUnicode>
 800b15e:	4906      	ldr	r1, [pc, #24]	; (800b178 <USBD_FS_SerialStrDescriptor+0x38>)
 800b160:	2204      	movs	r2, #4
 800b162:	4620      	mov	r0, r4
 800b164:	f7ff ffd6 	bl	800b114 <IntToUnicode>
 800b168:	4804      	ldr	r0, [pc, #16]	; (800b17c <USBD_FS_SerialStrDescriptor+0x3c>)
 800b16a:	bd10      	pop	{r4, pc}
 800b16c:	1fff7590 	.word	0x1fff7590
 800b170:	1fff7594 	.word	0x1fff7594
 800b174:	20000702 	.word	0x20000702
 800b178:	20000712 	.word	0x20000712
 800b17c:	20000700 	.word	0x20000700

0800b180 <USBD_FS_ManufacturerStrDescriptor>:
 800b180:	b510      	push	{r4, lr}
 800b182:	4c04      	ldr	r4, [pc, #16]	; (800b194 <USBD_FS_ManufacturerStrDescriptor+0x14>)
 800b184:	4804      	ldr	r0, [pc, #16]	; (800b198 <USBD_FS_ManufacturerStrDescriptor+0x18>)
 800b186:	460a      	mov	r2, r1
 800b188:	4621      	mov	r1, r4
 800b18a:	f7ff ff2b 	bl	800afe4 <USBD_GetString>
 800b18e:	4620      	mov	r0, r4
 800b190:	bd10      	pop	{r4, pc}
 800b192:	bf00      	nop
 800b194:	20002a5c 	.word	0x20002a5c
 800b198:	0800fd8c 	.word	0x0800fd8c

0800b19c <USBD_FS_ProductStrDescriptor>:
 800b19c:	b510      	push	{r4, lr}
 800b19e:	4c04      	ldr	r4, [pc, #16]	; (800b1b0 <USBD_FS_ProductStrDescriptor+0x14>)
 800b1a0:	4804      	ldr	r0, [pc, #16]	; (800b1b4 <USBD_FS_ProductStrDescriptor+0x18>)
 800b1a2:	460a      	mov	r2, r1
 800b1a4:	4621      	mov	r1, r4
 800b1a6:	f7ff ff1d 	bl	800afe4 <USBD_GetString>
 800b1aa:	4620      	mov	r0, r4
 800b1ac:	bd10      	pop	{r4, pc}
 800b1ae:	bf00      	nop
 800b1b0:	20002a5c 	.word	0x20002a5c
 800b1b4:	0800fd95 	.word	0x0800fd95

0800b1b8 <USBD_FS_ConfigStrDescriptor>:
 800b1b8:	b510      	push	{r4, lr}
 800b1ba:	4c04      	ldr	r4, [pc, #16]	; (800b1cc <USBD_FS_ConfigStrDescriptor+0x14>)
 800b1bc:	4804      	ldr	r0, [pc, #16]	; (800b1d0 <USBD_FS_ConfigStrDescriptor+0x18>)
 800b1be:	460a      	mov	r2, r1
 800b1c0:	4621      	mov	r1, r4
 800b1c2:	f7ff ff0f 	bl	800afe4 <USBD_GetString>
 800b1c6:	4620      	mov	r0, r4
 800b1c8:	bd10      	pop	{r4, pc}
 800b1ca:	bf00      	nop
 800b1cc:	20002a5c 	.word	0x20002a5c
 800b1d0:	0800fdb4 	.word	0x0800fdb4

0800b1d4 <USBD_FS_InterfaceStrDescriptor>:
 800b1d4:	b510      	push	{r4, lr}
 800b1d6:	4c04      	ldr	r4, [pc, #16]	; (800b1e8 <USBD_FS_InterfaceStrDescriptor+0x14>)
 800b1d8:	4804      	ldr	r0, [pc, #16]	; (800b1ec <USBD_FS_InterfaceStrDescriptor+0x18>)
 800b1da:	460a      	mov	r2, r1
 800b1dc:	4621      	mov	r1, r4
 800b1de:	f7ff ff01 	bl	800afe4 <USBD_GetString>
 800b1e2:	4620      	mov	r0, r4
 800b1e4:	bd10      	pop	{r4, pc}
 800b1e6:	bf00      	nop
 800b1e8:	20002a5c 	.word	0x20002a5c
 800b1ec:	0800fdbf 	.word	0x0800fdbf

0800b1f0 <MEM_If_Init_FS>:
 800b1f0:	2000      	movs	r0, #0
 800b1f2:	4770      	bx	lr

0800b1f4 <MEM_If_Erase_FS>:
 800b1f4:	2000      	movs	r0, #0
 800b1f6:	4770      	bx	lr

0800b1f8 <MEM_If_Write_FS>:
 800b1f8:	2000      	movs	r0, #0
 800b1fa:	4770      	bx	lr

0800b1fc <MEM_If_Read_FS>:
 800b1fc:	2000      	movs	r0, #0
 800b1fe:	4770      	bx	lr

0800b200 <MEM_If_GetStatus_FS>:
 800b200:	2000      	movs	r0, #0
 800b202:	4770      	bx	lr

0800b204 <MEM_If_DeInit_FS>:
 800b204:	2000      	movs	r0, #0
 800b206:	4770      	bx	lr

0800b208 <HAL_PCD_MspInit>:
 800b208:	b507      	push	{r0, r1, r2, lr}
 800b20a:	4b0e      	ldr	r3, [pc, #56]	; (800b244 <HAL_PCD_MspInit+0x3c>)
 800b20c:	6802      	ldr	r2, [r0, #0]
 800b20e:	429a      	cmp	r2, r3
 800b210:	d115      	bne.n	800b23e <HAL_PCD_MspInit+0x36>
 800b212:	f503 33d4 	add.w	r3, r3, #108544	; 0x1a800
 800b216:	2043      	movs	r0, #67	; 0x43
 800b218:	6d9a      	ldr	r2, [r3, #88]	; 0x58
 800b21a:	f042 6280 	orr.w	r2, r2, #67108864	; 0x4000000
 800b21e:	659a      	str	r2, [r3, #88]	; 0x58
 800b220:	6d9b      	ldr	r3, [r3, #88]	; 0x58
 800b222:	2200      	movs	r2, #0
 800b224:	f003 6380 	and.w	r3, r3, #67108864	; 0x4000000
 800b228:	9301      	str	r3, [sp, #4]
 800b22a:	4611      	mov	r1, r2
 800b22c:	9b01      	ldr	r3, [sp, #4]
 800b22e:	f7fa fe41 	bl	8005eb4 <HAL_NVIC_SetPriority>
 800b232:	2043      	movs	r0, #67	; 0x43
 800b234:	b003      	add	sp, #12
 800b236:	f85d eb04 	ldr.w	lr, [sp], #4
 800b23a:	f7fa be6d 	b.w	8005f18 <HAL_NVIC_EnableIRQ>
 800b23e:	b003      	add	sp, #12
 800b240:	f85d fb04 	ldr.w	pc, [sp], #4
 800b244:	40006800 	.word	0x40006800

0800b248 <HAL_PCD_SetupStageCallback>:
 800b248:	f500 712c 	add.w	r1, r0, #688	; 0x2b0
 800b24c:	f8d0 02f0 	ldr.w	r0, [r0, #752]	; 0x2f0
 800b250:	f7ff bb8e 	b.w	800a970 <USBD_LL_SetupStage>

0800b254 <HAL_PCD_DataOutStageCallback>:
 800b254:	2328      	movs	r3, #40	; 0x28
 800b256:	fb03 0301 	mla	r3, r3, r1, r0
 800b25a:	f8d0 02f0 	ldr.w	r0, [r0, #752]	; 0x2f0
 800b25e:	f8d3 217c 	ldr.w	r2, [r3, #380]	; 0x17c
 800b262:	f7ff bbb5 	b.w	800a9d0 <USBD_LL_DataOutStage>

0800b266 <HAL_PCD_DataInStageCallback>:
 800b266:	2328      	movs	r3, #40	; 0x28
 800b268:	fb03 0301 	mla	r3, r3, r1, r0
 800b26c:	f8d0 02f0 	ldr.w	r0, [r0, #752]	; 0x2f0
 800b270:	6bda      	ldr	r2, [r3, #60]	; 0x3c
 800b272:	f7ff bbdd 	b.w	800aa30 <USBD_LL_DataInStage>

0800b276 <HAL_PCD_SOFCallback>:
 800b276:	f8d0 02f0 	ldr.w	r0, [r0, #752]	; 0x2f0
 800b27a:	f7ff bc6f 	b.w	800ab5c <USBD_LL_SOF>

0800b27e <HAL_PCD_ResetCallback>:
 800b27e:	6883      	ldr	r3, [r0, #8]
 800b280:	2b02      	cmp	r3, #2
 800b282:	b510      	push	{r4, lr}
 800b284:	4604      	mov	r4, r0
 800b286:	d001      	beq.n	800b28c <HAL_PCD_ResetCallback+0xe>
 800b288:	f7fa fa84 	bl	8005794 <Error_Handler>
 800b28c:	f8d4 02f0 	ldr.w	r0, [r4, #752]	; 0x2f0
 800b290:	2101      	movs	r1, #1
 800b292:	f7ff fc4b 	bl	800ab2c <USBD_LL_SetSpeed>
 800b296:	f8d4 02f0 	ldr.w	r0, [r4, #752]	; 0x2f0
 800b29a:	e8bd 4010 	ldmia.w	sp!, {r4, lr}
 800b29e:	f7ff bc19 	b.w	800aad4 <USBD_LL_Reset>
	...

0800b2a4 <HAL_PCD_SuspendCallback>:
 800b2a4:	b510      	push	{r4, lr}
 800b2a6:	4604      	mov	r4, r0
 800b2a8:	f8d0 02f0 	ldr.w	r0, [r0, #752]	; 0x2f0
 800b2ac:	f7ff fc41 	bl	800ab32 <USBD_LL_Suspend>
 800b2b0:	69a3      	ldr	r3, [r4, #24]
 800b2b2:	b123      	cbz	r3, 800b2be <HAL_PCD_SuspendCallback+0x1a>
 800b2b4:	4a02      	ldr	r2, [pc, #8]	; (800b2c0 <HAL_PCD_SuspendCallback+0x1c>)
 800b2b6:	6913      	ldr	r3, [r2, #16]
 800b2b8:	f043 0306 	orr.w	r3, r3, #6
 800b2bc:	6113      	str	r3, [r2, #16]
 800b2be:	bd10      	pop	{r4, pc}
 800b2c0:	e000ed00 	.word	0xe000ed00

0800b2c4 <HAL_PCD_ResumeCallback>:
 800b2c4:	6983      	ldr	r3, [r0, #24]
 800b2c6:	b510      	push	{r4, lr}
 800b2c8:	4604      	mov	r4, r0
 800b2ca:	b133      	cbz	r3, 800b2da <HAL_PCD_ResumeCallback+0x16>
 800b2cc:	4a06      	ldr	r2, [pc, #24]	; (800b2e8 <HAL_PCD_ResumeCallback+0x24>)
 800b2ce:	6913      	ldr	r3, [r2, #16]
 800b2d0:	f023 0306 	bic.w	r3, r3, #6
 800b2d4:	6113      	str	r3, [r2, #16]
 800b2d6:	f7f9 fdeb 	bl	8004eb0 <SystemClock_Config>
 800b2da:	f8d4 02f0 	ldr.w	r0, [r4, #752]	; 0x2f0
 800b2de:	e8bd 4010 	ldmia.w	sp!, {r4, lr}
 800b2e2:	f7ff bc30 	b.w	800ab46 <USBD_LL_Resume>
 800b2e6:	bf00      	nop
 800b2e8:	e000ed00 	.word	0xe000ed00

0800b2ec <USBD_LL_Init>:
 800b2ec:	b510      	push	{r4, lr}
 800b2ee:	4604      	mov	r4, r0
 800b2f0:	f7fc fac8 	bl	8007884 <HAL_PWREx_EnableVddUSB>
 800b2f4:	4812      	ldr	r0, [pc, #72]	; (800b340 <USBD_LL_Init+0x54>)
 800b2f6:	4a13      	ldr	r2, [pc, #76]	; (800b344 <USBD_LL_Init+0x58>)
 800b2f8:	f8c0 42f0 	str.w	r4, [r0, #752]	; 0x2f0
 800b2fc:	2308      	movs	r3, #8
 800b2fe:	e9c0 2300 	strd	r2, r3, [r0]
 800b302:	2302      	movs	r3, #2
 800b304:	6083      	str	r3, [r0, #8]
 800b306:	6103      	str	r3, [r0, #16]
 800b308:	f8c4 02c4 	str.w	r0, [r4, #708]	; 0x2c4
 800b30c:	2300      	movs	r3, #0
 800b30e:	e9c0 3305 	strd	r3, r3, [r0, #20]
 800b312:	e9c0 3307 	strd	r3, r3, [r0, #28]
 800b316:	f7fb fbd3 	bl	8006ac0 <HAL_PCD_Init>
 800b31a:	b108      	cbz	r0, 800b320 <USBD_LL_Init+0x34>
 800b31c:	f7fa fa3a 	bl	8005794 <Error_Handler>
 800b320:	2200      	movs	r2, #0
 800b322:	4611      	mov	r1, r2
 800b324:	f8d4 02c4 	ldr.w	r0, [r4, #708]	; 0x2c4
 800b328:	2318      	movs	r3, #24
 800b32a:	f7fc fa33 	bl	8007794 <HAL_PCDEx_PMAConfig>
 800b32e:	f8d4 02c4 	ldr.w	r0, [r4, #708]	; 0x2c4
 800b332:	2358      	movs	r3, #88	; 0x58
 800b334:	2200      	movs	r2, #0
 800b336:	2180      	movs	r1, #128	; 0x80
 800b338:	f7fc fa2c 	bl	8007794 <HAL_PCDEx_PMAConfig>
 800b33c:	2000      	movs	r0, #0
 800b33e:	bd10      	pop	{r4, pc}
 800b340:	20002c5c 	.word	0x20002c5c
 800b344:	40006800 	.word	0x40006800

0800b348 <USBD_LL_Start>:
 800b348:	b508      	push	{r3, lr}
 800b34a:	f8d0 02c4 	ldr.w	r0, [r0, #708]	; 0x2c4
 800b34e:	f7fb fc36 	bl	8006bbe <HAL_PCD_Start>
 800b352:	2803      	cmp	r0, #3
 800b354:	bf96      	itet	ls
 800b356:	4b02      	ldrls	r3, [pc, #8]	; (800b360 <USBD_LL_Start+0x18>)
 800b358:	2003      	movhi	r0, #3
 800b35a:	5c18      	ldrbls	r0, [r3, r0]
 800b35c:	bd08      	pop	{r3, pc}
 800b35e:	bf00      	nop
 800b360:	0800fe2a 	.word	0x0800fe2a

0800b364 <USBD_LL_Stop>:
 800b364:	b508      	push	{r3, lr}
 800b366:	f8d0 02c4 	ldr.w	r0, [r0, #708]	; 0x2c4
 800b36a:	f7fb fc3d 	bl	8006be8 <HAL_PCD_Stop>
 800b36e:	2803      	cmp	r0, #3
 800b370:	bf96      	itet	ls
 800b372:	4b02      	ldrls	r3, [pc, #8]	; (800b37c <USBD_LL_Stop+0x18>)
 800b374:	2003      	movhi	r0, #3
 800b376:	5c18      	ldrbls	r0, [r3, r0]
 800b378:	bd08      	pop	{r3, pc}
 800b37a:	bf00      	nop
 800b37c:	0800fe2a 	.word	0x0800fe2a

0800b380 <USBD_LL_OpenEP>:
 800b380:	b510      	push	{r4, lr}
 800b382:	4614      	mov	r4, r2
 800b384:	f8d0 02c4 	ldr.w	r0, [r0, #708]	; 0x2c4
 800b388:	461a      	mov	r2, r3
 800b38a:	4623      	mov	r3, r4
 800b38c:	f7fc f934 	bl	80075f8 <HAL_PCD_EP_Open>
 800b390:	2803      	cmp	r0, #3
 800b392:	bf96      	itet	ls
 800b394:	4b01      	ldrls	r3, [pc, #4]	; (800b39c <USBD_LL_OpenEP+0x1c>)
 800b396:	2003      	movhi	r0, #3
 800b398:	5c18      	ldrbls	r0, [r3, r0]
 800b39a:	bd10      	pop	{r4, pc}
 800b39c:	0800fe2a 	.word	0x0800fe2a

0800b3a0 <USBD_LL_StallEP>:
 800b3a0:	b508      	push	{r3, lr}
 800b3a2:	f8d0 02c4 	ldr.w	r0, [r0, #708]	; 0x2c4
 800b3a6:	f7fc f98d 	bl	80076c4 <HAL_PCD_EP_SetStall>
 800b3aa:	2803      	cmp	r0, #3
 800b3ac:	bf96      	itet	ls
 800b3ae:	4b02      	ldrls	r3, [pc, #8]	; (800b3b8 <USBD_LL_StallEP+0x18>)
 800b3b0:	2003      	movhi	r0, #3
 800b3b2:	5c18      	ldrbls	r0, [r3, r0]
 800b3b4:	bd08      	pop	{r3, pc}
 800b3b6:	bf00      	nop
 800b3b8:	0800fe2a 	.word	0x0800fe2a

0800b3bc <USBD_LL_ClearStallEP>:
 800b3bc:	b508      	push	{r3, lr}
 800b3be:	f8d0 02c4 	ldr.w	r0, [r0, #708]	; 0x2c4
 800b3c2:	f7fc f9b5 	bl	8007730 <HAL_PCD_EP_ClrStall>
 800b3c6:	2803      	cmp	r0, #3
 800b3c8:	bf96      	itet	ls
 800b3ca:	4b02      	ldrls	r3, [pc, #8]	; (800b3d4 <USBD_LL_ClearStallEP+0x18>)
 800b3cc:	2003      	movhi	r0, #3
 800b3ce:	5c18      	ldrbls	r0, [r3, r0]
 800b3d0:	bd08      	pop	{r3, pc}
 800b3d2:	bf00      	nop
 800b3d4:	0800fe2a 	.word	0x0800fe2a

0800b3d8 <USBD_LL_IsStallEP>:
 800b3d8:	f011 0f80 	tst.w	r1, #128	; 0x80
 800b3dc:	f8d0 22c4 	ldr.w	r2, [r0, #708]	; 0x2c4
 800b3e0:	bf18      	it	ne
 800b3e2:	f001 017f 	andne.w	r1, r1, #127	; 0x7f
 800b3e6:	f04f 0328 	mov.w	r3, #40	; 0x28
 800b3ea:	bf1b      	ittet	ne
 800b3ec:	fb01 3103 	mlane	r1, r1, r3, r3
 800b3f0:	1889      	addne	r1, r1, r2
 800b3f2:	fb03 2101 	mlaeq	r1, r3, r1, r2
 800b3f6:	7888      	ldrbne	r0, [r1, #2]
 800b3f8:	bf08      	it	eq
 800b3fa:	f891 016a 	ldrbeq.w	r0, [r1, #362]	; 0x16a
 800b3fe:	4770      	bx	lr

0800b400 <USBD_LL_SetUSBAddress>:
 800b400:	b508      	push	{r3, lr}
 800b402:	f8d0 02c4 	ldr.w	r0, [r0, #708]	; 0x2c4
 800b406:	f7fb fc04 	bl	8006c12 <HAL_PCD_SetAddress>
 800b40a:	2803      	cmp	r0, #3
 800b40c:	bf96      	itet	ls
 800b40e:	4b02      	ldrls	r3, [pc, #8]	; (800b418 <USBD_LL_SetUSBAddress+0x18>)
 800b410:	2003      	movhi	r0, #3
 800b412:	5c18      	ldrbls	r0, [r3, r0]
 800b414:	bd08      	pop	{r3, pc}
 800b416:	bf00      	nop
 800b418:	0800fe2a 	.word	0x0800fe2a

0800b41c <USBD_LL_Transmit>:
 800b41c:	b508      	push	{r3, lr}
 800b41e:	f8d0 02c4 	ldr.w	r0, [r0, #708]	; 0x2c4
 800b422:	f7fc f931 	bl	8007688 <HAL_PCD_EP_Transmit>
 800b426:	2803      	cmp	r0, #3
 800b428:	bf96      	itet	ls
 800b42a:	4b02      	ldrls	r3, [pc, #8]	; (800b434 <USBD_LL_Transmit+0x18>)
 800b42c:	2003      	movhi	r0, #3
 800b42e:	5c18      	ldrbls	r0, [r3, r0]
 800b430:	bd08      	pop	{r3, pc}
 800b432:	bf00      	nop
 800b434:	0800fe2a 	.word	0x0800fe2a

0800b438 <USBD_LL_PrepareReceive>:
 800b438:	b508      	push	{r3, lr}
 800b43a:	f8d0 02c4 	ldr.w	r0, [r0, #708]	; 0x2c4
 800b43e:	f7fc f90d 	bl	800765c <HAL_PCD_EP_Receive>
 800b442:	2803      	cmp	r0, #3
 800b444:	bf96      	itet	ls
 800b446:	4b02      	ldrls	r3, [pc, #8]	; (800b450 <USBD_LL_PrepareReceive+0x18>)
 800b448:	2003      	movhi	r0, #3
 800b44a:	5c18      	ldrbls	r0, [r3, r0]
 800b44c:	bd08      	pop	{r3, pc}
 800b44e:	bf00      	nop
 800b450:	0800fe2a 	.word	0x0800fe2a

0800b454 <HAL_PCDEx_LPM_Callback>:
 800b454:	b510      	push	{r4, lr}
 800b456:	4604      	mov	r4, r0
 800b458:	b111      	cbz	r1, 800b460 <HAL_PCDEx_LPM_Callback+0xc>
 800b45a:	2901      	cmp	r1, #1
 800b45c:	d00f      	beq.n	800b47e <HAL_PCDEx_LPM_Callback+0x2a>
 800b45e:	bd10      	pop	{r4, pc}
 800b460:	6983      	ldr	r3, [r0, #24]
 800b462:	b133      	cbz	r3, 800b472 <HAL_PCDEx_LPM_Callback+0x1e>
 800b464:	f7f9 fd24 	bl	8004eb0 <SystemClock_Config>
 800b468:	4a0b      	ldr	r2, [pc, #44]	; (800b498 <HAL_PCDEx_LPM_Callback+0x44>)
 800b46a:	6913      	ldr	r3, [r2, #16]
 800b46c:	f023 0306 	bic.w	r3, r3, #6
 800b470:	6113      	str	r3, [r2, #16]
 800b472:	f8d4 02f0 	ldr.w	r0, [r4, #752]	; 0x2f0
 800b476:	e8bd 4010 	ldmia.w	sp!, {r4, lr}
 800b47a:	f7ff bb64 	b.w	800ab46 <USBD_LL_Resume>
 800b47e:	f8d0 02f0 	ldr.w	r0, [r0, #752]	; 0x2f0
 800b482:	f7ff fb56 	bl	800ab32 <USBD_LL_Suspend>
 800b486:	69a3      	ldr	r3, [r4, #24]
 800b488:	2b00      	cmp	r3, #0
 800b48a:	d0e8      	beq.n	800b45e <HAL_PCDEx_LPM_Callback+0xa>
 800b48c:	4a02      	ldr	r2, [pc, #8]	; (800b498 <HAL_PCDEx_LPM_Callback+0x44>)
 800b48e:	6913      	ldr	r3, [r2, #16]
 800b490:	f043 0306 	orr.w	r3, r3, #6
 800b494:	6113      	str	r3, [r2, #16]
 800b496:	e7e2      	b.n	800b45e <HAL_PCDEx_LPM_Callback+0xa>
 800b498:	e000ed00 	.word	0xe000ed00

0800b49c <USBD_static_malloc>:
 800b49c:	4800      	ldr	r0, [pc, #0]	; (800b4a0 <USBD_static_malloc+0x4>)
 800b49e:	4770      	bx	lr
 800b4a0:	20000afc 	.word	0x20000afc

0800b4a4 <USBD_static_free>:
 800b4a4:	4770      	bx	lr
	...

0800b4a8 <__errno>:
 800b4a8:	4b01      	ldr	r3, [pc, #4]	; (800b4b0 <__errno+0x8>)
 800b4aa:	6818      	ldr	r0, [r3, #0]
 800b4ac:	4770      	bx	lr
 800b4ae:	bf00      	nop
 800b4b0:	20000738 	.word	0x20000738

0800b4b4 <__libc_init_array>:
 800b4b4:	b570      	push	{r4, r5, r6, lr}
 800b4b6:	4d0d      	ldr	r5, [pc, #52]	; (800b4ec <__libc_init_array+0x38>)
 800b4b8:	4c0d      	ldr	r4, [pc, #52]	; (800b4f0 <__libc_init_array+0x3c>)
 800b4ba:	1b64      	subs	r4, r4, r5
 800b4bc:	10a4      	asrs	r4, r4, #2
 800b4be:	2600      	movs	r6, #0
 800b4c0:	42a6      	cmp	r6, r4
 800b4c2:	d109      	bne.n	800b4d8 <__libc_init_array+0x24>
 800b4c4:	4d0b      	ldr	r5, [pc, #44]	; (800b4f4 <__libc_init_array+0x40>)
 800b4c6:	4c0c      	ldr	r4, [pc, #48]	; (800b4f8 <__libc_init_array+0x44>)
 800b4c8:	f003 f84c 	bl	800e564 <_init>
 800b4cc:	1b64      	subs	r4, r4, r5
 800b4ce:	10a4      	asrs	r4, r4, #2
 800b4d0:	2600      	movs	r6, #0
 800b4d2:	42a6      	cmp	r6, r4
 800b4d4:	d105      	bne.n	800b4e2 <__libc_init_array+0x2e>
 800b4d6:	bd70      	pop	{r4, r5, r6, pc}
 800b4d8:	f855 3b04 	ldr.w	r3, [r5], #4
 800b4dc:	4798      	blx	r3
 800b4de:	3601      	adds	r6, #1
 800b4e0:	e7ee      	b.n	800b4c0 <__libc_init_array+0xc>
 800b4e2:	f855 3b04 	ldr.w	r3, [r5], #4
 800b4e6:	4798      	blx	r3
 800b4e8:	3601      	adds	r6, #1
 800b4ea:	e7f2      	b.n	800b4d2 <__libc_init_array+0x1e>
 800b4ec:	08010278 	.word	0x08010278
 800b4f0:	08010278 	.word	0x08010278
 800b4f4:	08010278 	.word	0x08010278
 800b4f8:	0801027c 	.word	0x0801027c

0800b4fc <memcpy>:
 800b4fc:	440a      	add	r2, r1
 800b4fe:	4291      	cmp	r1, r2
 800b500:	f100 33ff 	add.w	r3, r0, #4294967295
 800b504:	d100      	bne.n	800b508 <memcpy+0xc>
 800b506:	4770      	bx	lr
 800b508:	b510      	push	{r4, lr}
 800b50a:	f811 4b01 	ldrb.w	r4, [r1], #1
 800b50e:	f803 4f01 	strb.w	r4, [r3, #1]!
 800b512:	4291      	cmp	r1, r2
 800b514:	d1f9      	bne.n	800b50a <memcpy+0xe>
 800b516:	bd10      	pop	{r4, pc}

0800b518 <memset>:
 800b518:	4402      	add	r2, r0
 800b51a:	4603      	mov	r3, r0
 800b51c:	4293      	cmp	r3, r2
 800b51e:	d100      	bne.n	800b522 <memset+0xa>
 800b520:	4770      	bx	lr
 800b522:	f803 1b01 	strb.w	r1, [r3], #1
 800b526:	e7f9      	b.n	800b51c <memset+0x4>

0800b528 <__cvt>:
 800b528:	e92d 47ff 	stmdb	sp!, {r0, r1, r2, r3, r4, r5, r6, r7, r8, r9, sl, lr}
 800b52c:	ec55 4b10 	vmov	r4, r5, d0
 800b530:	2d00      	cmp	r5, #0
 800b532:	460e      	mov	r6, r1
 800b534:	4619      	mov	r1, r3
 800b536:	462b      	mov	r3, r5
 800b538:	bfbb      	ittet	lt
 800b53a:	f105 4300 	addlt.w	r3, r5, #2147483648	; 0x80000000
 800b53e:	461d      	movlt	r5, r3
 800b540:	2300      	movge	r3, #0
 800b542:	232d      	movlt	r3, #45	; 0x2d
 800b544:	700b      	strb	r3, [r1, #0]
 800b546:	9b0d      	ldr	r3, [sp, #52]	; 0x34
 800b548:	f8dd a030 	ldr.w	sl, [sp, #48]	; 0x30
 800b54c:	4691      	mov	r9, r2
 800b54e:	f023 0820 	bic.w	r8, r3, #32
 800b552:	bfbc      	itt	lt
 800b554:	4622      	movlt	r2, r4
 800b556:	4614      	movlt	r4, r2
 800b558:	f1b8 0f46 	cmp.w	r8, #70	; 0x46
 800b55c:	d005      	beq.n	800b56a <__cvt+0x42>
 800b55e:	f1b8 0f45 	cmp.w	r8, #69	; 0x45
 800b562:	d100      	bne.n	800b566 <__cvt+0x3e>
 800b564:	3601      	adds	r6, #1
 800b566:	2102      	movs	r1, #2
 800b568:	e000      	b.n	800b56c <__cvt+0x44>
 800b56a:	2103      	movs	r1, #3
 800b56c:	ab03      	add	r3, sp, #12
 800b56e:	9301      	str	r3, [sp, #4]
 800b570:	ab02      	add	r3, sp, #8
 800b572:	9300      	str	r3, [sp, #0]
 800b574:	ec45 4b10 	vmov	d0, r4, r5
 800b578:	4653      	mov	r3, sl
 800b57a:	4632      	mov	r2, r6
 800b57c:	f000 fd90 	bl	800c0a0 <_dtoa_r>
 800b580:	f1b8 0f47 	cmp.w	r8, #71	; 0x47
 800b584:	4607      	mov	r7, r0
 800b586:	d102      	bne.n	800b58e <__cvt+0x66>
 800b588:	f019 0f01 	tst.w	r9, #1
 800b58c:	d022      	beq.n	800b5d4 <__cvt+0xac>
 800b58e:	f1b8 0f46 	cmp.w	r8, #70	; 0x46
 800b592:	eb07 0906 	add.w	r9, r7, r6
 800b596:	d110      	bne.n	800b5ba <__cvt+0x92>
 800b598:	783b      	ldrb	r3, [r7, #0]
 800b59a:	2b30      	cmp	r3, #48	; 0x30
 800b59c:	d10a      	bne.n	800b5b4 <__cvt+0x8c>
 800b59e:	2200      	movs	r2, #0
 800b5a0:	2300      	movs	r3, #0
 800b5a2:	4620      	mov	r0, r4
 800b5a4:	4629      	mov	r1, r5
 800b5a6:	f7f5 fa8f 	bl	8000ac8 <__aeabi_dcmpeq>
 800b5aa:	b918      	cbnz	r0, 800b5b4 <__cvt+0x8c>
 800b5ac:	f1c6 0601 	rsb	r6, r6, #1
 800b5b0:	f8ca 6000 	str.w	r6, [sl]
 800b5b4:	f8da 3000 	ldr.w	r3, [sl]
 800b5b8:	4499      	add	r9, r3
 800b5ba:	2200      	movs	r2, #0
 800b5bc:	2300      	movs	r3, #0
 800b5be:	4620      	mov	r0, r4
 800b5c0:	4629      	mov	r1, r5
 800b5c2:	f7f5 fa81 	bl	8000ac8 <__aeabi_dcmpeq>
 800b5c6:	b108      	cbz	r0, 800b5cc <__cvt+0xa4>
 800b5c8:	f8cd 900c 	str.w	r9, [sp, #12]
 800b5cc:	2230      	movs	r2, #48	; 0x30
 800b5ce:	9b03      	ldr	r3, [sp, #12]
 800b5d0:	454b      	cmp	r3, r9
 800b5d2:	d307      	bcc.n	800b5e4 <__cvt+0xbc>
 800b5d4:	9b03      	ldr	r3, [sp, #12]
 800b5d6:	9a0e      	ldr	r2, [sp, #56]	; 0x38
 800b5d8:	1bdb      	subs	r3, r3, r7
 800b5da:	4638      	mov	r0, r7
 800b5dc:	6013      	str	r3, [r2, #0]
 800b5de:	b004      	add	sp, #16
 800b5e0:	e8bd 87f0 	ldmia.w	sp!, {r4, r5, r6, r7, r8, r9, sl, pc}
 800b5e4:	1c59      	adds	r1, r3, #1
 800b5e6:	9103      	str	r1, [sp, #12]
 800b5e8:	701a      	strb	r2, [r3, #0]
 800b5ea:	e7f0      	b.n	800b5ce <__cvt+0xa6>

0800b5ec <__exponent>:
 800b5ec:	b5f7      	push	{r0, r1, r2, r4, r5, r6, r7, lr}
 800b5ee:	4603      	mov	r3, r0
 800b5f0:	2900      	cmp	r1, #0
 800b5f2:	bfb8      	it	lt
 800b5f4:	4249      	neglt	r1, r1
 800b5f6:	f803 2b02 	strb.w	r2, [r3], #2
 800b5fa:	bfb4      	ite	lt
 800b5fc:	222d      	movlt	r2, #45	; 0x2d
 800b5fe:	222b      	movge	r2, #43	; 0x2b
 800b600:	2909      	cmp	r1, #9
 800b602:	7042      	strb	r2, [r0, #1]
 800b604:	dd2a      	ble.n	800b65c <__exponent+0x70>
 800b606:	f10d 0407 	add.w	r4, sp, #7
 800b60a:	46a4      	mov	ip, r4
 800b60c:	270a      	movs	r7, #10
 800b60e:	46a6      	mov	lr, r4
 800b610:	460a      	mov	r2, r1
 800b612:	fb91 f6f7 	sdiv	r6, r1, r7
 800b616:	fb07 1516 	mls	r5, r7, r6, r1
 800b61a:	3530      	adds	r5, #48	; 0x30
 800b61c:	2a63      	cmp	r2, #99	; 0x63
 800b61e:	f104 34ff 	add.w	r4, r4, #4294967295
 800b622:	f80e 5c01 	strb.w	r5, [lr, #-1]
 800b626:	4631      	mov	r1, r6
 800b628:	dcf1      	bgt.n	800b60e <__exponent+0x22>
 800b62a:	3130      	adds	r1, #48	; 0x30
 800b62c:	f1ae 0502 	sub.w	r5, lr, #2
 800b630:	f804 1c01 	strb.w	r1, [r4, #-1]
 800b634:	1c44      	adds	r4, r0, #1
 800b636:	4629      	mov	r1, r5
 800b638:	4561      	cmp	r1, ip
 800b63a:	d30a      	bcc.n	800b652 <__exponent+0x66>
 800b63c:	f10d 0209 	add.w	r2, sp, #9
 800b640:	eba2 020e 	sub.w	r2, r2, lr
 800b644:	4565      	cmp	r5, ip
 800b646:	bf88      	it	hi
 800b648:	2200      	movhi	r2, #0
 800b64a:	4413      	add	r3, r2
 800b64c:	1a18      	subs	r0, r3, r0
 800b64e:	b003      	add	sp, #12
 800b650:	bdf0      	pop	{r4, r5, r6, r7, pc}
 800b652:	f811 2b01 	ldrb.w	r2, [r1], #1
 800b656:	f804 2f01 	strb.w	r2, [r4, #1]!
 800b65a:	e7ed      	b.n	800b638 <__exponent+0x4c>
 800b65c:	2330      	movs	r3, #48	; 0x30
 800b65e:	3130      	adds	r1, #48	; 0x30
 800b660:	7083      	strb	r3, [r0, #2]
 800b662:	70c1      	strb	r1, [r0, #3]
 800b664:	1d03      	adds	r3, r0, #4
 800b666:	e7f1      	b.n	800b64c <__exponent+0x60>

0800b668 <_printf_float>:
 800b668:	e92d 4ff0 	stmdb	sp!, {r4, r5, r6, r7, r8, r9, sl, fp, lr}
 800b66c:	ed2d 8b02 	vpush	{d8}
 800b670:	b08d      	sub	sp, #52	; 0x34
 800b672:	460c      	mov	r4, r1
 800b674:	f8dd 8060 	ldr.w	r8, [sp, #96]	; 0x60
 800b678:	4616      	mov	r6, r2
 800b67a:	461f      	mov	r7, r3
 800b67c:	4605      	mov	r5, r0
 800b67e:	f001 fc03 	bl	800ce88 <_localeconv_r>
 800b682:	f8d0 a000 	ldr.w	sl, [r0]
 800b686:	4650      	mov	r0, sl
 800b688:	f7f4 fda2 	bl	80001d0 <strlen>
 800b68c:	2300      	movs	r3, #0
 800b68e:	930a      	str	r3, [sp, #40]	; 0x28
 800b690:	6823      	ldr	r3, [r4, #0]
 800b692:	9305      	str	r3, [sp, #20]
 800b694:	f8d8 3000 	ldr.w	r3, [r8]
 800b698:	f894 b018 	ldrb.w	fp, [r4, #24]
 800b69c:	3307      	adds	r3, #7
 800b69e:	f023 0307 	bic.w	r3, r3, #7
 800b6a2:	f103 0208 	add.w	r2, r3, #8
 800b6a6:	f8c8 2000 	str.w	r2, [r8]
 800b6aa:	e9d3 2300 	ldrd	r2, r3, [r3]
 800b6ae:	e9c4 2312 	strd	r2, r3, [r4, #72]	; 0x48
 800b6b2:	e9d4 8912 	ldrd	r8, r9, [r4, #72]	; 0x48
 800b6b6:	f029 4300 	bic.w	r3, r9, #2147483648	; 0x80000000
 800b6ba:	9307      	str	r3, [sp, #28]
 800b6bc:	f8cd 8018 	str.w	r8, [sp, #24]
 800b6c0:	ee08 0a10 	vmov	s16, r0
 800b6c4:	4b9f      	ldr	r3, [pc, #636]	; (800b944 <_printf_float+0x2dc>)
 800b6c6:	e9dd 0106 	ldrd	r0, r1, [sp, #24]
 800b6ca:	f04f 32ff 	mov.w	r2, #4294967295
 800b6ce:	f7f5 fa2d 	bl	8000b2c <__aeabi_dcmpun>
 800b6d2:	bb88      	cbnz	r0, 800b738 <_printf_float+0xd0>
 800b6d4:	e9dd 0106 	ldrd	r0, r1, [sp, #24]
 800b6d8:	4b9a      	ldr	r3, [pc, #616]	; (800b944 <_printf_float+0x2dc>)
 800b6da:	f04f 32ff 	mov.w	r2, #4294967295
 800b6de:	f7f5 fa07 	bl	8000af0 <__aeabi_dcmple>
 800b6e2:	bb48      	cbnz	r0, 800b738 <_printf_float+0xd0>
 800b6e4:	2200      	movs	r2, #0
 800b6e6:	2300      	movs	r3, #0
 800b6e8:	4640      	mov	r0, r8
 800b6ea:	4649      	mov	r1, r9
 800b6ec:	f7f5 f9f6 	bl	8000adc <__aeabi_dcmplt>
 800b6f0:	b110      	cbz	r0, 800b6f8 <_printf_float+0x90>
 800b6f2:	232d      	movs	r3, #45	; 0x2d
 800b6f4:	f884 3043 	strb.w	r3, [r4, #67]	; 0x43
 800b6f8:	4b93      	ldr	r3, [pc, #588]	; (800b948 <_printf_float+0x2e0>)
 800b6fa:	4894      	ldr	r0, [pc, #592]	; (800b94c <_printf_float+0x2e4>)
 800b6fc:	f1bb 0f47 	cmp.w	fp, #71	; 0x47
 800b700:	bf94      	ite	ls
 800b702:	4698      	movls	r8, r3
 800b704:	4680      	movhi	r8, r0
 800b706:	2303      	movs	r3, #3
 800b708:	6123      	str	r3, [r4, #16]
 800b70a:	9b05      	ldr	r3, [sp, #20]
 800b70c:	f023 0204 	bic.w	r2, r3, #4
 800b710:	6022      	str	r2, [r4, #0]
 800b712:	f04f 0900 	mov.w	r9, #0
 800b716:	9700      	str	r7, [sp, #0]
 800b718:	4633      	mov	r3, r6
 800b71a:	aa0b      	add	r2, sp, #44	; 0x2c
 800b71c:	4621      	mov	r1, r4
 800b71e:	4628      	mov	r0, r5
 800b720:	f000 f9d8 	bl	800bad4 <_printf_common>
 800b724:	3001      	adds	r0, #1
 800b726:	f040 8090 	bne.w	800b84a <_printf_float+0x1e2>
 800b72a:	f04f 30ff 	mov.w	r0, #4294967295
 800b72e:	b00d      	add	sp, #52	; 0x34
 800b730:	ecbd 8b02 	vpop	{d8}
 800b734:	e8bd 8ff0 	ldmia.w	sp!, {r4, r5, r6, r7, r8, r9, sl, fp, pc}
 800b738:	4642      	mov	r2, r8
 800b73a:	464b      	mov	r3, r9
 800b73c:	4640      	mov	r0, r8
 800b73e:	4649      	mov	r1, r9
 800b740:	f7f5 f9f4 	bl	8000b2c <__aeabi_dcmpun>
 800b744:	b140      	cbz	r0, 800b758 <_printf_float+0xf0>
 800b746:	464b      	mov	r3, r9
 800b748:	2b00      	cmp	r3, #0
 800b74a:	bfbc      	itt	lt
 800b74c:	232d      	movlt	r3, #45	; 0x2d
 800b74e:	f884 3043 	strblt.w	r3, [r4, #67]	; 0x43
 800b752:	487f      	ldr	r0, [pc, #508]	; (800b950 <_printf_float+0x2e8>)
 800b754:	4b7f      	ldr	r3, [pc, #508]	; (800b954 <_printf_float+0x2ec>)
 800b756:	e7d1      	b.n	800b6fc <_printf_float+0x94>
 800b758:	6863      	ldr	r3, [r4, #4]
 800b75a:	f00b 02df 	and.w	r2, fp, #223	; 0xdf
 800b75e:	9206      	str	r2, [sp, #24]
 800b760:	1c5a      	adds	r2, r3, #1
 800b762:	d13f      	bne.n	800b7e4 <_printf_float+0x17c>
 800b764:	2306      	movs	r3, #6
 800b766:	6063      	str	r3, [r4, #4]
 800b768:	9b05      	ldr	r3, [sp, #20]
 800b76a:	6861      	ldr	r1, [r4, #4]
 800b76c:	f443 6280 	orr.w	r2, r3, #1024	; 0x400
 800b770:	2300      	movs	r3, #0
 800b772:	9303      	str	r3, [sp, #12]
 800b774:	ab0a      	add	r3, sp, #40	; 0x28
 800b776:	e9cd b301 	strd	fp, r3, [sp, #4]
 800b77a:	ab09      	add	r3, sp, #36	; 0x24
 800b77c:	ec49 8b10 	vmov	d0, r8, r9
 800b780:	9300      	str	r3, [sp, #0]
 800b782:	6022      	str	r2, [r4, #0]
 800b784:	f10d 0323 	add.w	r3, sp, #35	; 0x23
 800b788:	4628      	mov	r0, r5
 800b78a:	f7ff fecd 	bl	800b528 <__cvt>
 800b78e:	9b06      	ldr	r3, [sp, #24]
 800b790:	9909      	ldr	r1, [sp, #36]	; 0x24
 800b792:	2b47      	cmp	r3, #71	; 0x47
 800b794:	4680      	mov	r8, r0
 800b796:	d108      	bne.n	800b7aa <_printf_float+0x142>
 800b798:	1cc8      	adds	r0, r1, #3
 800b79a:	db02      	blt.n	800b7a2 <_printf_float+0x13a>
 800b79c:	6863      	ldr	r3, [r4, #4]
 800b79e:	4299      	cmp	r1, r3
 800b7a0:	dd41      	ble.n	800b826 <_printf_float+0x1be>
 800b7a2:	f1ab 0b02 	sub.w	fp, fp, #2
 800b7a6:	fa5f fb8b 	uxtb.w	fp, fp
 800b7aa:	f1bb 0f65 	cmp.w	fp, #101	; 0x65
 800b7ae:	d820      	bhi.n	800b7f2 <_printf_float+0x18a>
 800b7b0:	3901      	subs	r1, #1
 800b7b2:	465a      	mov	r2, fp
 800b7b4:	f104 0050 	add.w	r0, r4, #80	; 0x50
 800b7b8:	9109      	str	r1, [sp, #36]	; 0x24
 800b7ba:	f7ff ff17 	bl	800b5ec <__exponent>
 800b7be:	9a0a      	ldr	r2, [sp, #40]	; 0x28
 800b7c0:	1813      	adds	r3, r2, r0
 800b7c2:	2a01      	cmp	r2, #1
 800b7c4:	4681      	mov	r9, r0
 800b7c6:	6123      	str	r3, [r4, #16]
 800b7c8:	dc02      	bgt.n	800b7d0 <_printf_float+0x168>
 800b7ca:	6822      	ldr	r2, [r4, #0]
 800b7cc:	07d2      	lsls	r2, r2, #31
 800b7ce:	d501      	bpl.n	800b7d4 <_printf_float+0x16c>
 800b7d0:	3301      	adds	r3, #1
 800b7d2:	6123      	str	r3, [r4, #16]
 800b7d4:	f89d 3023 	ldrb.w	r3, [sp, #35]	; 0x23
 800b7d8:	2b00      	cmp	r3, #0
 800b7da:	d09c      	beq.n	800b716 <_printf_float+0xae>
 800b7dc:	232d      	movs	r3, #45	; 0x2d
 800b7de:	f884 3043 	strb.w	r3, [r4, #67]	; 0x43
 800b7e2:	e798      	b.n	800b716 <_printf_float+0xae>
 800b7e4:	9a06      	ldr	r2, [sp, #24]
 800b7e6:	2a47      	cmp	r2, #71	; 0x47
 800b7e8:	d1be      	bne.n	800b768 <_printf_float+0x100>
 800b7ea:	2b00      	cmp	r3, #0
 800b7ec:	d1bc      	bne.n	800b768 <_printf_float+0x100>
 800b7ee:	2301      	movs	r3, #1
 800b7f0:	e7b9      	b.n	800b766 <_printf_float+0xfe>
 800b7f2:	f1bb 0f66 	cmp.w	fp, #102	; 0x66
 800b7f6:	d118      	bne.n	800b82a <_printf_float+0x1c2>
 800b7f8:	2900      	cmp	r1, #0
 800b7fa:	6863      	ldr	r3, [r4, #4]
 800b7fc:	dd0b      	ble.n	800b816 <_printf_float+0x1ae>
 800b7fe:	6121      	str	r1, [r4, #16]
 800b800:	b913      	cbnz	r3, 800b808 <_printf_float+0x1a0>
 800b802:	6822      	ldr	r2, [r4, #0]
 800b804:	07d0      	lsls	r0, r2, #31
 800b806:	d502      	bpl.n	800b80e <_printf_float+0x1a6>
 800b808:	3301      	adds	r3, #1
 800b80a:	440b      	add	r3, r1
 800b80c:	6123      	str	r3, [r4, #16]
 800b80e:	65a1      	str	r1, [r4, #88]	; 0x58
 800b810:	f04f 0900 	mov.w	r9, #0
 800b814:	e7de      	b.n	800b7d4 <_printf_float+0x16c>
 800b816:	b913      	cbnz	r3, 800b81e <_printf_float+0x1b6>
 800b818:	6822      	ldr	r2, [r4, #0]
 800b81a:	07d2      	lsls	r2, r2, #31
 800b81c:	d501      	bpl.n	800b822 <_printf_float+0x1ba>
 800b81e:	3302      	adds	r3, #2
 800b820:	e7f4      	b.n	800b80c <_printf_float+0x1a4>
 800b822:	2301      	movs	r3, #1
 800b824:	e7f2      	b.n	800b80c <_printf_float+0x1a4>
 800b826:	f04f 0b67 	mov.w	fp, #103	; 0x67
 800b82a:	9b0a      	ldr	r3, [sp, #40]	; 0x28
 800b82c:	4299      	cmp	r1, r3
 800b82e:	db05      	blt.n	800b83c <_printf_float+0x1d4>
 800b830:	6823      	ldr	r3, [r4, #0]
 800b832:	6121      	str	r1, [r4, #16]
 800b834:	07d8      	lsls	r0, r3, #31
 800b836:	d5ea      	bpl.n	800b80e <_printf_float+0x1a6>
 800b838:	1c4b      	adds	r3, r1, #1
 800b83a:	e7e7      	b.n	800b80c <_printf_float+0x1a4>
 800b83c:	2900      	cmp	r1, #0
 800b83e:	bfd4      	ite	le
 800b840:	f1c1 0202 	rsble	r2, r1, #2
 800b844:	2201      	movgt	r2, #1
 800b846:	4413      	add	r3, r2
 800b848:	e7e0      	b.n	800b80c <_printf_float+0x1a4>
 800b84a:	6823      	ldr	r3, [r4, #0]
 800b84c:	055a      	lsls	r2, r3, #21
 800b84e:	d407      	bmi.n	800b860 <_printf_float+0x1f8>
 800b850:	6923      	ldr	r3, [r4, #16]
 800b852:	4642      	mov	r2, r8
 800b854:	4631      	mov	r1, r6
 800b856:	4628      	mov	r0, r5
 800b858:	47b8      	blx	r7
 800b85a:	3001      	adds	r0, #1
 800b85c:	d12c      	bne.n	800b8b8 <_printf_float+0x250>
 800b85e:	e764      	b.n	800b72a <_printf_float+0xc2>
 800b860:	f1bb 0f65 	cmp.w	fp, #101	; 0x65
 800b864:	f240 80e0 	bls.w	800ba28 <_printf_float+0x3c0>
 800b868:	e9d4 0112 	ldrd	r0, r1, [r4, #72]	; 0x48
 800b86c:	2200      	movs	r2, #0
 800b86e:	2300      	movs	r3, #0
 800b870:	f7f5 f92a 	bl	8000ac8 <__aeabi_dcmpeq>
 800b874:	2800      	cmp	r0, #0
 800b876:	d034      	beq.n	800b8e2 <_printf_float+0x27a>
 800b878:	4a37      	ldr	r2, [pc, #220]	; (800b958 <_printf_float+0x2f0>)
 800b87a:	2301      	movs	r3, #1
 800b87c:	4631      	mov	r1, r6
 800b87e:	4628      	mov	r0, r5
 800b880:	47b8      	blx	r7
 800b882:	3001      	adds	r0, #1
 800b884:	f43f af51 	beq.w	800b72a <_printf_float+0xc2>
 800b888:	e9dd 2309 	ldrd	r2, r3, [sp, #36]	; 0x24
 800b88c:	429a      	cmp	r2, r3
 800b88e:	db02      	blt.n	800b896 <_printf_float+0x22e>
 800b890:	6823      	ldr	r3, [r4, #0]
 800b892:	07d8      	lsls	r0, r3, #31
 800b894:	d510      	bpl.n	800b8b8 <_printf_float+0x250>
 800b896:	ee18 3a10 	vmov	r3, s16
 800b89a:	4652      	mov	r2, sl
 800b89c:	4631      	mov	r1, r6
 800b89e:	4628      	mov	r0, r5
 800b8a0:	47b8      	blx	r7
 800b8a2:	3001      	adds	r0, #1
 800b8a4:	f43f af41 	beq.w	800b72a <_printf_float+0xc2>
 800b8a8:	f04f 0800 	mov.w	r8, #0
 800b8ac:	f104 091a 	add.w	r9, r4, #26
 800b8b0:	9b0a      	ldr	r3, [sp, #40]	; 0x28
 800b8b2:	3b01      	subs	r3, #1
 800b8b4:	4543      	cmp	r3, r8
 800b8b6:	dc09      	bgt.n	800b8cc <_printf_float+0x264>
 800b8b8:	6823      	ldr	r3, [r4, #0]
 800b8ba:	079b      	lsls	r3, r3, #30
 800b8bc:	f100 8105 	bmi.w	800baca <_printf_float+0x462>
 800b8c0:	68e0      	ldr	r0, [r4, #12]
 800b8c2:	9b0b      	ldr	r3, [sp, #44]	; 0x2c
 800b8c4:	4298      	cmp	r0, r3
 800b8c6:	bfb8      	it	lt
 800b8c8:	4618      	movlt	r0, r3
 800b8ca:	e730      	b.n	800b72e <_printf_float+0xc6>
 800b8cc:	2301      	movs	r3, #1
 800b8ce:	464a      	mov	r2, r9
 800b8d0:	4631      	mov	r1, r6
 800b8d2:	4628      	mov	r0, r5
 800b8d4:	47b8      	blx	r7
 800b8d6:	3001      	adds	r0, #1
 800b8d8:	f43f af27 	beq.w	800b72a <_printf_float+0xc2>
 800b8dc:	f108 0801 	add.w	r8, r8, #1
 800b8e0:	e7e6      	b.n	800b8b0 <_printf_float+0x248>
 800b8e2:	9b09      	ldr	r3, [sp, #36]	; 0x24
 800b8e4:	2b00      	cmp	r3, #0
 800b8e6:	dc39      	bgt.n	800b95c <_printf_float+0x2f4>
 800b8e8:	4a1b      	ldr	r2, [pc, #108]	; (800b958 <_printf_float+0x2f0>)
 800b8ea:	2301      	movs	r3, #1
 800b8ec:	4631      	mov	r1, r6
 800b8ee:	4628      	mov	r0, r5
 800b8f0:	47b8      	blx	r7
 800b8f2:	3001      	adds	r0, #1
 800b8f4:	f43f af19 	beq.w	800b72a <_printf_float+0xc2>
 800b8f8:	e9dd 2309 	ldrd	r2, r3, [sp, #36]	; 0x24
 800b8fc:	4313      	orrs	r3, r2
 800b8fe:	d102      	bne.n	800b906 <_printf_float+0x29e>
 800b900:	6823      	ldr	r3, [r4, #0]
 800b902:	07d9      	lsls	r1, r3, #31
 800b904:	d5d8      	bpl.n	800b8b8 <_printf_float+0x250>
 800b906:	ee18 3a10 	vmov	r3, s16
 800b90a:	4652      	mov	r2, sl
 800b90c:	4631      	mov	r1, r6
 800b90e:	4628      	mov	r0, r5
 800b910:	47b8      	blx	r7
 800b912:	3001      	adds	r0, #1
 800b914:	f43f af09 	beq.w	800b72a <_printf_float+0xc2>
 800b918:	f04f 0900 	mov.w	r9, #0
 800b91c:	f104 0a1a 	add.w	sl, r4, #26
 800b920:	9b09      	ldr	r3, [sp, #36]	; 0x24
 800b922:	425b      	negs	r3, r3
 800b924:	454b      	cmp	r3, r9
 800b926:	dc01      	bgt.n	800b92c <_printf_float+0x2c4>
 800b928:	9b0a      	ldr	r3, [sp, #40]	; 0x28
 800b92a:	e792      	b.n	800b852 <_printf_float+0x1ea>
 800b92c:	2301      	movs	r3, #1
 800b92e:	4652      	mov	r2, sl
 800b930:	4631      	mov	r1, r6
 800b932:	4628      	mov	r0, r5
 800b934:	47b8      	blx	r7
 800b936:	3001      	adds	r0, #1
 800b938:	f43f aef7 	beq.w	800b72a <_printf_float+0xc2>
 800b93c:	f109 0901 	add.w	r9, r9, #1
 800b940:	e7ee      	b.n	800b920 <_printf_float+0x2b8>
 800b942:	bf00      	nop
 800b944:	7fefffff 	.word	0x7fefffff
 800b948:	0800fe34 	.word	0x0800fe34
 800b94c:	0800fe38 	.word	0x0800fe38
 800b950:	0800fe40 	.word	0x0800fe40
 800b954:	0800fe3c 	.word	0x0800fe3c
 800b958:	0800fe44 	.word	0x0800fe44
 800b95c:	9a0a      	ldr	r2, [sp, #40]	; 0x28
 800b95e:	6da3      	ldr	r3, [r4, #88]	; 0x58
 800b960:	429a      	cmp	r2, r3
 800b962:	bfa8      	it	ge
 800b964:	461a      	movge	r2, r3
 800b966:	2a00      	cmp	r2, #0
 800b968:	4691      	mov	r9, r2
 800b96a:	dc37      	bgt.n	800b9dc <_printf_float+0x374>
 800b96c:	f04f 0b00 	mov.w	fp, #0
 800b970:	ea29 79e9 	bic.w	r9, r9, r9, asr #31
 800b974:	f104 021a 	add.w	r2, r4, #26
 800b978:	6da3      	ldr	r3, [r4, #88]	; 0x58
 800b97a:	9305      	str	r3, [sp, #20]
 800b97c:	eba3 0309 	sub.w	r3, r3, r9
 800b980:	455b      	cmp	r3, fp
 800b982:	dc33      	bgt.n	800b9ec <_printf_float+0x384>
 800b984:	e9dd 2309 	ldrd	r2, r3, [sp, #36]	; 0x24
 800b988:	429a      	cmp	r2, r3
 800b98a:	db3b      	blt.n	800ba04 <_printf_float+0x39c>
 800b98c:	6823      	ldr	r3, [r4, #0]
 800b98e:	07da      	lsls	r2, r3, #31
 800b990:	d438      	bmi.n	800ba04 <_printf_float+0x39c>
 800b992:	9a0a      	ldr	r2, [sp, #40]	; 0x28
 800b994:	9b05      	ldr	r3, [sp, #20]
 800b996:	9909      	ldr	r1, [sp, #36]	; 0x24
 800b998:	1ad3      	subs	r3, r2, r3
 800b99a:	eba2 0901 	sub.w	r9, r2, r1
 800b99e:	4599      	cmp	r9, r3
 800b9a0:	bfa8      	it	ge
 800b9a2:	4699      	movge	r9, r3
 800b9a4:	f1b9 0f00 	cmp.w	r9, #0
 800b9a8:	dc35      	bgt.n	800ba16 <_printf_float+0x3ae>
 800b9aa:	f04f 0800 	mov.w	r8, #0
 800b9ae:	ea29 79e9 	bic.w	r9, r9, r9, asr #31
 800b9b2:	f104 0a1a 	add.w	sl, r4, #26
 800b9b6:	e9dd 2309 	ldrd	r2, r3, [sp, #36]	; 0x24
 800b9ba:	1a9b      	subs	r3, r3, r2
 800b9bc:	eba3 0309 	sub.w	r3, r3, r9
 800b9c0:	4543      	cmp	r3, r8
 800b9c2:	f77f af79 	ble.w	800b8b8 <_printf_float+0x250>
 800b9c6:	2301      	movs	r3, #1
 800b9c8:	4652      	mov	r2, sl
 800b9ca:	4631      	mov	r1, r6
 800b9cc:	4628      	mov	r0, r5
 800b9ce:	47b8      	blx	r7
 800b9d0:	3001      	adds	r0, #1
 800b9d2:	f43f aeaa 	beq.w	800b72a <_printf_float+0xc2>
 800b9d6:	f108 0801 	add.w	r8, r8, #1
 800b9da:	e7ec      	b.n	800b9b6 <_printf_float+0x34e>
 800b9dc:	4613      	mov	r3, r2
 800b9de:	4631      	mov	r1, r6
 800b9e0:	4642      	mov	r2, r8
 800b9e2:	4628      	mov	r0, r5
 800b9e4:	47b8      	blx	r7
 800b9e6:	3001      	adds	r0, #1
 800b9e8:	d1c0      	bne.n	800b96c <_printf_float+0x304>
 800b9ea:	e69e      	b.n	800b72a <_printf_float+0xc2>
 800b9ec:	2301      	movs	r3, #1
 800b9ee:	4631      	mov	r1, r6
 800b9f0:	4628      	mov	r0, r5
 800b9f2:	9205      	str	r2, [sp, #20]
 800b9f4:	47b8      	blx	r7
 800b9f6:	3001      	adds	r0, #1
 800b9f8:	f43f ae97 	beq.w	800b72a <_printf_float+0xc2>
 800b9fc:	9a05      	ldr	r2, [sp, #20]
 800b9fe:	f10b 0b01 	add.w	fp, fp, #1
 800ba02:	e7b9      	b.n	800b978 <_printf_float+0x310>
 800ba04:	ee18 3a10 	vmov	r3, s16
 800ba08:	4652      	mov	r2, sl
 800ba0a:	4631      	mov	r1, r6
 800ba0c:	4628      	mov	r0, r5
 800ba0e:	47b8      	blx	r7
 800ba10:	3001      	adds	r0, #1
 800ba12:	d1be      	bne.n	800b992 <_printf_float+0x32a>
 800ba14:	e689      	b.n	800b72a <_printf_float+0xc2>
 800ba16:	9a05      	ldr	r2, [sp, #20]
 800ba18:	464b      	mov	r3, r9
 800ba1a:	4442      	add	r2, r8
 800ba1c:	4631      	mov	r1, r6
 800ba1e:	4628      	mov	r0, r5
 800ba20:	47b8      	blx	r7
 800ba22:	3001      	adds	r0, #1
 800ba24:	d1c1      	bne.n	800b9aa <_printf_float+0x342>
 800ba26:	e680      	b.n	800b72a <_printf_float+0xc2>
 800ba28:	9a0a      	ldr	r2, [sp, #40]	; 0x28
 800ba2a:	2a01      	cmp	r2, #1
 800ba2c:	dc01      	bgt.n	800ba32 <_printf_float+0x3ca>
 800ba2e:	07db      	lsls	r3, r3, #31
 800ba30:	d538      	bpl.n	800baa4 <_printf_float+0x43c>
 800ba32:	2301      	movs	r3, #1
 800ba34:	4642      	mov	r2, r8
 800ba36:	4631      	mov	r1, r6
 800ba38:	4628      	mov	r0, r5
 800ba3a:	47b8      	blx	r7
 800ba3c:	3001      	adds	r0, #1
 800ba3e:	f43f ae74 	beq.w	800b72a <_printf_float+0xc2>
 800ba42:	ee18 3a10 	vmov	r3, s16
 800ba46:	4652      	mov	r2, sl
 800ba48:	4631      	mov	r1, r6
 800ba4a:	4628      	mov	r0, r5
 800ba4c:	47b8      	blx	r7
 800ba4e:	3001      	adds	r0, #1
 800ba50:	f43f ae6b 	beq.w	800b72a <_printf_float+0xc2>
 800ba54:	e9d4 0112 	ldrd	r0, r1, [r4, #72]	; 0x48
 800ba58:	2200      	movs	r2, #0
 800ba5a:	2300      	movs	r3, #0
 800ba5c:	f7f5 f834 	bl	8000ac8 <__aeabi_dcmpeq>
 800ba60:	b9d8      	cbnz	r0, 800ba9a <_printf_float+0x432>
 800ba62:	9b0a      	ldr	r3, [sp, #40]	; 0x28
 800ba64:	f108 0201 	add.w	r2, r8, #1
 800ba68:	3b01      	subs	r3, #1
 800ba6a:	4631      	mov	r1, r6
 800ba6c:	4628      	mov	r0, r5
 800ba6e:	47b8      	blx	r7
 800ba70:	3001      	adds	r0, #1
 800ba72:	d10e      	bne.n	800ba92 <_printf_float+0x42a>
 800ba74:	e659      	b.n	800b72a <_printf_float+0xc2>
 800ba76:	2301      	movs	r3, #1
 800ba78:	4652      	mov	r2, sl
 800ba7a:	4631      	mov	r1, r6
 800ba7c:	4628      	mov	r0, r5
 800ba7e:	47b8      	blx	r7
 800ba80:	3001      	adds	r0, #1
 800ba82:	f43f ae52 	beq.w	800b72a <_printf_float+0xc2>
 800ba86:	f108 0801 	add.w	r8, r8, #1
 800ba8a:	9b0a      	ldr	r3, [sp, #40]	; 0x28
 800ba8c:	3b01      	subs	r3, #1
 800ba8e:	4543      	cmp	r3, r8
 800ba90:	dcf1      	bgt.n	800ba76 <_printf_float+0x40e>
 800ba92:	464b      	mov	r3, r9
 800ba94:	f104 0250 	add.w	r2, r4, #80	; 0x50
 800ba98:	e6dc      	b.n	800b854 <_printf_float+0x1ec>
 800ba9a:	f04f 0800 	mov.w	r8, #0
 800ba9e:	f104 0a1a 	add.w	sl, r4, #26
 800baa2:	e7f2      	b.n	800ba8a <_printf_float+0x422>
 800baa4:	2301      	movs	r3, #1
 800baa6:	4642      	mov	r2, r8
 800baa8:	e7df      	b.n	800ba6a <_printf_float+0x402>
 800baaa:	2301      	movs	r3, #1
 800baac:	464a      	mov	r2, r9
 800baae:	4631      	mov	r1, r6
 800bab0:	4628      	mov	r0, r5
 800bab2:	47b8      	blx	r7
 800bab4:	3001      	adds	r0, #1
 800bab6:	f43f ae38 	beq.w	800b72a <_printf_float+0xc2>
 800baba:	f108 0801 	add.w	r8, r8, #1
 800babe:	68e3      	ldr	r3, [r4, #12]
 800bac0:	990b      	ldr	r1, [sp, #44]	; 0x2c
 800bac2:	1a5b      	subs	r3, r3, r1
 800bac4:	4543      	cmp	r3, r8
 800bac6:	dcf0      	bgt.n	800baaa <_printf_float+0x442>
 800bac8:	e6fa      	b.n	800b8c0 <_printf_float+0x258>
 800baca:	f04f 0800 	mov.w	r8, #0
 800bace:	f104 0919 	add.w	r9, r4, #25
 800bad2:	e7f4      	b.n	800babe <_printf_float+0x456>

0800bad4 <_printf_common>:
 800bad4:	e92d 47f0 	stmdb	sp!, {r4, r5, r6, r7, r8, r9, sl, lr}
 800bad8:	4616      	mov	r6, r2
 800bada:	4699      	mov	r9, r3
 800badc:	688a      	ldr	r2, [r1, #8]
 800bade:	690b      	ldr	r3, [r1, #16]
 800bae0:	f8dd 8020 	ldr.w	r8, [sp, #32]
 800bae4:	4293      	cmp	r3, r2
 800bae6:	bfb8      	it	lt
 800bae8:	4613      	movlt	r3, r2
 800baea:	6033      	str	r3, [r6, #0]
 800baec:	f891 2043 	ldrb.w	r2, [r1, #67]	; 0x43
 800baf0:	4607      	mov	r7, r0
 800baf2:	460c      	mov	r4, r1
 800baf4:	b10a      	cbz	r2, 800bafa <_printf_common+0x26>
 800baf6:	3301      	adds	r3, #1
 800baf8:	6033      	str	r3, [r6, #0]
 800bafa:	6823      	ldr	r3, [r4, #0]
 800bafc:	0699      	lsls	r1, r3, #26
 800bafe:	bf42      	ittt	mi
 800bb00:	6833      	ldrmi	r3, [r6, #0]
 800bb02:	3302      	addmi	r3, #2
 800bb04:	6033      	strmi	r3, [r6, #0]
 800bb06:	6825      	ldr	r5, [r4, #0]
 800bb08:	f015 0506 	ands.w	r5, r5, #6
 800bb0c:	d106      	bne.n	800bb1c <_printf_common+0x48>
 800bb0e:	f104 0a19 	add.w	sl, r4, #25
 800bb12:	68e3      	ldr	r3, [r4, #12]
 800bb14:	6832      	ldr	r2, [r6, #0]
 800bb16:	1a9b      	subs	r3, r3, r2
 800bb18:	42ab      	cmp	r3, r5
 800bb1a:	dc26      	bgt.n	800bb6a <_printf_common+0x96>
 800bb1c:	f894 2043 	ldrb.w	r2, [r4, #67]	; 0x43
 800bb20:	1e13      	subs	r3, r2, #0
 800bb22:	6822      	ldr	r2, [r4, #0]
 800bb24:	bf18      	it	ne
 800bb26:	2301      	movne	r3, #1
 800bb28:	0692      	lsls	r2, r2, #26
 800bb2a:	d42b      	bmi.n	800bb84 <_printf_common+0xb0>
 800bb2c:	f104 0243 	add.w	r2, r4, #67	; 0x43
 800bb30:	4649      	mov	r1, r9
 800bb32:	4638      	mov	r0, r7
 800bb34:	47c0      	blx	r8
 800bb36:	3001      	adds	r0, #1
 800bb38:	d01e      	beq.n	800bb78 <_printf_common+0xa4>
 800bb3a:	6823      	ldr	r3, [r4, #0]
 800bb3c:	68e5      	ldr	r5, [r4, #12]
 800bb3e:	6832      	ldr	r2, [r6, #0]
 800bb40:	f003 0306 	and.w	r3, r3, #6
 800bb44:	2b04      	cmp	r3, #4
 800bb46:	bf08      	it	eq
 800bb48:	1aad      	subeq	r5, r5, r2
 800bb4a:	68a3      	ldr	r3, [r4, #8]
 800bb4c:	6922      	ldr	r2, [r4, #16]
 800bb4e:	bf0c      	ite	eq
 800bb50:	ea25 75e5 	biceq.w	r5, r5, r5, asr #31
 800bb54:	2500      	movne	r5, #0
 800bb56:	4293      	cmp	r3, r2
 800bb58:	bfc4      	itt	gt
 800bb5a:	1a9b      	subgt	r3, r3, r2
 800bb5c:	18ed      	addgt	r5, r5, r3
 800bb5e:	2600      	movs	r6, #0
 800bb60:	341a      	adds	r4, #26
 800bb62:	42b5      	cmp	r5, r6
 800bb64:	d11a      	bne.n	800bb9c <_printf_common+0xc8>
 800bb66:	2000      	movs	r0, #0
 800bb68:	e008      	b.n	800bb7c <_printf_common+0xa8>
 800bb6a:	2301      	movs	r3, #1
 800bb6c:	4652      	mov	r2, sl
 800bb6e:	4649      	mov	r1, r9
 800bb70:	4638      	mov	r0, r7
 800bb72:	47c0      	blx	r8
 800bb74:	3001      	adds	r0, #1
 800bb76:	d103      	bne.n	800bb80 <_printf_common+0xac>
 800bb78:	f04f 30ff 	mov.w	r0, #4294967295
 800bb7c:	e8bd 87f0 	ldmia.w	sp!, {r4, r5, r6, r7, r8, r9, sl, pc}
 800bb80:	3501      	adds	r5, #1
 800bb82:	e7c6      	b.n	800bb12 <_printf_common+0x3e>
 800bb84:	18e1      	adds	r1, r4, r3
 800bb86:	1c5a      	adds	r2, r3, #1
 800bb88:	2030      	movs	r0, #48	; 0x30
 800bb8a:	f881 0043 	strb.w	r0, [r1, #67]	; 0x43
 800bb8e:	4422      	add	r2, r4
 800bb90:	f894 1045 	ldrb.w	r1, [r4, #69]	; 0x45
 800bb94:	f882 1043 	strb.w	r1, [r2, #67]	; 0x43
 800bb98:	3302      	adds	r3, #2
 800bb9a:	e7c7      	b.n	800bb2c <_printf_common+0x58>
 800bb9c:	2301      	movs	r3, #1
 800bb9e:	4622      	mov	r2, r4
 800bba0:	4649      	mov	r1, r9
 800bba2:	4638      	mov	r0, r7
 800bba4:	47c0      	blx	r8
 800bba6:	3001      	adds	r0, #1
 800bba8:	d0e6      	beq.n	800bb78 <_printf_common+0xa4>
 800bbaa:	3601      	adds	r6, #1
 800bbac:	e7d9      	b.n	800bb62 <_printf_common+0x8e>
	...

0800bbb0 <_printf_i>:
 800bbb0:	e92d 47ff 	stmdb	sp!, {r0, r1, r2, r3, r4, r5, r6, r7, r8, r9, sl, lr}
 800bbb4:	460c      	mov	r4, r1
 800bbb6:	4691      	mov	r9, r2
 800bbb8:	7e27      	ldrb	r7, [r4, #24]
 800bbba:	990c      	ldr	r1, [sp, #48]	; 0x30
 800bbbc:	2f78      	cmp	r7, #120	; 0x78
 800bbbe:	4680      	mov	r8, r0
 800bbc0:	469a      	mov	sl, r3
 800bbc2:	f104 0243 	add.w	r2, r4, #67	; 0x43
 800bbc6:	d807      	bhi.n	800bbd8 <_printf_i+0x28>
 800bbc8:	2f62      	cmp	r7, #98	; 0x62
 800bbca:	d80a      	bhi.n	800bbe2 <_printf_i+0x32>
 800bbcc:	2f00      	cmp	r7, #0
 800bbce:	f000 80d8 	beq.w	800bd82 <_printf_i+0x1d2>
 800bbd2:	2f58      	cmp	r7, #88	; 0x58
 800bbd4:	f000 80a3 	beq.w	800bd1e <_printf_i+0x16e>
 800bbd8:	f104 0642 	add.w	r6, r4, #66	; 0x42
 800bbdc:	f884 7042 	strb.w	r7, [r4, #66]	; 0x42
 800bbe0:	e03a      	b.n	800bc58 <_printf_i+0xa8>
 800bbe2:	f1a7 0363 	sub.w	r3, r7, #99	; 0x63
 800bbe6:	2b15      	cmp	r3, #21
 800bbe8:	d8f6      	bhi.n	800bbd8 <_printf_i+0x28>
 800bbea:	a001      	add	r0, pc, #4	; (adr r0, 800bbf0 <_printf_i+0x40>)
 800bbec:	f850 f023 	ldr.w	pc, [r0, r3, lsl #2]
 800bbf0:	0800bc49 	.word	0x0800bc49
 800bbf4:	0800bc5d 	.word	0x0800bc5d
 800bbf8:	0800bbd9 	.word	0x0800bbd9
 800bbfc:	0800bbd9 	.word	0x0800bbd9
 800bc00:	0800bbd9 	.word	0x0800bbd9
 800bc04:	0800bbd9 	.word	0x0800bbd9
 800bc08:	0800bc5d 	.word	0x0800bc5d
 800bc0c:	0800bbd9 	.word	0x0800bbd9
 800bc10:	0800bbd9 	.word	0x0800bbd9
 800bc14:	0800bbd9 	.word	0x0800bbd9
 800bc18:	0800bbd9 	.word	0x0800bbd9
 800bc1c:	0800bd69 	.word	0x0800bd69
 800bc20:	0800bc8d 	.word	0x0800bc8d
 800bc24:	0800bd4b 	.word	0x0800bd4b
 800bc28:	0800bbd9 	.word	0x0800bbd9
 800bc2c:	0800bbd9 	.word	0x0800bbd9
 800bc30:	0800bd8b 	.word	0x0800bd8b
 800bc34:	0800bbd9 	.word	0x0800bbd9
 800bc38:	0800bc8d 	.word	0x0800bc8d
 800bc3c:	0800bbd9 	.word	0x0800bbd9
 800bc40:	0800bbd9 	.word	0x0800bbd9
 800bc44:	0800bd53 	.word	0x0800bd53
 800bc48:	680b      	ldr	r3, [r1, #0]
 800bc4a:	1d1a      	adds	r2, r3, #4
 800bc4c:	681b      	ldr	r3, [r3, #0]
 800bc4e:	600a      	str	r2, [r1, #0]
 800bc50:	f104 0642 	add.w	r6, r4, #66	; 0x42
 800bc54:	f884 3042 	strb.w	r3, [r4, #66]	; 0x42
 800bc58:	2301      	movs	r3, #1
 800bc5a:	e0a3      	b.n	800bda4 <_printf_i+0x1f4>
 800bc5c:	6825      	ldr	r5, [r4, #0]
 800bc5e:	6808      	ldr	r0, [r1, #0]
 800bc60:	062e      	lsls	r6, r5, #24
 800bc62:	f100 0304 	add.w	r3, r0, #4
 800bc66:	d50a      	bpl.n	800bc7e <_printf_i+0xce>
 800bc68:	6805      	ldr	r5, [r0, #0]
 800bc6a:	600b      	str	r3, [r1, #0]
 800bc6c:	2d00      	cmp	r5, #0
 800bc6e:	da03      	bge.n	800bc78 <_printf_i+0xc8>
 800bc70:	232d      	movs	r3, #45	; 0x2d
 800bc72:	426d      	negs	r5, r5
 800bc74:	f884 3043 	strb.w	r3, [r4, #67]	; 0x43
 800bc78:	485e      	ldr	r0, [pc, #376]	; (800bdf4 <_printf_i+0x244>)
 800bc7a:	230a      	movs	r3, #10
 800bc7c:	e019      	b.n	800bcb2 <_printf_i+0x102>
 800bc7e:	f015 0f40 	tst.w	r5, #64	; 0x40
 800bc82:	6805      	ldr	r5, [r0, #0]
 800bc84:	600b      	str	r3, [r1, #0]
 800bc86:	bf18      	it	ne
 800bc88:	b22d      	sxthne	r5, r5
 800bc8a:	e7ef      	b.n	800bc6c <_printf_i+0xbc>
 800bc8c:	680b      	ldr	r3, [r1, #0]
 800bc8e:	6825      	ldr	r5, [r4, #0]
 800bc90:	1d18      	adds	r0, r3, #4
 800bc92:	6008      	str	r0, [r1, #0]
 800bc94:	0628      	lsls	r0, r5, #24
 800bc96:	d501      	bpl.n	800bc9c <_printf_i+0xec>
 800bc98:	681d      	ldr	r5, [r3, #0]
 800bc9a:	e002      	b.n	800bca2 <_printf_i+0xf2>
 800bc9c:	0669      	lsls	r1, r5, #25
 800bc9e:	d5fb      	bpl.n	800bc98 <_printf_i+0xe8>
 800bca0:	881d      	ldrh	r5, [r3, #0]
 800bca2:	4854      	ldr	r0, [pc, #336]	; (800bdf4 <_printf_i+0x244>)
 800bca4:	2f6f      	cmp	r7, #111	; 0x6f
 800bca6:	bf0c      	ite	eq
 800bca8:	2308      	moveq	r3, #8
 800bcaa:	230a      	movne	r3, #10
 800bcac:	2100      	movs	r1, #0
 800bcae:	f884 1043 	strb.w	r1, [r4, #67]	; 0x43
 800bcb2:	6866      	ldr	r6, [r4, #4]
 800bcb4:	60a6      	str	r6, [r4, #8]
 800bcb6:	2e00      	cmp	r6, #0
 800bcb8:	bfa2      	ittt	ge
 800bcba:	6821      	ldrge	r1, [r4, #0]
 800bcbc:	f021 0104 	bicge.w	r1, r1, #4
 800bcc0:	6021      	strge	r1, [r4, #0]
 800bcc2:	b90d      	cbnz	r5, 800bcc8 <_printf_i+0x118>
 800bcc4:	2e00      	cmp	r6, #0
 800bcc6:	d04d      	beq.n	800bd64 <_printf_i+0x1b4>
 800bcc8:	4616      	mov	r6, r2
 800bcca:	fbb5 f1f3 	udiv	r1, r5, r3
 800bcce:	fb03 5711 	mls	r7, r3, r1, r5
 800bcd2:	5dc7      	ldrb	r7, [r0, r7]
 800bcd4:	f806 7d01 	strb.w	r7, [r6, #-1]!
 800bcd8:	462f      	mov	r7, r5
 800bcda:	42bb      	cmp	r3, r7
 800bcdc:	460d      	mov	r5, r1
 800bcde:	d9f4      	bls.n	800bcca <_printf_i+0x11a>
 800bce0:	2b08      	cmp	r3, #8
 800bce2:	d10b      	bne.n	800bcfc <_printf_i+0x14c>
 800bce4:	6823      	ldr	r3, [r4, #0]
 800bce6:	07df      	lsls	r7, r3, #31
 800bce8:	d508      	bpl.n	800bcfc <_printf_i+0x14c>
 800bcea:	6923      	ldr	r3, [r4, #16]
 800bcec:	6861      	ldr	r1, [r4, #4]
 800bcee:	4299      	cmp	r1, r3
 800bcf0:	bfde      	ittt	le
 800bcf2:	2330      	movle	r3, #48	; 0x30
 800bcf4:	f806 3c01 	strble.w	r3, [r6, #-1]
 800bcf8:	f106 36ff 	addle.w	r6, r6, #4294967295
 800bcfc:	1b92      	subs	r2, r2, r6
 800bcfe:	6122      	str	r2, [r4, #16]
 800bd00:	f8cd a000 	str.w	sl, [sp]
 800bd04:	464b      	mov	r3, r9
 800bd06:	aa03      	add	r2, sp, #12
 800bd08:	4621      	mov	r1, r4
 800bd0a:	4640      	mov	r0, r8
 800bd0c:	f7ff fee2 	bl	800bad4 <_printf_common>
 800bd10:	3001      	adds	r0, #1
 800bd12:	d14c      	bne.n	800bdae <_printf_i+0x1fe>
 800bd14:	f04f 30ff 	mov.w	r0, #4294967295
 800bd18:	b004      	add	sp, #16
 800bd1a:	e8bd 87f0 	ldmia.w	sp!, {r4, r5, r6, r7, r8, r9, sl, pc}
 800bd1e:	4835      	ldr	r0, [pc, #212]	; (800bdf4 <_printf_i+0x244>)
 800bd20:	f884 7045 	strb.w	r7, [r4, #69]	; 0x45
 800bd24:	6823      	ldr	r3, [r4, #0]
 800bd26:	680e      	ldr	r6, [r1, #0]
 800bd28:	061f      	lsls	r7, r3, #24
 800bd2a:	f856 5b04 	ldr.w	r5, [r6], #4
 800bd2e:	600e      	str	r6, [r1, #0]
 800bd30:	d514      	bpl.n	800bd5c <_printf_i+0x1ac>
 800bd32:	07d9      	lsls	r1, r3, #31
 800bd34:	bf44      	itt	mi
 800bd36:	f043 0320 	orrmi.w	r3, r3, #32
 800bd3a:	6023      	strmi	r3, [r4, #0]
 800bd3c:	b91d      	cbnz	r5, 800bd46 <_printf_i+0x196>
 800bd3e:	6823      	ldr	r3, [r4, #0]
 800bd40:	f023 0320 	bic.w	r3, r3, #32
 800bd44:	6023      	str	r3, [r4, #0]
 800bd46:	2310      	movs	r3, #16
 800bd48:	e7b0      	b.n	800bcac <_printf_i+0xfc>
 800bd4a:	6823      	ldr	r3, [r4, #0]
 800bd4c:	f043 0320 	orr.w	r3, r3, #32
 800bd50:	6023      	str	r3, [r4, #0]
 800bd52:	2378      	movs	r3, #120	; 0x78
 800bd54:	4828      	ldr	r0, [pc, #160]	; (800bdf8 <_printf_i+0x248>)
 800bd56:	f884 3045 	strb.w	r3, [r4, #69]	; 0x45
 800bd5a:	e7e3      	b.n	800bd24 <_printf_i+0x174>
 800bd5c:	065e      	lsls	r6, r3, #25
 800bd5e:	bf48      	it	mi
 800bd60:	b2ad      	uxthmi	r5, r5
 800bd62:	e7e6      	b.n	800bd32 <_printf_i+0x182>
 800bd64:	4616      	mov	r6, r2
 800bd66:	e7bb      	b.n	800bce0 <_printf_i+0x130>
 800bd68:	680b      	ldr	r3, [r1, #0]
 800bd6a:	6826      	ldr	r6, [r4, #0]
 800bd6c:	6960      	ldr	r0, [r4, #20]
 800bd6e:	1d1d      	adds	r5, r3, #4
 800bd70:	600d      	str	r5, [r1, #0]
 800bd72:	0635      	lsls	r5, r6, #24
 800bd74:	681b      	ldr	r3, [r3, #0]
 800bd76:	d501      	bpl.n	800bd7c <_printf_i+0x1cc>
 800bd78:	6018      	str	r0, [r3, #0]
 800bd7a:	e002      	b.n	800bd82 <_printf_i+0x1d2>
 800bd7c:	0671      	lsls	r1, r6, #25
 800bd7e:	d5fb      	bpl.n	800bd78 <_printf_i+0x1c8>
 800bd80:	8018      	strh	r0, [r3, #0]
 800bd82:	2300      	movs	r3, #0
 800bd84:	6123      	str	r3, [r4, #16]
 800bd86:	4616      	mov	r6, r2
 800bd88:	e7ba      	b.n	800bd00 <_printf_i+0x150>
 800bd8a:	680b      	ldr	r3, [r1, #0]
 800bd8c:	1d1a      	adds	r2, r3, #4
 800bd8e:	600a      	str	r2, [r1, #0]
 800bd90:	681e      	ldr	r6, [r3, #0]
 800bd92:	6862      	ldr	r2, [r4, #4]
 800bd94:	2100      	movs	r1, #0
 800bd96:	4630      	mov	r0, r6
 800bd98:	f7f4 fa22 	bl	80001e0 <memchr>
 800bd9c:	b108      	cbz	r0, 800bda2 <_printf_i+0x1f2>
 800bd9e:	1b80      	subs	r0, r0, r6
 800bda0:	6060      	str	r0, [r4, #4]
 800bda2:	6863      	ldr	r3, [r4, #4]
 800bda4:	6123      	str	r3, [r4, #16]
 800bda6:	2300      	movs	r3, #0
 800bda8:	f884 3043 	strb.w	r3, [r4, #67]	; 0x43
 800bdac:	e7a8      	b.n	800bd00 <_printf_i+0x150>
 800bdae:	6923      	ldr	r3, [r4, #16]
 800bdb0:	4632      	mov	r2, r6
 800bdb2:	4649      	mov	r1, r9
 800bdb4:	4640      	mov	r0, r8
 800bdb6:	47d0      	blx	sl
 800bdb8:	3001      	adds	r0, #1
 800bdba:	d0ab      	beq.n	800bd14 <_printf_i+0x164>
 800bdbc:	6823      	ldr	r3, [r4, #0]
 800bdbe:	079b      	lsls	r3, r3, #30
 800bdc0:	d413      	bmi.n	800bdea <_printf_i+0x23a>
 800bdc2:	68e0      	ldr	r0, [r4, #12]
 800bdc4:	9b03      	ldr	r3, [sp, #12]
 800bdc6:	4298      	cmp	r0, r3
 800bdc8:	bfb8      	it	lt
 800bdca:	4618      	movlt	r0, r3
 800bdcc:	e7a4      	b.n	800bd18 <_printf_i+0x168>
 800bdce:	2301      	movs	r3, #1
 800bdd0:	4632      	mov	r2, r6
 800bdd2:	4649      	mov	r1, r9
 800bdd4:	4640      	mov	r0, r8
 800bdd6:	47d0      	blx	sl
 800bdd8:	3001      	adds	r0, #1
 800bdda:	d09b      	beq.n	800bd14 <_printf_i+0x164>
 800bddc:	3501      	adds	r5, #1
 800bdde:	68e3      	ldr	r3, [r4, #12]
 800bde0:	9903      	ldr	r1, [sp, #12]
 800bde2:	1a5b      	subs	r3, r3, r1
 800bde4:	42ab      	cmp	r3, r5
 800bde6:	dcf2      	bgt.n	800bdce <_printf_i+0x21e>
 800bde8:	e7eb      	b.n	800bdc2 <_printf_i+0x212>
 800bdea:	2500      	movs	r5, #0
 800bdec:	f104 0619 	add.w	r6, r4, #25
 800bdf0:	e7f5      	b.n	800bdde <_printf_i+0x22e>
 800bdf2:	bf00      	nop
 800bdf4:	0800fe46 	.word	0x0800fe46
 800bdf8:	0800fe57 	.word	0x0800fe57

0800bdfc <srand>:
 800bdfc:	b538      	push	{r3, r4, r5, lr}
 800bdfe:	4b10      	ldr	r3, [pc, #64]	; (800be40 <srand+0x44>)
 800be00:	681d      	ldr	r5, [r3, #0]
 800be02:	6bab      	ldr	r3, [r5, #56]	; 0x38
 800be04:	4604      	mov	r4, r0
 800be06:	b9b3      	cbnz	r3, 800be36 <srand+0x3a>
 800be08:	2018      	movs	r0, #24
 800be0a:	f001 f845 	bl	800ce98 <malloc>
 800be0e:	4602      	mov	r2, r0
 800be10:	63a8      	str	r0, [r5, #56]	; 0x38
 800be12:	b920      	cbnz	r0, 800be1e <srand+0x22>
 800be14:	4b0b      	ldr	r3, [pc, #44]	; (800be44 <srand+0x48>)
 800be16:	480c      	ldr	r0, [pc, #48]	; (800be48 <srand+0x4c>)
 800be18:	2142      	movs	r1, #66	; 0x42
 800be1a:	f000 f895 	bl	800bf48 <__assert_func>
 800be1e:	490b      	ldr	r1, [pc, #44]	; (800be4c <srand+0x50>)
 800be20:	4b0b      	ldr	r3, [pc, #44]	; (800be50 <srand+0x54>)
 800be22:	e9c0 1300 	strd	r1, r3, [r0]
 800be26:	4b0b      	ldr	r3, [pc, #44]	; (800be54 <srand+0x58>)
 800be28:	6083      	str	r3, [r0, #8]
 800be2a:	230b      	movs	r3, #11
 800be2c:	8183      	strh	r3, [r0, #12]
 800be2e:	2100      	movs	r1, #0
 800be30:	2001      	movs	r0, #1
 800be32:	e9c2 0104 	strd	r0, r1, [r2, #16]
 800be36:	6bab      	ldr	r3, [r5, #56]	; 0x38
 800be38:	2200      	movs	r2, #0
 800be3a:	611c      	str	r4, [r3, #16]
 800be3c:	615a      	str	r2, [r3, #20]
 800be3e:	bd38      	pop	{r3, r4, r5, pc}
 800be40:	20000738 	.word	0x20000738
 800be44:	0800fe68 	.word	0x0800fe68
 800be48:	0800fe7f 	.word	0x0800fe7f
 800be4c:	abcd330e 	.word	0xabcd330e
 800be50:	e66d1234 	.word	0xe66d1234
 800be54:	0005deec 	.word	0x0005deec

0800be58 <rand>:
 800be58:	4b17      	ldr	r3, [pc, #92]	; (800beb8 <rand+0x60>)
 800be5a:	b510      	push	{r4, lr}
 800be5c:	681c      	ldr	r4, [r3, #0]
 800be5e:	6ba3      	ldr	r3, [r4, #56]	; 0x38
 800be60:	b9b3      	cbnz	r3, 800be90 <rand+0x38>
 800be62:	2018      	movs	r0, #24
 800be64:	f001 f818 	bl	800ce98 <malloc>
 800be68:	63a0      	str	r0, [r4, #56]	; 0x38
 800be6a:	b928      	cbnz	r0, 800be78 <rand+0x20>
 800be6c:	4602      	mov	r2, r0
 800be6e:	4b13      	ldr	r3, [pc, #76]	; (800bebc <rand+0x64>)
 800be70:	4813      	ldr	r0, [pc, #76]	; (800bec0 <rand+0x68>)
 800be72:	214e      	movs	r1, #78	; 0x4e
 800be74:	f000 f868 	bl	800bf48 <__assert_func>
 800be78:	4a12      	ldr	r2, [pc, #72]	; (800bec4 <rand+0x6c>)
 800be7a:	4b13      	ldr	r3, [pc, #76]	; (800bec8 <rand+0x70>)
 800be7c:	e9c0 2300 	strd	r2, r3, [r0]
 800be80:	4b12      	ldr	r3, [pc, #72]	; (800becc <rand+0x74>)
 800be82:	6083      	str	r3, [r0, #8]
 800be84:	230b      	movs	r3, #11
 800be86:	8183      	strh	r3, [r0, #12]
 800be88:	2201      	movs	r2, #1
 800be8a:	2300      	movs	r3, #0
 800be8c:	e9c0 2304 	strd	r2, r3, [r0, #16]
 800be90:	6ba1      	ldr	r1, [r4, #56]	; 0x38
 800be92:	480f      	ldr	r0, [pc, #60]	; (800bed0 <rand+0x78>)
 800be94:	690a      	ldr	r2, [r1, #16]
 800be96:	694b      	ldr	r3, [r1, #20]
 800be98:	4c0e      	ldr	r4, [pc, #56]	; (800bed4 <rand+0x7c>)
 800be9a:	4350      	muls	r0, r2
 800be9c:	fb04 0003 	mla	r0, r4, r3, r0
 800bea0:	fba2 3404 	umull	r3, r4, r2, r4
 800bea4:	1c5a      	adds	r2, r3, #1
 800bea6:	4404      	add	r4, r0
 800bea8:	f144 0000 	adc.w	r0, r4, #0
 800beac:	e9c1 2004 	strd	r2, r0, [r1, #16]
 800beb0:	f020 4000 	bic.w	r0, r0, #2147483648	; 0x80000000
 800beb4:	bd10      	pop	{r4, pc}
 800beb6:	bf00      	nop
 800beb8:	20000738 	.word	0x20000738
 800bebc:	0800fe68 	.word	0x0800fe68
 800bec0:	0800fe7f 	.word	0x0800fe7f
 800bec4:	abcd330e 	.word	0xabcd330e
 800bec8:	e66d1234 	.word	0xe66d1234
 800becc:	0005deec 	.word	0x0005deec
 800bed0:	5851f42d 	.word	0x5851f42d
 800bed4:	4c957f2d 	.word	0x4c957f2d

0800bed8 <siprintf>:
 800bed8:	b40e      	push	{r1, r2, r3}
 800beda:	b500      	push	{lr}
 800bedc:	b09c      	sub	sp, #112	; 0x70
 800bede:	ab1d      	add	r3, sp, #116	; 0x74
 800bee0:	9002      	str	r0, [sp, #8]
 800bee2:	9006      	str	r0, [sp, #24]
 800bee4:	f06f 4100 	mvn.w	r1, #2147483648	; 0x80000000
 800bee8:	4809      	ldr	r0, [pc, #36]	; (800bf10 <siprintf+0x38>)
 800beea:	9107      	str	r1, [sp, #28]
 800beec:	9104      	str	r1, [sp, #16]
 800beee:	4909      	ldr	r1, [pc, #36]	; (800bf14 <siprintf+0x3c>)
 800bef0:	f853 2b04 	ldr.w	r2, [r3], #4
 800bef4:	9105      	str	r1, [sp, #20]
 800bef6:	6800      	ldr	r0, [r0, #0]
 800bef8:	9301      	str	r3, [sp, #4]
 800befa:	a902      	add	r1, sp, #8
 800befc:	f001 fc68 	bl	800d7d0 <_svfiprintf_r>
 800bf00:	9b02      	ldr	r3, [sp, #8]
 800bf02:	2200      	movs	r2, #0
 800bf04:	701a      	strb	r2, [r3, #0]
 800bf06:	b01c      	add	sp, #112	; 0x70
 800bf08:	f85d eb04 	ldr.w	lr, [sp], #4
 800bf0c:	b003      	add	sp, #12
 800bf0e:	4770      	bx	lr
 800bf10:	20000738 	.word	0x20000738
 800bf14:	ffff0208 	.word	0xffff0208

0800bf18 <strcat>:
 800bf18:	b510      	push	{r4, lr}
 800bf1a:	4602      	mov	r2, r0
 800bf1c:	7814      	ldrb	r4, [r2, #0]
 800bf1e:	4613      	mov	r3, r2
 800bf20:	3201      	adds	r2, #1
 800bf22:	2c00      	cmp	r4, #0
 800bf24:	d1fa      	bne.n	800bf1c <strcat+0x4>
 800bf26:	3b01      	subs	r3, #1
 800bf28:	f811 2b01 	ldrb.w	r2, [r1], #1
 800bf2c:	f803 2f01 	strb.w	r2, [r3, #1]!
 800bf30:	2a00      	cmp	r2, #0
 800bf32:	d1f9      	bne.n	800bf28 <strcat+0x10>
 800bf34:	bd10      	pop	{r4, pc}

0800bf36 <strcpy>:
 800bf36:	4603      	mov	r3, r0
 800bf38:	f811 2b01 	ldrb.w	r2, [r1], #1
 800bf3c:	f803 2b01 	strb.w	r2, [r3], #1
 800bf40:	2a00      	cmp	r2, #0
 800bf42:	d1f9      	bne.n	800bf38 <strcpy+0x2>
 800bf44:	4770      	bx	lr
	...

0800bf48 <__assert_func>:
 800bf48:	b51f      	push	{r0, r1, r2, r3, r4, lr}
 800bf4a:	4614      	mov	r4, r2
 800bf4c:	461a      	mov	r2, r3
 800bf4e:	4b09      	ldr	r3, [pc, #36]	; (800bf74 <__assert_func+0x2c>)
 800bf50:	681b      	ldr	r3, [r3, #0]
 800bf52:	4605      	mov	r5, r0
 800bf54:	68d8      	ldr	r0, [r3, #12]
 800bf56:	b14c      	cbz	r4, 800bf6c <__assert_func+0x24>
 800bf58:	4b07      	ldr	r3, [pc, #28]	; (800bf78 <__assert_func+0x30>)
 800bf5a:	9100      	str	r1, [sp, #0]
 800bf5c:	e9cd 3401 	strd	r3, r4, [sp, #4]
 800bf60:	4906      	ldr	r1, [pc, #24]	; (800bf7c <__assert_func+0x34>)
 800bf62:	462b      	mov	r3, r5
 800bf64:	f000 ff5e 	bl	800ce24 <fiprintf>
 800bf68:	f001 ffb2 	bl	800ded0 <abort>
 800bf6c:	4b04      	ldr	r3, [pc, #16]	; (800bf80 <__assert_func+0x38>)
 800bf6e:	461c      	mov	r4, r3
 800bf70:	e7f3      	b.n	800bf5a <__assert_func+0x12>
 800bf72:	bf00      	nop
 800bf74:	20000738 	.word	0x20000738
 800bf78:	0800fede 	.word	0x0800fede
 800bf7c:	0800feeb 	.word	0x0800feeb
 800bf80:	0800e7f3 	.word	0x0800e7f3

0800bf84 <quorem>:
 800bf84:	e92d 4ff7 	stmdb	sp!, {r0, r1, r2, r4, r5, r6, r7, r8, r9, sl, fp, lr}
 800bf88:	6903      	ldr	r3, [r0, #16]
 800bf8a:	690c      	ldr	r4, [r1, #16]
 800bf8c:	42a3      	cmp	r3, r4
 800bf8e:	4607      	mov	r7, r0
 800bf90:	f2c0 8081 	blt.w	800c096 <quorem+0x112>
 800bf94:	3c01      	subs	r4, #1
 800bf96:	f101 0814 	add.w	r8, r1, #20
 800bf9a:	f100 0514 	add.w	r5, r0, #20
 800bf9e:	eb05 0384 	add.w	r3, r5, r4, lsl #2
 800bfa2:	9301      	str	r3, [sp, #4]
 800bfa4:	f858 3024 	ldr.w	r3, [r8, r4, lsl #2]
 800bfa8:	f855 2024 	ldr.w	r2, [r5, r4, lsl #2]
 800bfac:	3301      	adds	r3, #1
 800bfae:	429a      	cmp	r2, r3
 800bfb0:	ea4f 0b84 	mov.w	fp, r4, lsl #2
 800bfb4:	eb08 0984 	add.w	r9, r8, r4, lsl #2
 800bfb8:	fbb2 f6f3 	udiv	r6, r2, r3
 800bfbc:	d331      	bcc.n	800c022 <quorem+0x9e>
 800bfbe:	f04f 0e00 	mov.w	lr, #0
 800bfc2:	4640      	mov	r0, r8
 800bfc4:	46ac      	mov	ip, r5
 800bfc6:	46f2      	mov	sl, lr
 800bfc8:	f850 2b04 	ldr.w	r2, [r0], #4
 800bfcc:	b293      	uxth	r3, r2
 800bfce:	fb06 e303 	mla	r3, r6, r3, lr
 800bfd2:	ea4f 4e13 	mov.w	lr, r3, lsr #16
 800bfd6:	b29b      	uxth	r3, r3
 800bfd8:	ebaa 0303 	sub.w	r3, sl, r3
 800bfdc:	0c12      	lsrs	r2, r2, #16
 800bfde:	f8dc a000 	ldr.w	sl, [ip]
 800bfe2:	fb06 e202 	mla	r2, r6, r2, lr
 800bfe6:	fa13 f38a 	uxtah	r3, r3, sl
 800bfea:	ea4f 4e12 	mov.w	lr, r2, lsr #16
 800bfee:	fa1f fa82 	uxth.w	sl, r2
 800bff2:	f8dc 2000 	ldr.w	r2, [ip]
 800bff6:	ebca 4212 	rsb	r2, sl, r2, lsr #16
 800bffa:	eb02 4223 	add.w	r2, r2, r3, asr #16
 800bffe:	b29b      	uxth	r3, r3
 800c000:	ea43 4302 	orr.w	r3, r3, r2, lsl #16
 800c004:	4581      	cmp	r9, r0
 800c006:	f84c 3b04 	str.w	r3, [ip], #4
 800c00a:	ea4f 4a22 	mov.w	sl, r2, asr #16
 800c00e:	d2db      	bcs.n	800bfc8 <quorem+0x44>
 800c010:	f855 300b 	ldr.w	r3, [r5, fp]
 800c014:	b92b      	cbnz	r3, 800c022 <quorem+0x9e>
 800c016:	9b01      	ldr	r3, [sp, #4]
 800c018:	3b04      	subs	r3, #4
 800c01a:	429d      	cmp	r5, r3
 800c01c:	461a      	mov	r2, r3
 800c01e:	d32e      	bcc.n	800c07e <quorem+0xfa>
 800c020:	613c      	str	r4, [r7, #16]
 800c022:	4638      	mov	r0, r7
 800c024:	f001 f9be 	bl	800d3a4 <__mcmp>
 800c028:	2800      	cmp	r0, #0
 800c02a:	db24      	blt.n	800c076 <quorem+0xf2>
 800c02c:	3601      	adds	r6, #1
 800c02e:	4628      	mov	r0, r5
 800c030:	f04f 0c00 	mov.w	ip, #0
 800c034:	f858 2b04 	ldr.w	r2, [r8], #4
 800c038:	f8d0 e000 	ldr.w	lr, [r0]
 800c03c:	b293      	uxth	r3, r2
 800c03e:	ebac 0303 	sub.w	r3, ip, r3
 800c042:	0c12      	lsrs	r2, r2, #16
 800c044:	fa13 f38e 	uxtah	r3, r3, lr
 800c048:	ebc2 421e 	rsb	r2, r2, lr, lsr #16
 800c04c:	eb02 4223 	add.w	r2, r2, r3, asr #16
 800c050:	b29b      	uxth	r3, r3
 800c052:	ea43 4302 	orr.w	r3, r3, r2, lsl #16
 800c056:	45c1      	cmp	r9, r8
 800c058:	f840 3b04 	str.w	r3, [r0], #4
 800c05c:	ea4f 4c22 	mov.w	ip, r2, asr #16
 800c060:	d2e8      	bcs.n	800c034 <quorem+0xb0>
 800c062:	f855 2024 	ldr.w	r2, [r5, r4, lsl #2]
 800c066:	eb05 0384 	add.w	r3, r5, r4, lsl #2
 800c06a:	b922      	cbnz	r2, 800c076 <quorem+0xf2>
 800c06c:	3b04      	subs	r3, #4
 800c06e:	429d      	cmp	r5, r3
 800c070:	461a      	mov	r2, r3
 800c072:	d30a      	bcc.n	800c08a <quorem+0x106>
 800c074:	613c      	str	r4, [r7, #16]
 800c076:	4630      	mov	r0, r6
 800c078:	b003      	add	sp, #12
 800c07a:	e8bd 8ff0 	ldmia.w	sp!, {r4, r5, r6, r7, r8, r9, sl, fp, pc}
 800c07e:	6812      	ldr	r2, [r2, #0]
 800c080:	3b04      	subs	r3, #4
 800c082:	2a00      	cmp	r2, #0
 800c084:	d1cc      	bne.n	800c020 <quorem+0x9c>
 800c086:	3c01      	subs	r4, #1
 800c088:	e7c7      	b.n	800c01a <quorem+0x96>
 800c08a:	6812      	ldr	r2, [r2, #0]
 800c08c:	3b04      	subs	r3, #4
 800c08e:	2a00      	cmp	r2, #0
 800c090:	d1f0      	bne.n	800c074 <quorem+0xf0>
 800c092:	3c01      	subs	r4, #1
 800c094:	e7eb      	b.n	800c06e <quorem+0xea>
 800c096:	2000      	movs	r0, #0
 800c098:	e7ee      	b.n	800c078 <quorem+0xf4>
 800c09a:	0000      	movs	r0, r0
 800c09c:	0000      	movs	r0, r0
	...

0800c0a0 <_dtoa_r>:
 800c0a0:	e92d 4ff0 	stmdb	sp!, {r4, r5, r6, r7, r8, r9, sl, fp, lr}
 800c0a4:	ed2d 8b02 	vpush	{d8}
 800c0a8:	ec57 6b10 	vmov	r6, r7, d0
 800c0ac:	b095      	sub	sp, #84	; 0x54
 800c0ae:	6a45      	ldr	r5, [r0, #36]	; 0x24
 800c0b0:	f8dd 8080 	ldr.w	r8, [sp, #128]	; 0x80
 800c0b4:	9105      	str	r1, [sp, #20]
 800c0b6:	e9cd 6702 	strd	r6, r7, [sp, #8]
 800c0ba:	4604      	mov	r4, r0
 800c0bc:	9209      	str	r2, [sp, #36]	; 0x24
 800c0be:	930f      	str	r3, [sp, #60]	; 0x3c
 800c0c0:	b975      	cbnz	r5, 800c0e0 <_dtoa_r+0x40>
 800c0c2:	2010      	movs	r0, #16
 800c0c4:	f000 fee8 	bl	800ce98 <malloc>
 800c0c8:	4602      	mov	r2, r0
 800c0ca:	6260      	str	r0, [r4, #36]	; 0x24
 800c0cc:	b920      	cbnz	r0, 800c0d8 <_dtoa_r+0x38>
 800c0ce:	4bb2      	ldr	r3, [pc, #712]	; (800c398 <_dtoa_r+0x2f8>)
 800c0d0:	21ea      	movs	r1, #234	; 0xea
 800c0d2:	48b2      	ldr	r0, [pc, #712]	; (800c39c <_dtoa_r+0x2fc>)
 800c0d4:	f7ff ff38 	bl	800bf48 <__assert_func>
 800c0d8:	e9c0 5501 	strd	r5, r5, [r0, #4]
 800c0dc:	6005      	str	r5, [r0, #0]
 800c0de:	60c5      	str	r5, [r0, #12]
 800c0e0:	6a63      	ldr	r3, [r4, #36]	; 0x24
 800c0e2:	6819      	ldr	r1, [r3, #0]
 800c0e4:	b151      	cbz	r1, 800c0fc <_dtoa_r+0x5c>
 800c0e6:	685a      	ldr	r2, [r3, #4]
 800c0e8:	604a      	str	r2, [r1, #4]
 800c0ea:	2301      	movs	r3, #1
 800c0ec:	4093      	lsls	r3, r2
 800c0ee:	608b      	str	r3, [r1, #8]
 800c0f0:	4620      	mov	r0, r4
 800c0f2:	f000 ff19 	bl	800cf28 <_Bfree>
 800c0f6:	6a63      	ldr	r3, [r4, #36]	; 0x24
 800c0f8:	2200      	movs	r2, #0
 800c0fa:	601a      	str	r2, [r3, #0]
 800c0fc:	1e3b      	subs	r3, r7, #0
 800c0fe:	bfb9      	ittee	lt
 800c100:	f023 4300 	biclt.w	r3, r3, #2147483648	; 0x80000000
 800c104:	9303      	strlt	r3, [sp, #12]
 800c106:	2300      	movge	r3, #0
 800c108:	f8c8 3000 	strge.w	r3, [r8]
 800c10c:	f8dd 900c 	ldr.w	r9, [sp, #12]
 800c110:	4ba3      	ldr	r3, [pc, #652]	; (800c3a0 <_dtoa_r+0x300>)
 800c112:	bfbc      	itt	lt
 800c114:	2201      	movlt	r2, #1
 800c116:	f8c8 2000 	strlt.w	r2, [r8]
 800c11a:	ea33 0309 	bics.w	r3, r3, r9
 800c11e:	d11b      	bne.n	800c158 <_dtoa_r+0xb8>
 800c120:	9a0f      	ldr	r2, [sp, #60]	; 0x3c
 800c122:	f242 730f 	movw	r3, #9999	; 0x270f
 800c126:	6013      	str	r3, [r2, #0]
 800c128:	f3c9 0313 	ubfx	r3, r9, #0, #20
 800c12c:	4333      	orrs	r3, r6
 800c12e:	f000 857a 	beq.w	800cc26 <_dtoa_r+0xb86>
 800c132:	9b21      	ldr	r3, [sp, #132]	; 0x84
 800c134:	b963      	cbnz	r3, 800c150 <_dtoa_r+0xb0>
 800c136:	4b9b      	ldr	r3, [pc, #620]	; (800c3a4 <_dtoa_r+0x304>)
 800c138:	e024      	b.n	800c184 <_dtoa_r+0xe4>
 800c13a:	4b9b      	ldr	r3, [pc, #620]	; (800c3a8 <_dtoa_r+0x308>)
 800c13c:	9300      	str	r3, [sp, #0]
 800c13e:	3308      	adds	r3, #8
 800c140:	9a21      	ldr	r2, [sp, #132]	; 0x84
 800c142:	6013      	str	r3, [r2, #0]
 800c144:	9800      	ldr	r0, [sp, #0]
 800c146:	b015      	add	sp, #84	; 0x54
 800c148:	ecbd 8b02 	vpop	{d8}
 800c14c:	e8bd 8ff0 	ldmia.w	sp!, {r4, r5, r6, r7, r8, r9, sl, fp, pc}
 800c150:	4b94      	ldr	r3, [pc, #592]	; (800c3a4 <_dtoa_r+0x304>)
 800c152:	9300      	str	r3, [sp, #0]
 800c154:	3303      	adds	r3, #3
 800c156:	e7f3      	b.n	800c140 <_dtoa_r+0xa0>
 800c158:	ed9d 7b02 	vldr	d7, [sp, #8]
 800c15c:	2200      	movs	r2, #0
 800c15e:	ec51 0b17 	vmov	r0, r1, d7
 800c162:	2300      	movs	r3, #0
 800c164:	ed8d 7b0a 	vstr	d7, [sp, #40]	; 0x28
 800c168:	f7f4 fcae 	bl	8000ac8 <__aeabi_dcmpeq>
 800c16c:	4680      	mov	r8, r0
 800c16e:	b158      	cbz	r0, 800c188 <_dtoa_r+0xe8>
 800c170:	9a0f      	ldr	r2, [sp, #60]	; 0x3c
 800c172:	2301      	movs	r3, #1
 800c174:	6013      	str	r3, [r2, #0]
 800c176:	9b21      	ldr	r3, [sp, #132]	; 0x84
 800c178:	2b00      	cmp	r3, #0
 800c17a:	f000 8551 	beq.w	800cc20 <_dtoa_r+0xb80>
 800c17e:	488b      	ldr	r0, [pc, #556]	; (800c3ac <_dtoa_r+0x30c>)
 800c180:	6018      	str	r0, [r3, #0]
 800c182:	1e43      	subs	r3, r0, #1
 800c184:	9300      	str	r3, [sp, #0]
 800c186:	e7dd      	b.n	800c144 <_dtoa_r+0xa4>
 800c188:	ed9d 0b0a 	vldr	d0, [sp, #40]	; 0x28
 800c18c:	aa12      	add	r2, sp, #72	; 0x48
 800c18e:	a913      	add	r1, sp, #76	; 0x4c
 800c190:	4620      	mov	r0, r4
 800c192:	f001 f9ab 	bl	800d4ec <__d2b>
 800c196:	f3c9 550a 	ubfx	r5, r9, #20, #11
 800c19a:	4683      	mov	fp, r0
 800c19c:	2d00      	cmp	r5, #0
 800c19e:	d07c      	beq.n	800c29a <_dtoa_r+0x1fa>
 800c1a0:	9b0b      	ldr	r3, [sp, #44]	; 0x2c
 800c1a2:	f8cd 8040 	str.w	r8, [sp, #64]	; 0x40
 800c1a6:	f3c3 0313 	ubfx	r3, r3, #0, #20
 800c1aa:	e9dd 670a 	ldrd	r6, r7, [sp, #40]	; 0x28
 800c1ae:	f043 577f 	orr.w	r7, r3, #1069547520	; 0x3fc00000
 800c1b2:	f447 1740 	orr.w	r7, r7, #3145728	; 0x300000
 800c1b6:	f2a5 35ff 	subw	r5, r5, #1023	; 0x3ff
 800c1ba:	4b7d      	ldr	r3, [pc, #500]	; (800c3b0 <_dtoa_r+0x310>)
 800c1bc:	2200      	movs	r2, #0
 800c1be:	4630      	mov	r0, r6
 800c1c0:	4639      	mov	r1, r7
 800c1c2:	f7f4 f861 	bl	8000288 <__aeabi_dsub>
 800c1c6:	a36e      	add	r3, pc, #440	; (adr r3, 800c380 <_dtoa_r+0x2e0>)
 800c1c8:	e9d3 2300 	ldrd	r2, r3, [r3]
 800c1cc:	f7f4 fa14 	bl	80005f8 <__aeabi_dmul>
 800c1d0:	a36d      	add	r3, pc, #436	; (adr r3, 800c388 <_dtoa_r+0x2e8>)
 800c1d2:	e9d3 2300 	ldrd	r2, r3, [r3]
 800c1d6:	f7f4 f859 	bl	800028c <__adddf3>
 800c1da:	4606      	mov	r6, r0
 800c1dc:	4628      	mov	r0, r5
 800c1de:	460f      	mov	r7, r1
 800c1e0:	f7f4 f9a0 	bl	8000524 <__aeabi_i2d>
 800c1e4:	a36a      	add	r3, pc, #424	; (adr r3, 800c390 <_dtoa_r+0x2f0>)
 800c1e6:	e9d3 2300 	ldrd	r2, r3, [r3]
 800c1ea:	f7f4 fa05 	bl	80005f8 <__aeabi_dmul>
 800c1ee:	4602      	mov	r2, r0
 800c1f0:	460b      	mov	r3, r1
 800c1f2:	4630      	mov	r0, r6
 800c1f4:	4639      	mov	r1, r7
 800c1f6:	f7f4 f849 	bl	800028c <__adddf3>
 800c1fa:	4606      	mov	r6, r0
 800c1fc:	460f      	mov	r7, r1
 800c1fe:	f7f4 fcab 	bl	8000b58 <__aeabi_d2iz>
 800c202:	2200      	movs	r2, #0
 800c204:	4682      	mov	sl, r0
 800c206:	2300      	movs	r3, #0
 800c208:	4630      	mov	r0, r6
 800c20a:	4639      	mov	r1, r7
 800c20c:	f7f4 fc66 	bl	8000adc <__aeabi_dcmplt>
 800c210:	b148      	cbz	r0, 800c226 <_dtoa_r+0x186>
 800c212:	4650      	mov	r0, sl
 800c214:	f7f4 f986 	bl	8000524 <__aeabi_i2d>
 800c218:	4632      	mov	r2, r6
 800c21a:	463b      	mov	r3, r7
 800c21c:	f7f4 fc54 	bl	8000ac8 <__aeabi_dcmpeq>
 800c220:	b908      	cbnz	r0, 800c226 <_dtoa_r+0x186>
 800c222:	f10a 3aff 	add.w	sl, sl, #4294967295
 800c226:	f1ba 0f16 	cmp.w	sl, #22
 800c22a:	d854      	bhi.n	800c2d6 <_dtoa_r+0x236>
 800c22c:	4b61      	ldr	r3, [pc, #388]	; (800c3b4 <_dtoa_r+0x314>)
 800c22e:	eb03 03ca 	add.w	r3, r3, sl, lsl #3
 800c232:	e9d3 2300 	ldrd	r2, r3, [r3]
 800c236:	e9dd 010a 	ldrd	r0, r1, [sp, #40]	; 0x28
 800c23a:	f7f4 fc4f 	bl	8000adc <__aeabi_dcmplt>
 800c23e:	2800      	cmp	r0, #0
 800c240:	d04b      	beq.n	800c2da <_dtoa_r+0x23a>
 800c242:	f10a 3aff 	add.w	sl, sl, #4294967295
 800c246:	2300      	movs	r3, #0
 800c248:	930e      	str	r3, [sp, #56]	; 0x38
 800c24a:	9b12      	ldr	r3, [sp, #72]	; 0x48
 800c24c:	1b5d      	subs	r5, r3, r5
 800c24e:	1e6b      	subs	r3, r5, #1
 800c250:	9304      	str	r3, [sp, #16]
 800c252:	bf43      	ittte	mi
 800c254:	2300      	movmi	r3, #0
 800c256:	f1c5 0801 	rsbmi	r8, r5, #1
 800c25a:	9304      	strmi	r3, [sp, #16]
 800c25c:	f04f 0800 	movpl.w	r8, #0
 800c260:	f1ba 0f00 	cmp.w	sl, #0
 800c264:	db3b      	blt.n	800c2de <_dtoa_r+0x23e>
 800c266:	9b04      	ldr	r3, [sp, #16]
 800c268:	f8cd a034 	str.w	sl, [sp, #52]	; 0x34
 800c26c:	4453      	add	r3, sl
 800c26e:	9304      	str	r3, [sp, #16]
 800c270:	2300      	movs	r3, #0
 800c272:	9306      	str	r3, [sp, #24]
 800c274:	9b05      	ldr	r3, [sp, #20]
 800c276:	2b09      	cmp	r3, #9
 800c278:	d869      	bhi.n	800c34e <_dtoa_r+0x2ae>
 800c27a:	2b05      	cmp	r3, #5
 800c27c:	bfc4      	itt	gt
 800c27e:	3b04      	subgt	r3, #4
 800c280:	9305      	strgt	r3, [sp, #20]
 800c282:	9b05      	ldr	r3, [sp, #20]
 800c284:	f1a3 0302 	sub.w	r3, r3, #2
 800c288:	bfcc      	ite	gt
 800c28a:	2500      	movgt	r5, #0
 800c28c:	2501      	movle	r5, #1
 800c28e:	2b03      	cmp	r3, #3
 800c290:	d869      	bhi.n	800c366 <_dtoa_r+0x2c6>
 800c292:	e8df f003 	tbb	[pc, r3]
 800c296:	4e2c      	.short	0x4e2c
 800c298:	5a4c      	.short	0x5a4c
 800c29a:	e9dd 5312 	ldrd	r5, r3, [sp, #72]	; 0x48
 800c29e:	441d      	add	r5, r3
 800c2a0:	f205 4332 	addw	r3, r5, #1074	; 0x432
 800c2a4:	2b20      	cmp	r3, #32
 800c2a6:	bfc1      	itttt	gt
 800c2a8:	f1c3 0340 	rsbgt	r3, r3, #64	; 0x40
 800c2ac:	f205 4012 	addwgt	r0, r5, #1042	; 0x412
 800c2b0:	fa09 f303 	lslgt.w	r3, r9, r3
 800c2b4:	fa26 f000 	lsrgt.w	r0, r6, r0
 800c2b8:	bfda      	itte	le
 800c2ba:	f1c3 0320 	rsble	r3, r3, #32
 800c2be:	fa06 f003 	lslle.w	r0, r6, r3
 800c2c2:	4318      	orrgt	r0, r3
 800c2c4:	f7f4 f91e 	bl	8000504 <__aeabi_ui2d>
 800c2c8:	2301      	movs	r3, #1
 800c2ca:	4606      	mov	r6, r0
 800c2cc:	f1a1 77f8 	sub.w	r7, r1, #32505856	; 0x1f00000
 800c2d0:	3d01      	subs	r5, #1
 800c2d2:	9310      	str	r3, [sp, #64]	; 0x40
 800c2d4:	e771      	b.n	800c1ba <_dtoa_r+0x11a>
 800c2d6:	2301      	movs	r3, #1
 800c2d8:	e7b6      	b.n	800c248 <_dtoa_r+0x1a8>
 800c2da:	900e      	str	r0, [sp, #56]	; 0x38
 800c2dc:	e7b5      	b.n	800c24a <_dtoa_r+0x1aa>
 800c2de:	f1ca 0300 	rsb	r3, sl, #0
 800c2e2:	9306      	str	r3, [sp, #24]
 800c2e4:	2300      	movs	r3, #0
 800c2e6:	eba8 080a 	sub.w	r8, r8, sl
 800c2ea:	930d      	str	r3, [sp, #52]	; 0x34
 800c2ec:	e7c2      	b.n	800c274 <_dtoa_r+0x1d4>
 800c2ee:	2300      	movs	r3, #0
 800c2f0:	9308      	str	r3, [sp, #32]
 800c2f2:	9b09      	ldr	r3, [sp, #36]	; 0x24
 800c2f4:	2b00      	cmp	r3, #0
 800c2f6:	dc39      	bgt.n	800c36c <_dtoa_r+0x2cc>
 800c2f8:	f04f 0901 	mov.w	r9, #1
 800c2fc:	f8cd 9004 	str.w	r9, [sp, #4]
 800c300:	464b      	mov	r3, r9
 800c302:	f8cd 9024 	str.w	r9, [sp, #36]	; 0x24
 800c306:	6a60      	ldr	r0, [r4, #36]	; 0x24
 800c308:	2200      	movs	r2, #0
 800c30a:	6042      	str	r2, [r0, #4]
 800c30c:	2204      	movs	r2, #4
 800c30e:	f102 0614 	add.w	r6, r2, #20
 800c312:	429e      	cmp	r6, r3
 800c314:	6841      	ldr	r1, [r0, #4]
 800c316:	d92f      	bls.n	800c378 <_dtoa_r+0x2d8>
 800c318:	4620      	mov	r0, r4
 800c31a:	f000 fdc5 	bl	800cea8 <_Balloc>
 800c31e:	9000      	str	r0, [sp, #0]
 800c320:	2800      	cmp	r0, #0
 800c322:	d14b      	bne.n	800c3bc <_dtoa_r+0x31c>
 800c324:	4b24      	ldr	r3, [pc, #144]	; (800c3b8 <_dtoa_r+0x318>)
 800c326:	4602      	mov	r2, r0
 800c328:	f44f 71d5 	mov.w	r1, #426	; 0x1aa
 800c32c:	e6d1      	b.n	800c0d2 <_dtoa_r+0x32>
 800c32e:	2301      	movs	r3, #1
 800c330:	e7de      	b.n	800c2f0 <_dtoa_r+0x250>
 800c332:	2300      	movs	r3, #0
 800c334:	9308      	str	r3, [sp, #32]
 800c336:	9b09      	ldr	r3, [sp, #36]	; 0x24
 800c338:	eb0a 0903 	add.w	r9, sl, r3
 800c33c:	f109 0301 	add.w	r3, r9, #1
 800c340:	2b01      	cmp	r3, #1
 800c342:	9301      	str	r3, [sp, #4]
 800c344:	bfb8      	it	lt
 800c346:	2301      	movlt	r3, #1
 800c348:	e7dd      	b.n	800c306 <_dtoa_r+0x266>
 800c34a:	2301      	movs	r3, #1
 800c34c:	e7f2      	b.n	800c334 <_dtoa_r+0x294>
 800c34e:	2501      	movs	r5, #1
 800c350:	2300      	movs	r3, #0
 800c352:	9305      	str	r3, [sp, #20]
 800c354:	9508      	str	r5, [sp, #32]
 800c356:	f04f 39ff 	mov.w	r9, #4294967295
 800c35a:	2200      	movs	r2, #0
 800c35c:	f8cd 9004 	str.w	r9, [sp, #4]
 800c360:	2312      	movs	r3, #18
 800c362:	9209      	str	r2, [sp, #36]	; 0x24
 800c364:	e7cf      	b.n	800c306 <_dtoa_r+0x266>
 800c366:	2301      	movs	r3, #1
 800c368:	9308      	str	r3, [sp, #32]
 800c36a:	e7f4      	b.n	800c356 <_dtoa_r+0x2b6>
 800c36c:	f8dd 9024 	ldr.w	r9, [sp, #36]	; 0x24
 800c370:	f8cd 9004 	str.w	r9, [sp, #4]
 800c374:	464b      	mov	r3, r9
 800c376:	e7c6      	b.n	800c306 <_dtoa_r+0x266>
 800c378:	3101      	adds	r1, #1
 800c37a:	6041      	str	r1, [r0, #4]
 800c37c:	0052      	lsls	r2, r2, #1
 800c37e:	e7c6      	b.n	800c30e <_dtoa_r+0x26e>
 800c380:	636f4361 	.word	0x636f4361
 800c384:	3fd287a7 	.word	0x3fd287a7
 800c388:	8b60c8b3 	.word	0x8b60c8b3
 800c38c:	3fc68a28 	.word	0x3fc68a28
 800c390:	509f79fb 	.word	0x509f79fb
 800c394:	3fd34413 	.word	0x3fd34413
 800c398:	0800fe68 	.word	0x0800fe68
 800c39c:	0800ff27 	.word	0x0800ff27
 800c3a0:	7ff00000 	.word	0x7ff00000
 800c3a4:	0800ff23 	.word	0x0800ff23
 800c3a8:	0800ff1a 	.word	0x0800ff1a
 800c3ac:	0800fe45 	.word	0x0800fe45
 800c3b0:	3ff80000 	.word	0x3ff80000
 800c3b4:	08010080 	.word	0x08010080
 800c3b8:	0800ff86 	.word	0x0800ff86
 800c3bc:	6a63      	ldr	r3, [r4, #36]	; 0x24
 800c3be:	9a00      	ldr	r2, [sp, #0]
 800c3c0:	601a      	str	r2, [r3, #0]
 800c3c2:	9b01      	ldr	r3, [sp, #4]
 800c3c4:	2b0e      	cmp	r3, #14
 800c3c6:	f200 80ad 	bhi.w	800c524 <_dtoa_r+0x484>
 800c3ca:	2d00      	cmp	r5, #0
 800c3cc:	f000 80aa 	beq.w	800c524 <_dtoa_r+0x484>
 800c3d0:	f1ba 0f00 	cmp.w	sl, #0
 800c3d4:	dd36      	ble.n	800c444 <_dtoa_r+0x3a4>
 800c3d6:	4ac3      	ldr	r2, [pc, #780]	; (800c6e4 <_dtoa_r+0x644>)
 800c3d8:	f00a 030f 	and.w	r3, sl, #15
 800c3dc:	eb02 03c3 	add.w	r3, r2, r3, lsl #3
 800c3e0:	ed93 7b00 	vldr	d7, [r3]
 800c3e4:	f41a 7f80 	tst.w	sl, #256	; 0x100
 800c3e8:	ea4f 172a 	mov.w	r7, sl, asr #4
 800c3ec:	eeb0 8a47 	vmov.f32	s16, s14
 800c3f0:	eef0 8a67 	vmov.f32	s17, s15
 800c3f4:	d016      	beq.n	800c424 <_dtoa_r+0x384>
 800c3f6:	4bbc      	ldr	r3, [pc, #752]	; (800c6e8 <_dtoa_r+0x648>)
 800c3f8:	e9dd 010a 	ldrd	r0, r1, [sp, #40]	; 0x28
 800c3fc:	e9d3 2308 	ldrd	r2, r3, [r3, #32]
 800c400:	f7f4 fa24 	bl	800084c <__aeabi_ddiv>
 800c404:	e9cd 0102 	strd	r0, r1, [sp, #8]
 800c408:	f007 070f 	and.w	r7, r7, #15
 800c40c:	2503      	movs	r5, #3
 800c40e:	4eb6      	ldr	r6, [pc, #728]	; (800c6e8 <_dtoa_r+0x648>)
 800c410:	b957      	cbnz	r7, 800c428 <_dtoa_r+0x388>
 800c412:	e9dd 0102 	ldrd	r0, r1, [sp, #8]
 800c416:	ec53 2b18 	vmov	r2, r3, d8
 800c41a:	f7f4 fa17 	bl	800084c <__aeabi_ddiv>
 800c41e:	e9cd 0102 	strd	r0, r1, [sp, #8]
 800c422:	e029      	b.n	800c478 <_dtoa_r+0x3d8>
 800c424:	2502      	movs	r5, #2
 800c426:	e7f2      	b.n	800c40e <_dtoa_r+0x36e>
 800c428:	07f9      	lsls	r1, r7, #31
 800c42a:	d508      	bpl.n	800c43e <_dtoa_r+0x39e>
 800c42c:	ec51 0b18 	vmov	r0, r1, d8
 800c430:	e9d6 2300 	ldrd	r2, r3, [r6]
 800c434:	f7f4 f8e0 	bl	80005f8 <__aeabi_dmul>
 800c438:	ec41 0b18 	vmov	d8, r0, r1
 800c43c:	3501      	adds	r5, #1
 800c43e:	107f      	asrs	r7, r7, #1
 800c440:	3608      	adds	r6, #8
 800c442:	e7e5      	b.n	800c410 <_dtoa_r+0x370>
 800c444:	f000 80a6 	beq.w	800c594 <_dtoa_r+0x4f4>
 800c448:	f1ca 0600 	rsb	r6, sl, #0
 800c44c:	4ba5      	ldr	r3, [pc, #660]	; (800c6e4 <_dtoa_r+0x644>)
 800c44e:	4fa6      	ldr	r7, [pc, #664]	; (800c6e8 <_dtoa_r+0x648>)
 800c450:	f006 020f 	and.w	r2, r6, #15
 800c454:	eb03 03c2 	add.w	r3, r3, r2, lsl #3
 800c458:	e9d3 2300 	ldrd	r2, r3, [r3]
 800c45c:	e9dd 010a 	ldrd	r0, r1, [sp, #40]	; 0x28
 800c460:	f7f4 f8ca 	bl	80005f8 <__aeabi_dmul>
 800c464:	e9cd 0102 	strd	r0, r1, [sp, #8]
 800c468:	1136      	asrs	r6, r6, #4
 800c46a:	2300      	movs	r3, #0
 800c46c:	2502      	movs	r5, #2
 800c46e:	2e00      	cmp	r6, #0
 800c470:	f040 8085 	bne.w	800c57e <_dtoa_r+0x4de>
 800c474:	2b00      	cmp	r3, #0
 800c476:	d1d2      	bne.n	800c41e <_dtoa_r+0x37e>
 800c478:	9b0e      	ldr	r3, [sp, #56]	; 0x38
 800c47a:	2b00      	cmp	r3, #0
 800c47c:	f000 808c 	beq.w	800c598 <_dtoa_r+0x4f8>
 800c480:	e9dd 6702 	ldrd	r6, r7, [sp, #8]
 800c484:	4b99      	ldr	r3, [pc, #612]	; (800c6ec <_dtoa_r+0x64c>)
 800c486:	2200      	movs	r2, #0
 800c488:	4630      	mov	r0, r6
 800c48a:	4639      	mov	r1, r7
 800c48c:	f7f4 fb26 	bl	8000adc <__aeabi_dcmplt>
 800c490:	2800      	cmp	r0, #0
 800c492:	f000 8081 	beq.w	800c598 <_dtoa_r+0x4f8>
 800c496:	9b01      	ldr	r3, [sp, #4]
 800c498:	2b00      	cmp	r3, #0
 800c49a:	d07d      	beq.n	800c598 <_dtoa_r+0x4f8>
 800c49c:	f1b9 0f00 	cmp.w	r9, #0
 800c4a0:	dd3c      	ble.n	800c51c <_dtoa_r+0x47c>
 800c4a2:	f10a 33ff 	add.w	r3, sl, #4294967295
 800c4a6:	9307      	str	r3, [sp, #28]
 800c4a8:	2200      	movs	r2, #0
 800c4aa:	4b91      	ldr	r3, [pc, #580]	; (800c6f0 <_dtoa_r+0x650>)
 800c4ac:	4630      	mov	r0, r6
 800c4ae:	4639      	mov	r1, r7
 800c4b0:	f7f4 f8a2 	bl	80005f8 <__aeabi_dmul>
 800c4b4:	e9cd 0102 	strd	r0, r1, [sp, #8]
 800c4b8:	3501      	adds	r5, #1
 800c4ba:	f8cd 9030 	str.w	r9, [sp, #48]	; 0x30
 800c4be:	e9dd 6702 	ldrd	r6, r7, [sp, #8]
 800c4c2:	4628      	mov	r0, r5
 800c4c4:	f7f4 f82e 	bl	8000524 <__aeabi_i2d>
 800c4c8:	4632      	mov	r2, r6
 800c4ca:	463b      	mov	r3, r7
 800c4cc:	f7f4 f894 	bl	80005f8 <__aeabi_dmul>
 800c4d0:	4b88      	ldr	r3, [pc, #544]	; (800c6f4 <_dtoa_r+0x654>)
 800c4d2:	2200      	movs	r2, #0
 800c4d4:	f7f3 feda 	bl	800028c <__adddf3>
 800c4d8:	f1a1 7350 	sub.w	r3, r1, #54525952	; 0x3400000
 800c4dc:	e9cd 0102 	strd	r0, r1, [sp, #8]
 800c4e0:	9303      	str	r3, [sp, #12]
 800c4e2:	9b0c      	ldr	r3, [sp, #48]	; 0x30
 800c4e4:	2b00      	cmp	r3, #0
 800c4e6:	d15c      	bne.n	800c5a2 <_dtoa_r+0x502>
 800c4e8:	4b83      	ldr	r3, [pc, #524]	; (800c6f8 <_dtoa_r+0x658>)
 800c4ea:	2200      	movs	r2, #0
 800c4ec:	4630      	mov	r0, r6
 800c4ee:	4639      	mov	r1, r7
 800c4f0:	f7f3 feca 	bl	8000288 <__aeabi_dsub>
 800c4f4:	e9dd 2302 	ldrd	r2, r3, [sp, #8]
 800c4f8:	4606      	mov	r6, r0
 800c4fa:	460f      	mov	r7, r1
 800c4fc:	f7f4 fb0c 	bl	8000b18 <__aeabi_dcmpgt>
 800c500:	2800      	cmp	r0, #0
 800c502:	f040 8296 	bne.w	800ca32 <_dtoa_r+0x992>
 800c506:	e9dd 2102 	ldrd	r2, r1, [sp, #8]
 800c50a:	4630      	mov	r0, r6
 800c50c:	f101 4300 	add.w	r3, r1, #2147483648	; 0x80000000
 800c510:	4639      	mov	r1, r7
 800c512:	f7f4 fae3 	bl	8000adc <__aeabi_dcmplt>
 800c516:	2800      	cmp	r0, #0
 800c518:	f040 8288 	bne.w	800ca2c <_dtoa_r+0x98c>
 800c51c:	e9dd 230a 	ldrd	r2, r3, [sp, #40]	; 0x28
 800c520:	e9cd 2302 	strd	r2, r3, [sp, #8]
 800c524:	9b13      	ldr	r3, [sp, #76]	; 0x4c
 800c526:	2b00      	cmp	r3, #0
 800c528:	f2c0 8158 	blt.w	800c7dc <_dtoa_r+0x73c>
 800c52c:	f1ba 0f0e 	cmp.w	sl, #14
 800c530:	f300 8154 	bgt.w	800c7dc <_dtoa_r+0x73c>
 800c534:	4b6b      	ldr	r3, [pc, #428]	; (800c6e4 <_dtoa_r+0x644>)
 800c536:	eb03 03ca 	add.w	r3, r3, sl, lsl #3
 800c53a:	e9d3 8900 	ldrd	r8, r9, [r3]
 800c53e:	9b09      	ldr	r3, [sp, #36]	; 0x24
 800c540:	2b00      	cmp	r3, #0
 800c542:	f280 80e3 	bge.w	800c70c <_dtoa_r+0x66c>
 800c546:	9b01      	ldr	r3, [sp, #4]
 800c548:	2b00      	cmp	r3, #0
 800c54a:	f300 80df 	bgt.w	800c70c <_dtoa_r+0x66c>
 800c54e:	f040 826d 	bne.w	800ca2c <_dtoa_r+0x98c>
 800c552:	4b69      	ldr	r3, [pc, #420]	; (800c6f8 <_dtoa_r+0x658>)
 800c554:	2200      	movs	r2, #0
 800c556:	4640      	mov	r0, r8
 800c558:	4649      	mov	r1, r9
 800c55a:	f7f4 f84d 	bl	80005f8 <__aeabi_dmul>
 800c55e:	e9dd 2302 	ldrd	r2, r3, [sp, #8]
 800c562:	f7f4 facf 	bl	8000b04 <__aeabi_dcmpge>
 800c566:	9e01      	ldr	r6, [sp, #4]
 800c568:	4637      	mov	r7, r6
 800c56a:	2800      	cmp	r0, #0
 800c56c:	f040 8243 	bne.w	800c9f6 <_dtoa_r+0x956>
 800c570:	9d00      	ldr	r5, [sp, #0]
 800c572:	2331      	movs	r3, #49	; 0x31
 800c574:	f805 3b01 	strb.w	r3, [r5], #1
 800c578:	f10a 0a01 	add.w	sl, sl, #1
 800c57c:	e23f      	b.n	800c9fe <_dtoa_r+0x95e>
 800c57e:	07f2      	lsls	r2, r6, #31
 800c580:	d505      	bpl.n	800c58e <_dtoa_r+0x4ee>
 800c582:	e9d7 2300 	ldrd	r2, r3, [r7]
 800c586:	f7f4 f837 	bl	80005f8 <__aeabi_dmul>
 800c58a:	3501      	adds	r5, #1
 800c58c:	2301      	movs	r3, #1
 800c58e:	1076      	asrs	r6, r6, #1
 800c590:	3708      	adds	r7, #8
 800c592:	e76c      	b.n	800c46e <_dtoa_r+0x3ce>
 800c594:	2502      	movs	r5, #2
 800c596:	e76f      	b.n	800c478 <_dtoa_r+0x3d8>
 800c598:	9b01      	ldr	r3, [sp, #4]
 800c59a:	f8cd a01c 	str.w	sl, [sp, #28]
 800c59e:	930c      	str	r3, [sp, #48]	; 0x30
 800c5a0:	e78d      	b.n	800c4be <_dtoa_r+0x41e>
 800c5a2:	9900      	ldr	r1, [sp, #0]
 800c5a4:	980c      	ldr	r0, [sp, #48]	; 0x30
 800c5a6:	9a0c      	ldr	r2, [sp, #48]	; 0x30
 800c5a8:	4b4e      	ldr	r3, [pc, #312]	; (800c6e4 <_dtoa_r+0x644>)
 800c5aa:	ed9d 7b02 	vldr	d7, [sp, #8]
 800c5ae:	4401      	add	r1, r0
 800c5b0:	9102      	str	r1, [sp, #8]
 800c5b2:	9908      	ldr	r1, [sp, #32]
 800c5b4:	eeb0 8a47 	vmov.f32	s16, s14
 800c5b8:	eef0 8a67 	vmov.f32	s17, s15
 800c5bc:	eb03 03c2 	add.w	r3, r3, r2, lsl #3
 800c5c0:	e953 2302 	ldrd	r2, r3, [r3, #-8]
 800c5c4:	2900      	cmp	r1, #0
 800c5c6:	d045      	beq.n	800c654 <_dtoa_r+0x5b4>
 800c5c8:	494c      	ldr	r1, [pc, #304]	; (800c6fc <_dtoa_r+0x65c>)
 800c5ca:	2000      	movs	r0, #0
 800c5cc:	f7f4 f93e 	bl	800084c <__aeabi_ddiv>
 800c5d0:	ec53 2b18 	vmov	r2, r3, d8
 800c5d4:	f7f3 fe58 	bl	8000288 <__aeabi_dsub>
 800c5d8:	9d00      	ldr	r5, [sp, #0]
 800c5da:	ec41 0b18 	vmov	d8, r0, r1
 800c5de:	4639      	mov	r1, r7
 800c5e0:	4630      	mov	r0, r6
 800c5e2:	f7f4 fab9 	bl	8000b58 <__aeabi_d2iz>
 800c5e6:	900c      	str	r0, [sp, #48]	; 0x30
 800c5e8:	f7f3 ff9c 	bl	8000524 <__aeabi_i2d>
 800c5ec:	4602      	mov	r2, r0
 800c5ee:	460b      	mov	r3, r1
 800c5f0:	4630      	mov	r0, r6
 800c5f2:	4639      	mov	r1, r7
 800c5f4:	f7f3 fe48 	bl	8000288 <__aeabi_dsub>
 800c5f8:	9b0c      	ldr	r3, [sp, #48]	; 0x30
 800c5fa:	3330      	adds	r3, #48	; 0x30
 800c5fc:	f805 3b01 	strb.w	r3, [r5], #1
 800c600:	ec53 2b18 	vmov	r2, r3, d8
 800c604:	4606      	mov	r6, r0
 800c606:	460f      	mov	r7, r1
 800c608:	f7f4 fa68 	bl	8000adc <__aeabi_dcmplt>
 800c60c:	2800      	cmp	r0, #0
 800c60e:	d165      	bne.n	800c6dc <_dtoa_r+0x63c>
 800c610:	4632      	mov	r2, r6
 800c612:	463b      	mov	r3, r7
 800c614:	4935      	ldr	r1, [pc, #212]	; (800c6ec <_dtoa_r+0x64c>)
 800c616:	2000      	movs	r0, #0
 800c618:	f7f3 fe36 	bl	8000288 <__aeabi_dsub>
 800c61c:	ec53 2b18 	vmov	r2, r3, d8
 800c620:	f7f4 fa5c 	bl	8000adc <__aeabi_dcmplt>
 800c624:	2800      	cmp	r0, #0
 800c626:	f040 80b9 	bne.w	800c79c <_dtoa_r+0x6fc>
 800c62a:	9b02      	ldr	r3, [sp, #8]
 800c62c:	429d      	cmp	r5, r3
 800c62e:	f43f af75 	beq.w	800c51c <_dtoa_r+0x47c>
 800c632:	4b2f      	ldr	r3, [pc, #188]	; (800c6f0 <_dtoa_r+0x650>)
 800c634:	ec51 0b18 	vmov	r0, r1, d8
 800c638:	2200      	movs	r2, #0
 800c63a:	f7f3 ffdd 	bl	80005f8 <__aeabi_dmul>
 800c63e:	4b2c      	ldr	r3, [pc, #176]	; (800c6f0 <_dtoa_r+0x650>)
 800c640:	ec41 0b18 	vmov	d8, r0, r1
 800c644:	2200      	movs	r2, #0
 800c646:	4630      	mov	r0, r6
 800c648:	4639      	mov	r1, r7
 800c64a:	f7f3 ffd5 	bl	80005f8 <__aeabi_dmul>
 800c64e:	4606      	mov	r6, r0
 800c650:	460f      	mov	r7, r1
 800c652:	e7c4      	b.n	800c5de <_dtoa_r+0x53e>
 800c654:	ec51 0b17 	vmov	r0, r1, d7
 800c658:	f7f3 ffce 	bl	80005f8 <__aeabi_dmul>
 800c65c:	9b02      	ldr	r3, [sp, #8]
 800c65e:	9d00      	ldr	r5, [sp, #0]
 800c660:	930c      	str	r3, [sp, #48]	; 0x30
 800c662:	ec41 0b18 	vmov	d8, r0, r1
 800c666:	4639      	mov	r1, r7
 800c668:	4630      	mov	r0, r6
 800c66a:	f7f4 fa75 	bl	8000b58 <__aeabi_d2iz>
 800c66e:	9011      	str	r0, [sp, #68]	; 0x44
 800c670:	f7f3 ff58 	bl	8000524 <__aeabi_i2d>
 800c674:	4602      	mov	r2, r0
 800c676:	460b      	mov	r3, r1
 800c678:	4630      	mov	r0, r6
 800c67a:	4639      	mov	r1, r7
 800c67c:	f7f3 fe04 	bl	8000288 <__aeabi_dsub>
 800c680:	9b11      	ldr	r3, [sp, #68]	; 0x44
 800c682:	3330      	adds	r3, #48	; 0x30
 800c684:	f805 3b01 	strb.w	r3, [r5], #1
 800c688:	9b02      	ldr	r3, [sp, #8]
 800c68a:	429d      	cmp	r5, r3
 800c68c:	4606      	mov	r6, r0
 800c68e:	460f      	mov	r7, r1
 800c690:	f04f 0200 	mov.w	r2, #0
 800c694:	d134      	bne.n	800c700 <_dtoa_r+0x660>
 800c696:	4b19      	ldr	r3, [pc, #100]	; (800c6fc <_dtoa_r+0x65c>)
 800c698:	ec51 0b18 	vmov	r0, r1, d8
 800c69c:	f7f3 fdf6 	bl	800028c <__adddf3>
 800c6a0:	4602      	mov	r2, r0
 800c6a2:	460b      	mov	r3, r1
 800c6a4:	4630      	mov	r0, r6
 800c6a6:	4639      	mov	r1, r7
 800c6a8:	f7f4 fa36 	bl	8000b18 <__aeabi_dcmpgt>
 800c6ac:	2800      	cmp	r0, #0
 800c6ae:	d175      	bne.n	800c79c <_dtoa_r+0x6fc>
 800c6b0:	ec53 2b18 	vmov	r2, r3, d8
 800c6b4:	4911      	ldr	r1, [pc, #68]	; (800c6fc <_dtoa_r+0x65c>)
 800c6b6:	2000      	movs	r0, #0
 800c6b8:	f7f3 fde6 	bl	8000288 <__aeabi_dsub>
 800c6bc:	4602      	mov	r2, r0
 800c6be:	460b      	mov	r3, r1
 800c6c0:	4630      	mov	r0, r6
 800c6c2:	4639      	mov	r1, r7
 800c6c4:	f7f4 fa0a 	bl	8000adc <__aeabi_dcmplt>
 800c6c8:	2800      	cmp	r0, #0
 800c6ca:	f43f af27 	beq.w	800c51c <_dtoa_r+0x47c>
 800c6ce:	9d0c      	ldr	r5, [sp, #48]	; 0x30
 800c6d0:	1e6b      	subs	r3, r5, #1
 800c6d2:	930c      	str	r3, [sp, #48]	; 0x30
 800c6d4:	f815 3c01 	ldrb.w	r3, [r5, #-1]
 800c6d8:	2b30      	cmp	r3, #48	; 0x30
 800c6da:	d0f8      	beq.n	800c6ce <_dtoa_r+0x62e>
 800c6dc:	f8dd a01c 	ldr.w	sl, [sp, #28]
 800c6e0:	e04a      	b.n	800c778 <_dtoa_r+0x6d8>
 800c6e2:	bf00      	nop
 800c6e4:	08010080 	.word	0x08010080
 800c6e8:	08010058 	.word	0x08010058
 800c6ec:	3ff00000 	.word	0x3ff00000
 800c6f0:	40240000 	.word	0x40240000
 800c6f4:	401c0000 	.word	0x401c0000
 800c6f8:	40140000 	.word	0x40140000
 800c6fc:	3fe00000 	.word	0x3fe00000
 800c700:	4baf      	ldr	r3, [pc, #700]	; (800c9c0 <_dtoa_r+0x920>)
 800c702:	f7f3 ff79 	bl	80005f8 <__aeabi_dmul>
 800c706:	4606      	mov	r6, r0
 800c708:	460f      	mov	r7, r1
 800c70a:	e7ac      	b.n	800c666 <_dtoa_r+0x5c6>
 800c70c:	e9dd 6702 	ldrd	r6, r7, [sp, #8]
 800c710:	9d00      	ldr	r5, [sp, #0]
 800c712:	4642      	mov	r2, r8
 800c714:	464b      	mov	r3, r9
 800c716:	4630      	mov	r0, r6
 800c718:	4639      	mov	r1, r7
 800c71a:	f7f4 f897 	bl	800084c <__aeabi_ddiv>
 800c71e:	f7f4 fa1b 	bl	8000b58 <__aeabi_d2iz>
 800c722:	9002      	str	r0, [sp, #8]
 800c724:	f7f3 fefe 	bl	8000524 <__aeabi_i2d>
 800c728:	4642      	mov	r2, r8
 800c72a:	464b      	mov	r3, r9
 800c72c:	f7f3 ff64 	bl	80005f8 <__aeabi_dmul>
 800c730:	4602      	mov	r2, r0
 800c732:	460b      	mov	r3, r1
 800c734:	4630      	mov	r0, r6
 800c736:	4639      	mov	r1, r7
 800c738:	f7f3 fda6 	bl	8000288 <__aeabi_dsub>
 800c73c:	9e02      	ldr	r6, [sp, #8]
 800c73e:	9f01      	ldr	r7, [sp, #4]
 800c740:	3630      	adds	r6, #48	; 0x30
 800c742:	f805 6b01 	strb.w	r6, [r5], #1
 800c746:	9e00      	ldr	r6, [sp, #0]
 800c748:	1bae      	subs	r6, r5, r6
 800c74a:	42b7      	cmp	r7, r6
 800c74c:	4602      	mov	r2, r0
 800c74e:	460b      	mov	r3, r1
 800c750:	d137      	bne.n	800c7c2 <_dtoa_r+0x722>
 800c752:	f7f3 fd9b 	bl	800028c <__adddf3>
 800c756:	4642      	mov	r2, r8
 800c758:	464b      	mov	r3, r9
 800c75a:	4606      	mov	r6, r0
 800c75c:	460f      	mov	r7, r1
 800c75e:	f7f4 f9db 	bl	8000b18 <__aeabi_dcmpgt>
 800c762:	b9c8      	cbnz	r0, 800c798 <_dtoa_r+0x6f8>
 800c764:	4642      	mov	r2, r8
 800c766:	464b      	mov	r3, r9
 800c768:	4630      	mov	r0, r6
 800c76a:	4639      	mov	r1, r7
 800c76c:	f7f4 f9ac 	bl	8000ac8 <__aeabi_dcmpeq>
 800c770:	b110      	cbz	r0, 800c778 <_dtoa_r+0x6d8>
 800c772:	9b02      	ldr	r3, [sp, #8]
 800c774:	07d9      	lsls	r1, r3, #31
 800c776:	d40f      	bmi.n	800c798 <_dtoa_r+0x6f8>
 800c778:	4620      	mov	r0, r4
 800c77a:	4659      	mov	r1, fp
 800c77c:	f000 fbd4 	bl	800cf28 <_Bfree>
 800c780:	2300      	movs	r3, #0
 800c782:	702b      	strb	r3, [r5, #0]
 800c784:	9b0f      	ldr	r3, [sp, #60]	; 0x3c
 800c786:	f10a 0001 	add.w	r0, sl, #1
 800c78a:	6018      	str	r0, [r3, #0]
 800c78c:	9b21      	ldr	r3, [sp, #132]	; 0x84
 800c78e:	2b00      	cmp	r3, #0
 800c790:	f43f acd8 	beq.w	800c144 <_dtoa_r+0xa4>
 800c794:	601d      	str	r5, [r3, #0]
 800c796:	e4d5      	b.n	800c144 <_dtoa_r+0xa4>
 800c798:	f8cd a01c 	str.w	sl, [sp, #28]
 800c79c:	462b      	mov	r3, r5
 800c79e:	461d      	mov	r5, r3
 800c7a0:	f813 2d01 	ldrb.w	r2, [r3, #-1]!
 800c7a4:	2a39      	cmp	r2, #57	; 0x39
 800c7a6:	d108      	bne.n	800c7ba <_dtoa_r+0x71a>
 800c7a8:	9a00      	ldr	r2, [sp, #0]
 800c7aa:	429a      	cmp	r2, r3
 800c7ac:	d1f7      	bne.n	800c79e <_dtoa_r+0x6fe>
 800c7ae:	9a07      	ldr	r2, [sp, #28]
 800c7b0:	9900      	ldr	r1, [sp, #0]
 800c7b2:	3201      	adds	r2, #1
 800c7b4:	9207      	str	r2, [sp, #28]
 800c7b6:	2230      	movs	r2, #48	; 0x30
 800c7b8:	700a      	strb	r2, [r1, #0]
 800c7ba:	781a      	ldrb	r2, [r3, #0]
 800c7bc:	3201      	adds	r2, #1
 800c7be:	701a      	strb	r2, [r3, #0]
 800c7c0:	e78c      	b.n	800c6dc <_dtoa_r+0x63c>
 800c7c2:	4b7f      	ldr	r3, [pc, #508]	; (800c9c0 <_dtoa_r+0x920>)
 800c7c4:	2200      	movs	r2, #0
 800c7c6:	f7f3 ff17 	bl	80005f8 <__aeabi_dmul>
 800c7ca:	2200      	movs	r2, #0
 800c7cc:	2300      	movs	r3, #0
 800c7ce:	4606      	mov	r6, r0
 800c7d0:	460f      	mov	r7, r1
 800c7d2:	f7f4 f979 	bl	8000ac8 <__aeabi_dcmpeq>
 800c7d6:	2800      	cmp	r0, #0
 800c7d8:	d09b      	beq.n	800c712 <_dtoa_r+0x672>
 800c7da:	e7cd      	b.n	800c778 <_dtoa_r+0x6d8>
 800c7dc:	9a08      	ldr	r2, [sp, #32]
 800c7de:	2a00      	cmp	r2, #0
 800c7e0:	f000 80c4 	beq.w	800c96c <_dtoa_r+0x8cc>
 800c7e4:	9a05      	ldr	r2, [sp, #20]
 800c7e6:	2a01      	cmp	r2, #1
 800c7e8:	f300 80a8 	bgt.w	800c93c <_dtoa_r+0x89c>
 800c7ec:	9a10      	ldr	r2, [sp, #64]	; 0x40
 800c7ee:	2a00      	cmp	r2, #0
 800c7f0:	f000 80a0 	beq.w	800c934 <_dtoa_r+0x894>
 800c7f4:	f203 4333 	addw	r3, r3, #1075	; 0x433
 800c7f8:	9e06      	ldr	r6, [sp, #24]
 800c7fa:	4645      	mov	r5, r8
 800c7fc:	9a04      	ldr	r2, [sp, #16]
 800c7fe:	2101      	movs	r1, #1
 800c800:	441a      	add	r2, r3
 800c802:	4620      	mov	r0, r4
 800c804:	4498      	add	r8, r3
 800c806:	9204      	str	r2, [sp, #16]
 800c808:	f000 fc4a 	bl	800d0a0 <__i2b>
 800c80c:	4607      	mov	r7, r0
 800c80e:	2d00      	cmp	r5, #0
 800c810:	dd0b      	ble.n	800c82a <_dtoa_r+0x78a>
 800c812:	9b04      	ldr	r3, [sp, #16]
 800c814:	2b00      	cmp	r3, #0
 800c816:	dd08      	ble.n	800c82a <_dtoa_r+0x78a>
 800c818:	42ab      	cmp	r3, r5
 800c81a:	9a04      	ldr	r2, [sp, #16]
 800c81c:	bfa8      	it	ge
 800c81e:	462b      	movge	r3, r5
 800c820:	eba8 0803 	sub.w	r8, r8, r3
 800c824:	1aed      	subs	r5, r5, r3
 800c826:	1ad3      	subs	r3, r2, r3
 800c828:	9304      	str	r3, [sp, #16]
 800c82a:	9b06      	ldr	r3, [sp, #24]
 800c82c:	b1fb      	cbz	r3, 800c86e <_dtoa_r+0x7ce>
 800c82e:	9b08      	ldr	r3, [sp, #32]
 800c830:	2b00      	cmp	r3, #0
 800c832:	f000 809f 	beq.w	800c974 <_dtoa_r+0x8d4>
 800c836:	2e00      	cmp	r6, #0
 800c838:	dd11      	ble.n	800c85e <_dtoa_r+0x7be>
 800c83a:	4639      	mov	r1, r7
 800c83c:	4632      	mov	r2, r6
 800c83e:	4620      	mov	r0, r4
 800c840:	f000 fcea 	bl	800d218 <__pow5mult>
 800c844:	465a      	mov	r2, fp
 800c846:	4601      	mov	r1, r0
 800c848:	4607      	mov	r7, r0
 800c84a:	4620      	mov	r0, r4
 800c84c:	f000 fc3e 	bl	800d0cc <__multiply>
 800c850:	4659      	mov	r1, fp
 800c852:	9007      	str	r0, [sp, #28]
 800c854:	4620      	mov	r0, r4
 800c856:	f000 fb67 	bl	800cf28 <_Bfree>
 800c85a:	9b07      	ldr	r3, [sp, #28]
 800c85c:	469b      	mov	fp, r3
 800c85e:	9b06      	ldr	r3, [sp, #24]
 800c860:	1b9a      	subs	r2, r3, r6
 800c862:	d004      	beq.n	800c86e <_dtoa_r+0x7ce>
 800c864:	4659      	mov	r1, fp
 800c866:	4620      	mov	r0, r4
 800c868:	f000 fcd6 	bl	800d218 <__pow5mult>
 800c86c:	4683      	mov	fp, r0
 800c86e:	2101      	movs	r1, #1
 800c870:	4620      	mov	r0, r4
 800c872:	f000 fc15 	bl	800d0a0 <__i2b>
 800c876:	9b0d      	ldr	r3, [sp, #52]	; 0x34
 800c878:	2b00      	cmp	r3, #0
 800c87a:	4606      	mov	r6, r0
 800c87c:	dd7c      	ble.n	800c978 <_dtoa_r+0x8d8>
 800c87e:	461a      	mov	r2, r3
 800c880:	4601      	mov	r1, r0
 800c882:	4620      	mov	r0, r4
 800c884:	f000 fcc8 	bl	800d218 <__pow5mult>
 800c888:	9b05      	ldr	r3, [sp, #20]
 800c88a:	2b01      	cmp	r3, #1
 800c88c:	4606      	mov	r6, r0
 800c88e:	dd76      	ble.n	800c97e <_dtoa_r+0x8de>
 800c890:	2300      	movs	r3, #0
 800c892:	9306      	str	r3, [sp, #24]
 800c894:	6933      	ldr	r3, [r6, #16]
 800c896:	eb06 0383 	add.w	r3, r6, r3, lsl #2
 800c89a:	6918      	ldr	r0, [r3, #16]
 800c89c:	f000 fbb0 	bl	800d000 <__hi0bits>
 800c8a0:	f1c0 0020 	rsb	r0, r0, #32
 800c8a4:	9b04      	ldr	r3, [sp, #16]
 800c8a6:	4418      	add	r0, r3
 800c8a8:	f010 001f 	ands.w	r0, r0, #31
 800c8ac:	f000 8086 	beq.w	800c9bc <_dtoa_r+0x91c>
 800c8b0:	f1c0 0320 	rsb	r3, r0, #32
 800c8b4:	2b04      	cmp	r3, #4
 800c8b6:	dd7f      	ble.n	800c9b8 <_dtoa_r+0x918>
 800c8b8:	f1c0 001c 	rsb	r0, r0, #28
 800c8bc:	9b04      	ldr	r3, [sp, #16]
 800c8be:	4403      	add	r3, r0
 800c8c0:	4480      	add	r8, r0
 800c8c2:	4405      	add	r5, r0
 800c8c4:	9304      	str	r3, [sp, #16]
 800c8c6:	f1b8 0f00 	cmp.w	r8, #0
 800c8ca:	dd05      	ble.n	800c8d8 <_dtoa_r+0x838>
 800c8cc:	4659      	mov	r1, fp
 800c8ce:	4642      	mov	r2, r8
 800c8d0:	4620      	mov	r0, r4
 800c8d2:	f000 fcfb 	bl	800d2cc <__lshift>
 800c8d6:	4683      	mov	fp, r0
 800c8d8:	9b04      	ldr	r3, [sp, #16]
 800c8da:	2b00      	cmp	r3, #0
 800c8dc:	dd05      	ble.n	800c8ea <_dtoa_r+0x84a>
 800c8de:	4631      	mov	r1, r6
 800c8e0:	461a      	mov	r2, r3
 800c8e2:	4620      	mov	r0, r4
 800c8e4:	f000 fcf2 	bl	800d2cc <__lshift>
 800c8e8:	4606      	mov	r6, r0
 800c8ea:	9b0e      	ldr	r3, [sp, #56]	; 0x38
 800c8ec:	2b00      	cmp	r3, #0
 800c8ee:	d069      	beq.n	800c9c4 <_dtoa_r+0x924>
 800c8f0:	4631      	mov	r1, r6
 800c8f2:	4658      	mov	r0, fp
 800c8f4:	f000 fd56 	bl	800d3a4 <__mcmp>
 800c8f8:	2800      	cmp	r0, #0
 800c8fa:	da63      	bge.n	800c9c4 <_dtoa_r+0x924>
 800c8fc:	2300      	movs	r3, #0
 800c8fe:	4659      	mov	r1, fp
 800c900:	220a      	movs	r2, #10
 800c902:	4620      	mov	r0, r4
 800c904:	f000 fb32 	bl	800cf6c <__multadd>
 800c908:	9b08      	ldr	r3, [sp, #32]
 800c90a:	f10a 3aff 	add.w	sl, sl, #4294967295
 800c90e:	4683      	mov	fp, r0
 800c910:	2b00      	cmp	r3, #0
 800c912:	f000 818f 	beq.w	800cc34 <_dtoa_r+0xb94>
 800c916:	4639      	mov	r1, r7
 800c918:	2300      	movs	r3, #0
 800c91a:	220a      	movs	r2, #10
 800c91c:	4620      	mov	r0, r4
 800c91e:	f000 fb25 	bl	800cf6c <__multadd>
 800c922:	f1b9 0f00 	cmp.w	r9, #0
 800c926:	4607      	mov	r7, r0
 800c928:	f300 808e 	bgt.w	800ca48 <_dtoa_r+0x9a8>
 800c92c:	9b05      	ldr	r3, [sp, #20]
 800c92e:	2b02      	cmp	r3, #2
 800c930:	dc50      	bgt.n	800c9d4 <_dtoa_r+0x934>
 800c932:	e089      	b.n	800ca48 <_dtoa_r+0x9a8>
 800c934:	9b12      	ldr	r3, [sp, #72]	; 0x48
 800c936:	f1c3 0336 	rsb	r3, r3, #54	; 0x36
 800c93a:	e75d      	b.n	800c7f8 <_dtoa_r+0x758>
 800c93c:	9b01      	ldr	r3, [sp, #4]
 800c93e:	1e5e      	subs	r6, r3, #1
 800c940:	9b06      	ldr	r3, [sp, #24]
 800c942:	42b3      	cmp	r3, r6
 800c944:	bfbf      	itttt	lt
 800c946:	9b06      	ldrlt	r3, [sp, #24]
 800c948:	9606      	strlt	r6, [sp, #24]
 800c94a:	1af2      	sublt	r2, r6, r3
 800c94c:	9b0d      	ldrlt	r3, [sp, #52]	; 0x34
 800c94e:	bfb6      	itet	lt
 800c950:	189b      	addlt	r3, r3, r2
 800c952:	1b9e      	subge	r6, r3, r6
 800c954:	930d      	strlt	r3, [sp, #52]	; 0x34
 800c956:	9b01      	ldr	r3, [sp, #4]
 800c958:	bfb8      	it	lt
 800c95a:	2600      	movlt	r6, #0
 800c95c:	2b00      	cmp	r3, #0
 800c95e:	bfb5      	itete	lt
 800c960:	eba8 0503 	sublt.w	r5, r8, r3
 800c964:	9b01      	ldrge	r3, [sp, #4]
 800c966:	2300      	movlt	r3, #0
 800c968:	4645      	movge	r5, r8
 800c96a:	e747      	b.n	800c7fc <_dtoa_r+0x75c>
 800c96c:	9e06      	ldr	r6, [sp, #24]
 800c96e:	9f08      	ldr	r7, [sp, #32]
 800c970:	4645      	mov	r5, r8
 800c972:	e74c      	b.n	800c80e <_dtoa_r+0x76e>
 800c974:	9a06      	ldr	r2, [sp, #24]
 800c976:	e775      	b.n	800c864 <_dtoa_r+0x7c4>
 800c978:	9b05      	ldr	r3, [sp, #20]
 800c97a:	2b01      	cmp	r3, #1
 800c97c:	dc18      	bgt.n	800c9b0 <_dtoa_r+0x910>
 800c97e:	9b02      	ldr	r3, [sp, #8]
 800c980:	b9b3      	cbnz	r3, 800c9b0 <_dtoa_r+0x910>
 800c982:	9b03      	ldr	r3, [sp, #12]
 800c984:	f3c3 0313 	ubfx	r3, r3, #0, #20
 800c988:	b9a3      	cbnz	r3, 800c9b4 <_dtoa_r+0x914>
 800c98a:	9b03      	ldr	r3, [sp, #12]
 800c98c:	f023 4300 	bic.w	r3, r3, #2147483648	; 0x80000000
 800c990:	0d1b      	lsrs	r3, r3, #20
 800c992:	051b      	lsls	r3, r3, #20
 800c994:	b12b      	cbz	r3, 800c9a2 <_dtoa_r+0x902>
 800c996:	9b04      	ldr	r3, [sp, #16]
 800c998:	3301      	adds	r3, #1
 800c99a:	9304      	str	r3, [sp, #16]
 800c99c:	f108 0801 	add.w	r8, r8, #1
 800c9a0:	2301      	movs	r3, #1
 800c9a2:	9306      	str	r3, [sp, #24]
 800c9a4:	9b0d      	ldr	r3, [sp, #52]	; 0x34
 800c9a6:	2b00      	cmp	r3, #0
 800c9a8:	f47f af74 	bne.w	800c894 <_dtoa_r+0x7f4>
 800c9ac:	2001      	movs	r0, #1
 800c9ae:	e779      	b.n	800c8a4 <_dtoa_r+0x804>
 800c9b0:	2300      	movs	r3, #0
 800c9b2:	e7f6      	b.n	800c9a2 <_dtoa_r+0x902>
 800c9b4:	9b02      	ldr	r3, [sp, #8]
 800c9b6:	e7f4      	b.n	800c9a2 <_dtoa_r+0x902>
 800c9b8:	d085      	beq.n	800c8c6 <_dtoa_r+0x826>
 800c9ba:	4618      	mov	r0, r3
 800c9bc:	301c      	adds	r0, #28
 800c9be:	e77d      	b.n	800c8bc <_dtoa_r+0x81c>
 800c9c0:	40240000 	.word	0x40240000
 800c9c4:	9b01      	ldr	r3, [sp, #4]
 800c9c6:	2b00      	cmp	r3, #0
 800c9c8:	dc38      	bgt.n	800ca3c <_dtoa_r+0x99c>
 800c9ca:	9b05      	ldr	r3, [sp, #20]
 800c9cc:	2b02      	cmp	r3, #2
 800c9ce:	dd35      	ble.n	800ca3c <_dtoa_r+0x99c>
 800c9d0:	f8dd 9004 	ldr.w	r9, [sp, #4]
 800c9d4:	f1b9 0f00 	cmp.w	r9, #0
 800c9d8:	d10d      	bne.n	800c9f6 <_dtoa_r+0x956>
 800c9da:	4631      	mov	r1, r6
 800c9dc:	464b      	mov	r3, r9
 800c9de:	2205      	movs	r2, #5
 800c9e0:	4620      	mov	r0, r4
 800c9e2:	f000 fac3 	bl	800cf6c <__multadd>
 800c9e6:	4601      	mov	r1, r0
 800c9e8:	4606      	mov	r6, r0
 800c9ea:	4658      	mov	r0, fp
 800c9ec:	f000 fcda 	bl	800d3a4 <__mcmp>
 800c9f0:	2800      	cmp	r0, #0
 800c9f2:	f73f adbd 	bgt.w	800c570 <_dtoa_r+0x4d0>
 800c9f6:	9b09      	ldr	r3, [sp, #36]	; 0x24
 800c9f8:	9d00      	ldr	r5, [sp, #0]
 800c9fa:	ea6f 0a03 	mvn.w	sl, r3
 800c9fe:	f04f 0800 	mov.w	r8, #0
 800ca02:	4631      	mov	r1, r6
 800ca04:	4620      	mov	r0, r4
 800ca06:	f000 fa8f 	bl	800cf28 <_Bfree>
 800ca0a:	2f00      	cmp	r7, #0
 800ca0c:	f43f aeb4 	beq.w	800c778 <_dtoa_r+0x6d8>
 800ca10:	f1b8 0f00 	cmp.w	r8, #0
 800ca14:	d005      	beq.n	800ca22 <_dtoa_r+0x982>
 800ca16:	45b8      	cmp	r8, r7
 800ca18:	d003      	beq.n	800ca22 <_dtoa_r+0x982>
 800ca1a:	4641      	mov	r1, r8
 800ca1c:	4620      	mov	r0, r4
 800ca1e:	f000 fa83 	bl	800cf28 <_Bfree>
 800ca22:	4639      	mov	r1, r7
 800ca24:	4620      	mov	r0, r4
 800ca26:	f000 fa7f 	bl	800cf28 <_Bfree>
 800ca2a:	e6a5      	b.n	800c778 <_dtoa_r+0x6d8>
 800ca2c:	2600      	movs	r6, #0
 800ca2e:	4637      	mov	r7, r6
 800ca30:	e7e1      	b.n	800c9f6 <_dtoa_r+0x956>
 800ca32:	9e0c      	ldr	r6, [sp, #48]	; 0x30
 800ca34:	f8dd a01c 	ldr.w	sl, [sp, #28]
 800ca38:	4637      	mov	r7, r6
 800ca3a:	e599      	b.n	800c570 <_dtoa_r+0x4d0>
 800ca3c:	9b08      	ldr	r3, [sp, #32]
 800ca3e:	f8dd 9004 	ldr.w	r9, [sp, #4]
 800ca42:	2b00      	cmp	r3, #0
 800ca44:	f000 80fd 	beq.w	800cc42 <_dtoa_r+0xba2>
 800ca48:	2d00      	cmp	r5, #0
 800ca4a:	dd05      	ble.n	800ca58 <_dtoa_r+0x9b8>
 800ca4c:	4639      	mov	r1, r7
 800ca4e:	462a      	mov	r2, r5
 800ca50:	4620      	mov	r0, r4
 800ca52:	f000 fc3b 	bl	800d2cc <__lshift>
 800ca56:	4607      	mov	r7, r0
 800ca58:	9b06      	ldr	r3, [sp, #24]
 800ca5a:	2b00      	cmp	r3, #0
 800ca5c:	d05c      	beq.n	800cb18 <_dtoa_r+0xa78>
 800ca5e:	6879      	ldr	r1, [r7, #4]
 800ca60:	4620      	mov	r0, r4
 800ca62:	f000 fa21 	bl	800cea8 <_Balloc>
 800ca66:	4605      	mov	r5, r0
 800ca68:	b928      	cbnz	r0, 800ca76 <_dtoa_r+0x9d6>
 800ca6a:	4b80      	ldr	r3, [pc, #512]	; (800cc6c <_dtoa_r+0xbcc>)
 800ca6c:	4602      	mov	r2, r0
 800ca6e:	f240 21ea 	movw	r1, #746	; 0x2ea
 800ca72:	f7ff bb2e 	b.w	800c0d2 <_dtoa_r+0x32>
 800ca76:	693a      	ldr	r2, [r7, #16]
 800ca78:	3202      	adds	r2, #2
 800ca7a:	0092      	lsls	r2, r2, #2
 800ca7c:	f107 010c 	add.w	r1, r7, #12
 800ca80:	300c      	adds	r0, #12
 800ca82:	f7fe fd3b 	bl	800b4fc <memcpy>
 800ca86:	2201      	movs	r2, #1
 800ca88:	4629      	mov	r1, r5
 800ca8a:	4620      	mov	r0, r4
 800ca8c:	f000 fc1e 	bl	800d2cc <__lshift>
 800ca90:	9b00      	ldr	r3, [sp, #0]
 800ca92:	3301      	adds	r3, #1
 800ca94:	9301      	str	r3, [sp, #4]
 800ca96:	9b00      	ldr	r3, [sp, #0]
 800ca98:	444b      	add	r3, r9
 800ca9a:	9307      	str	r3, [sp, #28]
 800ca9c:	9b02      	ldr	r3, [sp, #8]
 800ca9e:	f003 0301 	and.w	r3, r3, #1
 800caa2:	46b8      	mov	r8, r7
 800caa4:	9306      	str	r3, [sp, #24]
 800caa6:	4607      	mov	r7, r0
 800caa8:	9b01      	ldr	r3, [sp, #4]
 800caaa:	4631      	mov	r1, r6
 800caac:	3b01      	subs	r3, #1
 800caae:	4658      	mov	r0, fp
 800cab0:	9302      	str	r3, [sp, #8]
 800cab2:	f7ff fa67 	bl	800bf84 <quorem>
 800cab6:	4603      	mov	r3, r0
 800cab8:	3330      	adds	r3, #48	; 0x30
 800caba:	9004      	str	r0, [sp, #16]
 800cabc:	4641      	mov	r1, r8
 800cabe:	4658      	mov	r0, fp
 800cac0:	9308      	str	r3, [sp, #32]
 800cac2:	f000 fc6f 	bl	800d3a4 <__mcmp>
 800cac6:	463a      	mov	r2, r7
 800cac8:	4681      	mov	r9, r0
 800caca:	4631      	mov	r1, r6
 800cacc:	4620      	mov	r0, r4
 800cace:	f000 fc85 	bl	800d3dc <__mdiff>
 800cad2:	68c2      	ldr	r2, [r0, #12]
 800cad4:	9b08      	ldr	r3, [sp, #32]
 800cad6:	4605      	mov	r5, r0
 800cad8:	bb02      	cbnz	r2, 800cb1c <_dtoa_r+0xa7c>
 800cada:	4601      	mov	r1, r0
 800cadc:	4658      	mov	r0, fp
 800cade:	f000 fc61 	bl	800d3a4 <__mcmp>
 800cae2:	9b08      	ldr	r3, [sp, #32]
 800cae4:	4602      	mov	r2, r0
 800cae6:	4629      	mov	r1, r5
 800cae8:	4620      	mov	r0, r4
 800caea:	e9cd 3208 	strd	r3, r2, [sp, #32]
 800caee:	f000 fa1b 	bl	800cf28 <_Bfree>
 800caf2:	9b05      	ldr	r3, [sp, #20]
 800caf4:	9a09      	ldr	r2, [sp, #36]	; 0x24
 800caf6:	9d01      	ldr	r5, [sp, #4]
 800caf8:	ea43 0102 	orr.w	r1, r3, r2
 800cafc:	9b06      	ldr	r3, [sp, #24]
 800cafe:	430b      	orrs	r3, r1
 800cb00:	9b08      	ldr	r3, [sp, #32]
 800cb02:	d10d      	bne.n	800cb20 <_dtoa_r+0xa80>
 800cb04:	2b39      	cmp	r3, #57	; 0x39
 800cb06:	d029      	beq.n	800cb5c <_dtoa_r+0xabc>
 800cb08:	f1b9 0f00 	cmp.w	r9, #0
 800cb0c:	dd01      	ble.n	800cb12 <_dtoa_r+0xa72>
 800cb0e:	9b04      	ldr	r3, [sp, #16]
 800cb10:	3331      	adds	r3, #49	; 0x31
 800cb12:	9a02      	ldr	r2, [sp, #8]
 800cb14:	7013      	strb	r3, [r2, #0]
 800cb16:	e774      	b.n	800ca02 <_dtoa_r+0x962>
 800cb18:	4638      	mov	r0, r7
 800cb1a:	e7b9      	b.n	800ca90 <_dtoa_r+0x9f0>
 800cb1c:	2201      	movs	r2, #1
 800cb1e:	e7e2      	b.n	800cae6 <_dtoa_r+0xa46>
 800cb20:	f1b9 0f00 	cmp.w	r9, #0
 800cb24:	db06      	blt.n	800cb34 <_dtoa_r+0xa94>
 800cb26:	9905      	ldr	r1, [sp, #20]
 800cb28:	ea41 0909 	orr.w	r9, r1, r9
 800cb2c:	9906      	ldr	r1, [sp, #24]
 800cb2e:	ea59 0101 	orrs.w	r1, r9, r1
 800cb32:	d120      	bne.n	800cb76 <_dtoa_r+0xad6>
 800cb34:	2a00      	cmp	r2, #0
 800cb36:	ddec      	ble.n	800cb12 <_dtoa_r+0xa72>
 800cb38:	4659      	mov	r1, fp
 800cb3a:	2201      	movs	r2, #1
 800cb3c:	4620      	mov	r0, r4
 800cb3e:	9301      	str	r3, [sp, #4]
 800cb40:	f000 fbc4 	bl	800d2cc <__lshift>
 800cb44:	4631      	mov	r1, r6
 800cb46:	4683      	mov	fp, r0
 800cb48:	f000 fc2c 	bl	800d3a4 <__mcmp>
 800cb4c:	2800      	cmp	r0, #0
 800cb4e:	9b01      	ldr	r3, [sp, #4]
 800cb50:	dc02      	bgt.n	800cb58 <_dtoa_r+0xab8>
 800cb52:	d1de      	bne.n	800cb12 <_dtoa_r+0xa72>
 800cb54:	07da      	lsls	r2, r3, #31
 800cb56:	d5dc      	bpl.n	800cb12 <_dtoa_r+0xa72>
 800cb58:	2b39      	cmp	r3, #57	; 0x39
 800cb5a:	d1d8      	bne.n	800cb0e <_dtoa_r+0xa6e>
 800cb5c:	9a02      	ldr	r2, [sp, #8]
 800cb5e:	2339      	movs	r3, #57	; 0x39
 800cb60:	7013      	strb	r3, [r2, #0]
 800cb62:	462b      	mov	r3, r5
 800cb64:	461d      	mov	r5, r3
 800cb66:	3b01      	subs	r3, #1
 800cb68:	f815 2c01 	ldrb.w	r2, [r5, #-1]
 800cb6c:	2a39      	cmp	r2, #57	; 0x39
 800cb6e:	d050      	beq.n	800cc12 <_dtoa_r+0xb72>
 800cb70:	3201      	adds	r2, #1
 800cb72:	701a      	strb	r2, [r3, #0]
 800cb74:	e745      	b.n	800ca02 <_dtoa_r+0x962>
 800cb76:	2a00      	cmp	r2, #0
 800cb78:	dd03      	ble.n	800cb82 <_dtoa_r+0xae2>
 800cb7a:	2b39      	cmp	r3, #57	; 0x39
 800cb7c:	d0ee      	beq.n	800cb5c <_dtoa_r+0xabc>
 800cb7e:	3301      	adds	r3, #1
 800cb80:	e7c7      	b.n	800cb12 <_dtoa_r+0xa72>
 800cb82:	9a01      	ldr	r2, [sp, #4]
 800cb84:	9907      	ldr	r1, [sp, #28]
 800cb86:	f802 3c01 	strb.w	r3, [r2, #-1]
 800cb8a:	428a      	cmp	r2, r1
 800cb8c:	d02a      	beq.n	800cbe4 <_dtoa_r+0xb44>
 800cb8e:	4659      	mov	r1, fp
 800cb90:	2300      	movs	r3, #0
 800cb92:	220a      	movs	r2, #10
 800cb94:	4620      	mov	r0, r4
 800cb96:	f000 f9e9 	bl	800cf6c <__multadd>
 800cb9a:	45b8      	cmp	r8, r7
 800cb9c:	4683      	mov	fp, r0
 800cb9e:	f04f 0300 	mov.w	r3, #0
 800cba2:	f04f 020a 	mov.w	r2, #10
 800cba6:	4641      	mov	r1, r8
 800cba8:	4620      	mov	r0, r4
 800cbaa:	d107      	bne.n	800cbbc <_dtoa_r+0xb1c>
 800cbac:	f000 f9de 	bl	800cf6c <__multadd>
 800cbb0:	4680      	mov	r8, r0
 800cbb2:	4607      	mov	r7, r0
 800cbb4:	9b01      	ldr	r3, [sp, #4]
 800cbb6:	3301      	adds	r3, #1
 800cbb8:	9301      	str	r3, [sp, #4]
 800cbba:	e775      	b.n	800caa8 <_dtoa_r+0xa08>
 800cbbc:	f000 f9d6 	bl	800cf6c <__multadd>
 800cbc0:	4639      	mov	r1, r7
 800cbc2:	4680      	mov	r8, r0
 800cbc4:	2300      	movs	r3, #0
 800cbc6:	220a      	movs	r2, #10
 800cbc8:	4620      	mov	r0, r4
 800cbca:	f000 f9cf 	bl	800cf6c <__multadd>
 800cbce:	4607      	mov	r7, r0
 800cbd0:	e7f0      	b.n	800cbb4 <_dtoa_r+0xb14>
 800cbd2:	f1b9 0f00 	cmp.w	r9, #0
 800cbd6:	9a00      	ldr	r2, [sp, #0]
 800cbd8:	bfcc      	ite	gt
 800cbda:	464d      	movgt	r5, r9
 800cbdc:	2501      	movle	r5, #1
 800cbde:	4415      	add	r5, r2
 800cbe0:	f04f 0800 	mov.w	r8, #0
 800cbe4:	4659      	mov	r1, fp
 800cbe6:	2201      	movs	r2, #1
 800cbe8:	4620      	mov	r0, r4
 800cbea:	9301      	str	r3, [sp, #4]
 800cbec:	f000 fb6e 	bl	800d2cc <__lshift>
 800cbf0:	4631      	mov	r1, r6
 800cbf2:	4683      	mov	fp, r0
 800cbf4:	f000 fbd6 	bl	800d3a4 <__mcmp>
 800cbf8:	2800      	cmp	r0, #0
 800cbfa:	dcb2      	bgt.n	800cb62 <_dtoa_r+0xac2>
 800cbfc:	d102      	bne.n	800cc04 <_dtoa_r+0xb64>
 800cbfe:	9b01      	ldr	r3, [sp, #4]
 800cc00:	07db      	lsls	r3, r3, #31
 800cc02:	d4ae      	bmi.n	800cb62 <_dtoa_r+0xac2>
 800cc04:	462b      	mov	r3, r5
 800cc06:	461d      	mov	r5, r3
 800cc08:	f813 2d01 	ldrb.w	r2, [r3, #-1]!
 800cc0c:	2a30      	cmp	r2, #48	; 0x30
 800cc0e:	d0fa      	beq.n	800cc06 <_dtoa_r+0xb66>
 800cc10:	e6f7      	b.n	800ca02 <_dtoa_r+0x962>
 800cc12:	9a00      	ldr	r2, [sp, #0]
 800cc14:	429a      	cmp	r2, r3
 800cc16:	d1a5      	bne.n	800cb64 <_dtoa_r+0xac4>
 800cc18:	f10a 0a01 	add.w	sl, sl, #1
 800cc1c:	2331      	movs	r3, #49	; 0x31
 800cc1e:	e779      	b.n	800cb14 <_dtoa_r+0xa74>
 800cc20:	4b13      	ldr	r3, [pc, #76]	; (800cc70 <_dtoa_r+0xbd0>)
 800cc22:	f7ff baaf 	b.w	800c184 <_dtoa_r+0xe4>
 800cc26:	9b21      	ldr	r3, [sp, #132]	; 0x84
 800cc28:	2b00      	cmp	r3, #0
 800cc2a:	f47f aa86 	bne.w	800c13a <_dtoa_r+0x9a>
 800cc2e:	4b11      	ldr	r3, [pc, #68]	; (800cc74 <_dtoa_r+0xbd4>)
 800cc30:	f7ff baa8 	b.w	800c184 <_dtoa_r+0xe4>
 800cc34:	f1b9 0f00 	cmp.w	r9, #0
 800cc38:	dc03      	bgt.n	800cc42 <_dtoa_r+0xba2>
 800cc3a:	9b05      	ldr	r3, [sp, #20]
 800cc3c:	2b02      	cmp	r3, #2
 800cc3e:	f73f aec9 	bgt.w	800c9d4 <_dtoa_r+0x934>
 800cc42:	9d00      	ldr	r5, [sp, #0]
 800cc44:	4631      	mov	r1, r6
 800cc46:	4658      	mov	r0, fp
 800cc48:	f7ff f99c 	bl	800bf84 <quorem>
 800cc4c:	f100 0330 	add.w	r3, r0, #48	; 0x30
 800cc50:	f805 3b01 	strb.w	r3, [r5], #1
 800cc54:	9a00      	ldr	r2, [sp, #0]
 800cc56:	1aaa      	subs	r2, r5, r2
 800cc58:	4591      	cmp	r9, r2
 800cc5a:	ddba      	ble.n	800cbd2 <_dtoa_r+0xb32>
 800cc5c:	4659      	mov	r1, fp
 800cc5e:	2300      	movs	r3, #0
 800cc60:	220a      	movs	r2, #10
 800cc62:	4620      	mov	r0, r4
 800cc64:	f000 f982 	bl	800cf6c <__multadd>
 800cc68:	4683      	mov	fp, r0
 800cc6a:	e7eb      	b.n	800cc44 <_dtoa_r+0xba4>
 800cc6c:	0800ff86 	.word	0x0800ff86
 800cc70:	0800fe44 	.word	0x0800fe44
 800cc74:	0800ff1a 	.word	0x0800ff1a

0800cc78 <std>:
 800cc78:	2300      	movs	r3, #0
 800cc7a:	b510      	push	{r4, lr}
 800cc7c:	4604      	mov	r4, r0
 800cc7e:	e9c0 3300 	strd	r3, r3, [r0]
 800cc82:	e9c0 3304 	strd	r3, r3, [r0, #16]
 800cc86:	6083      	str	r3, [r0, #8]
 800cc88:	8181      	strh	r1, [r0, #12]
 800cc8a:	6643      	str	r3, [r0, #100]	; 0x64
 800cc8c:	81c2      	strh	r2, [r0, #14]
 800cc8e:	6183      	str	r3, [r0, #24]
 800cc90:	4619      	mov	r1, r3
 800cc92:	2208      	movs	r2, #8
 800cc94:	305c      	adds	r0, #92	; 0x5c
 800cc96:	f7fe fc3f 	bl	800b518 <memset>
 800cc9a:	4b05      	ldr	r3, [pc, #20]	; (800ccb0 <std+0x38>)
 800cc9c:	6263      	str	r3, [r4, #36]	; 0x24
 800cc9e:	4b05      	ldr	r3, [pc, #20]	; (800ccb4 <std+0x3c>)
 800cca0:	62a3      	str	r3, [r4, #40]	; 0x28
 800cca2:	4b05      	ldr	r3, [pc, #20]	; (800ccb8 <std+0x40>)
 800cca4:	62e3      	str	r3, [r4, #44]	; 0x2c
 800cca6:	4b05      	ldr	r3, [pc, #20]	; (800ccbc <std+0x44>)
 800cca8:	6224      	str	r4, [r4, #32]
 800ccaa:	6323      	str	r3, [r4, #48]	; 0x30
 800ccac:	bd10      	pop	{r4, pc}
 800ccae:	bf00      	nop
 800ccb0:	0800dca5 	.word	0x0800dca5
 800ccb4:	0800dcc7 	.word	0x0800dcc7
 800ccb8:	0800dcff 	.word	0x0800dcff
 800ccbc:	0800dd23 	.word	0x0800dd23

0800ccc0 <_cleanup_r>:
 800ccc0:	4901      	ldr	r1, [pc, #4]	; (800ccc8 <_cleanup_r+0x8>)
 800ccc2:	f000 b8c1 	b.w	800ce48 <_fwalk_reent>
 800ccc6:	bf00      	nop
 800ccc8:	0800e00d 	.word	0x0800e00d

0800cccc <__sfmoreglue>:
 800cccc:	b570      	push	{r4, r5, r6, lr}
 800ccce:	1e4a      	subs	r2, r1, #1
 800ccd0:	2568      	movs	r5, #104	; 0x68
 800ccd2:	4355      	muls	r5, r2
 800ccd4:	460e      	mov	r6, r1
 800ccd6:	f105 0174 	add.w	r1, r5, #116	; 0x74
 800ccda:	f000 fcc3 	bl	800d664 <_malloc_r>
 800ccde:	4604      	mov	r4, r0
 800cce0:	b140      	cbz	r0, 800ccf4 <__sfmoreglue+0x28>
 800cce2:	2100      	movs	r1, #0
 800cce4:	e9c0 1600 	strd	r1, r6, [r0]
 800cce8:	300c      	adds	r0, #12
 800ccea:	60a0      	str	r0, [r4, #8]
 800ccec:	f105 0268 	add.w	r2, r5, #104	; 0x68
 800ccf0:	f7fe fc12 	bl	800b518 <memset>
 800ccf4:	4620      	mov	r0, r4
 800ccf6:	bd70      	pop	{r4, r5, r6, pc}

0800ccf8 <__sfp_lock_acquire>:
 800ccf8:	4801      	ldr	r0, [pc, #4]	; (800cd00 <__sfp_lock_acquire+0x8>)
 800ccfa:	f000 b8ca 	b.w	800ce92 <__retarget_lock_acquire_recursive>
 800ccfe:	bf00      	nop
 800cd00:	20002f54 	.word	0x20002f54

0800cd04 <__sfp_lock_release>:
 800cd04:	4801      	ldr	r0, [pc, #4]	; (800cd0c <__sfp_lock_release+0x8>)
 800cd06:	f000 b8c5 	b.w	800ce94 <__retarget_lock_release_recursive>
 800cd0a:	bf00      	nop
 800cd0c:	20002f54 	.word	0x20002f54

0800cd10 <__sinit_lock_acquire>:
 800cd10:	4801      	ldr	r0, [pc, #4]	; (800cd18 <__sinit_lock_acquire+0x8>)
 800cd12:	f000 b8be 	b.w	800ce92 <__retarget_lock_acquire_recursive>
 800cd16:	bf00      	nop
 800cd18:	20002f53 	.word	0x20002f53

0800cd1c <__sinit_lock_release>:
 800cd1c:	4801      	ldr	r0, [pc, #4]	; (800cd24 <__sinit_lock_release+0x8>)
 800cd1e:	f000 b8b9 	b.w	800ce94 <__retarget_lock_release_recursive>
 800cd22:	bf00      	nop
 800cd24:	20002f53 	.word	0x20002f53

0800cd28 <__sinit>:
 800cd28:	b510      	push	{r4, lr}
 800cd2a:	4604      	mov	r4, r0
 800cd2c:	f7ff fff0 	bl	800cd10 <__sinit_lock_acquire>
 800cd30:	69a3      	ldr	r3, [r4, #24]
 800cd32:	b11b      	cbz	r3, 800cd3c <__sinit+0x14>
 800cd34:	e8bd 4010 	ldmia.w	sp!, {r4, lr}
 800cd38:	f7ff bff0 	b.w	800cd1c <__sinit_lock_release>
 800cd3c:	e9c4 3312 	strd	r3, r3, [r4, #72]	; 0x48
 800cd40:	6523      	str	r3, [r4, #80]	; 0x50
 800cd42:	4b13      	ldr	r3, [pc, #76]	; (800cd90 <__sinit+0x68>)
 800cd44:	4a13      	ldr	r2, [pc, #76]	; (800cd94 <__sinit+0x6c>)
 800cd46:	681b      	ldr	r3, [r3, #0]
 800cd48:	62a2      	str	r2, [r4, #40]	; 0x28
 800cd4a:	42a3      	cmp	r3, r4
 800cd4c:	bf04      	itt	eq
 800cd4e:	2301      	moveq	r3, #1
 800cd50:	61a3      	streq	r3, [r4, #24]
 800cd52:	4620      	mov	r0, r4
 800cd54:	f000 f820 	bl	800cd98 <__sfp>
 800cd58:	6060      	str	r0, [r4, #4]
 800cd5a:	4620      	mov	r0, r4
 800cd5c:	f000 f81c 	bl	800cd98 <__sfp>
 800cd60:	60a0      	str	r0, [r4, #8]
 800cd62:	4620      	mov	r0, r4
 800cd64:	f000 f818 	bl	800cd98 <__sfp>
 800cd68:	2200      	movs	r2, #0
 800cd6a:	60e0      	str	r0, [r4, #12]
 800cd6c:	2104      	movs	r1, #4
 800cd6e:	6860      	ldr	r0, [r4, #4]
 800cd70:	f7ff ff82 	bl	800cc78 <std>
 800cd74:	68a0      	ldr	r0, [r4, #8]
 800cd76:	2201      	movs	r2, #1
 800cd78:	2109      	movs	r1, #9
 800cd7a:	f7ff ff7d 	bl	800cc78 <std>
 800cd7e:	68e0      	ldr	r0, [r4, #12]
 800cd80:	2202      	movs	r2, #2
 800cd82:	2112      	movs	r1, #18
 800cd84:	f7ff ff78 	bl	800cc78 <std>
 800cd88:	2301      	movs	r3, #1
 800cd8a:	61a3      	str	r3, [r4, #24]
 800cd8c:	e7d2      	b.n	800cd34 <__sinit+0xc>
 800cd8e:	bf00      	nop
 800cd90:	0800fe30 	.word	0x0800fe30
 800cd94:	0800ccc1 	.word	0x0800ccc1

0800cd98 <__sfp>:
 800cd98:	b5f8      	push	{r3, r4, r5, r6, r7, lr}
 800cd9a:	4607      	mov	r7, r0
 800cd9c:	f7ff ffac 	bl	800ccf8 <__sfp_lock_acquire>
 800cda0:	4b1e      	ldr	r3, [pc, #120]	; (800ce1c <__sfp+0x84>)
 800cda2:	681e      	ldr	r6, [r3, #0]
 800cda4:	69b3      	ldr	r3, [r6, #24]
 800cda6:	b913      	cbnz	r3, 800cdae <__sfp+0x16>
 800cda8:	4630      	mov	r0, r6
 800cdaa:	f7ff ffbd 	bl	800cd28 <__sinit>
 800cdae:	3648      	adds	r6, #72	; 0x48
 800cdb0:	e9d6 3401 	ldrd	r3, r4, [r6, #4]
 800cdb4:	3b01      	subs	r3, #1
 800cdb6:	d503      	bpl.n	800cdc0 <__sfp+0x28>
 800cdb8:	6833      	ldr	r3, [r6, #0]
 800cdba:	b30b      	cbz	r3, 800ce00 <__sfp+0x68>
 800cdbc:	6836      	ldr	r6, [r6, #0]
 800cdbe:	e7f7      	b.n	800cdb0 <__sfp+0x18>
 800cdc0:	f9b4 500c 	ldrsh.w	r5, [r4, #12]
 800cdc4:	b9d5      	cbnz	r5, 800cdfc <__sfp+0x64>
 800cdc6:	4b16      	ldr	r3, [pc, #88]	; (800ce20 <__sfp+0x88>)
 800cdc8:	60e3      	str	r3, [r4, #12]
 800cdca:	f104 0058 	add.w	r0, r4, #88	; 0x58
 800cdce:	6665      	str	r5, [r4, #100]	; 0x64
 800cdd0:	f000 f85e 	bl	800ce90 <__retarget_lock_init_recursive>
 800cdd4:	f7ff ff96 	bl	800cd04 <__sfp_lock_release>
 800cdd8:	e9c4 5501 	strd	r5, r5, [r4, #4]
 800cddc:	e9c4 5504 	strd	r5, r5, [r4, #16]
 800cde0:	6025      	str	r5, [r4, #0]
 800cde2:	61a5      	str	r5, [r4, #24]
 800cde4:	2208      	movs	r2, #8
 800cde6:	4629      	mov	r1, r5
 800cde8:	f104 005c 	add.w	r0, r4, #92	; 0x5c
 800cdec:	f7fe fb94 	bl	800b518 <memset>
 800cdf0:	e9c4 550d 	strd	r5, r5, [r4, #52]	; 0x34
 800cdf4:	e9c4 5512 	strd	r5, r5, [r4, #72]	; 0x48
 800cdf8:	4620      	mov	r0, r4
 800cdfa:	bdf8      	pop	{r3, r4, r5, r6, r7, pc}
 800cdfc:	3468      	adds	r4, #104	; 0x68
 800cdfe:	e7d9      	b.n	800cdb4 <__sfp+0x1c>
 800ce00:	2104      	movs	r1, #4
 800ce02:	4638      	mov	r0, r7
 800ce04:	f7ff ff62 	bl	800cccc <__sfmoreglue>
 800ce08:	4604      	mov	r4, r0
 800ce0a:	6030      	str	r0, [r6, #0]
 800ce0c:	2800      	cmp	r0, #0
 800ce0e:	d1d5      	bne.n	800cdbc <__sfp+0x24>
 800ce10:	f7ff ff78 	bl	800cd04 <__sfp_lock_release>
 800ce14:	230c      	movs	r3, #12
 800ce16:	603b      	str	r3, [r7, #0]
 800ce18:	e7ee      	b.n	800cdf8 <__sfp+0x60>
 800ce1a:	bf00      	nop
 800ce1c:	0800fe30 	.word	0x0800fe30
 800ce20:	ffff0001 	.word	0xffff0001

0800ce24 <fiprintf>:
 800ce24:	b40e      	push	{r1, r2, r3}
 800ce26:	b503      	push	{r0, r1, lr}
 800ce28:	4601      	mov	r1, r0
 800ce2a:	ab03      	add	r3, sp, #12
 800ce2c:	4805      	ldr	r0, [pc, #20]	; (800ce44 <fiprintf+0x20>)
 800ce2e:	f853 2b04 	ldr.w	r2, [r3], #4
 800ce32:	6800      	ldr	r0, [r0, #0]
 800ce34:	9301      	str	r3, [sp, #4]
 800ce36:	f000 fdf5 	bl	800da24 <_vfiprintf_r>
 800ce3a:	b002      	add	sp, #8
 800ce3c:	f85d eb04 	ldr.w	lr, [sp], #4
 800ce40:	b003      	add	sp, #12
 800ce42:	4770      	bx	lr
 800ce44:	20000738 	.word	0x20000738

0800ce48 <_fwalk_reent>:
 800ce48:	e92d 43f8 	stmdb	sp!, {r3, r4, r5, r6, r7, r8, r9, lr}
 800ce4c:	4606      	mov	r6, r0
 800ce4e:	4688      	mov	r8, r1
 800ce50:	f100 0448 	add.w	r4, r0, #72	; 0x48
 800ce54:	2700      	movs	r7, #0
 800ce56:	e9d4 9501 	ldrd	r9, r5, [r4, #4]
 800ce5a:	f1b9 0901 	subs.w	r9, r9, #1
 800ce5e:	d505      	bpl.n	800ce6c <_fwalk_reent+0x24>
 800ce60:	6824      	ldr	r4, [r4, #0]
 800ce62:	2c00      	cmp	r4, #0
 800ce64:	d1f7      	bne.n	800ce56 <_fwalk_reent+0xe>
 800ce66:	4638      	mov	r0, r7
 800ce68:	e8bd 83f8 	ldmia.w	sp!, {r3, r4, r5, r6, r7, r8, r9, pc}
 800ce6c:	89ab      	ldrh	r3, [r5, #12]
 800ce6e:	2b01      	cmp	r3, #1
 800ce70:	d907      	bls.n	800ce82 <_fwalk_reent+0x3a>
 800ce72:	f9b5 300e 	ldrsh.w	r3, [r5, #14]
 800ce76:	3301      	adds	r3, #1
 800ce78:	d003      	beq.n	800ce82 <_fwalk_reent+0x3a>
 800ce7a:	4629      	mov	r1, r5
 800ce7c:	4630      	mov	r0, r6
 800ce7e:	47c0      	blx	r8
 800ce80:	4307      	orrs	r7, r0
 800ce82:	3568      	adds	r5, #104	; 0x68
 800ce84:	e7e9      	b.n	800ce5a <_fwalk_reent+0x12>
	...

0800ce88 <_localeconv_r>:
 800ce88:	4800      	ldr	r0, [pc, #0]	; (800ce8c <_localeconv_r+0x4>)
 800ce8a:	4770      	bx	lr
 800ce8c:	2000088c 	.word	0x2000088c

0800ce90 <__retarget_lock_init_recursive>:
 800ce90:	4770      	bx	lr

0800ce92 <__retarget_lock_acquire_recursive>:
 800ce92:	4770      	bx	lr

0800ce94 <__retarget_lock_release_recursive>:
 800ce94:	4770      	bx	lr
	...

0800ce98 <malloc>:
 800ce98:	4b02      	ldr	r3, [pc, #8]	; (800cea4 <malloc+0xc>)
 800ce9a:	4601      	mov	r1, r0
 800ce9c:	6818      	ldr	r0, [r3, #0]
 800ce9e:	f000 bbe1 	b.w	800d664 <_malloc_r>
 800cea2:	bf00      	nop
 800cea4:	20000738 	.word	0x20000738

0800cea8 <_Balloc>:
 800cea8:	b570      	push	{r4, r5, r6, lr}
 800ceaa:	6a46      	ldr	r6, [r0, #36]	; 0x24
 800ceac:	4604      	mov	r4, r0
 800ceae:	460d      	mov	r5, r1
 800ceb0:	b976      	cbnz	r6, 800ced0 <_Balloc+0x28>
 800ceb2:	2010      	movs	r0, #16
 800ceb4:	f7ff fff0 	bl	800ce98 <malloc>
 800ceb8:	4602      	mov	r2, r0
 800ceba:	6260      	str	r0, [r4, #36]	; 0x24
 800cebc:	b920      	cbnz	r0, 800cec8 <_Balloc+0x20>
 800cebe:	4b18      	ldr	r3, [pc, #96]	; (800cf20 <_Balloc+0x78>)
 800cec0:	4818      	ldr	r0, [pc, #96]	; (800cf24 <_Balloc+0x7c>)
 800cec2:	2166      	movs	r1, #102	; 0x66
 800cec4:	f7ff f840 	bl	800bf48 <__assert_func>
 800cec8:	e9c0 6601 	strd	r6, r6, [r0, #4]
 800cecc:	6006      	str	r6, [r0, #0]
 800cece:	60c6      	str	r6, [r0, #12]
 800ced0:	6a66      	ldr	r6, [r4, #36]	; 0x24
 800ced2:	68f3      	ldr	r3, [r6, #12]
 800ced4:	b183      	cbz	r3, 800cef8 <_Balloc+0x50>
 800ced6:	6a63      	ldr	r3, [r4, #36]	; 0x24
 800ced8:	68db      	ldr	r3, [r3, #12]
 800ceda:	f853 0025 	ldr.w	r0, [r3, r5, lsl #2]
 800cede:	b9b8      	cbnz	r0, 800cf10 <_Balloc+0x68>
 800cee0:	2101      	movs	r1, #1
 800cee2:	fa01 f605 	lsl.w	r6, r1, r5
 800cee6:	1d72      	adds	r2, r6, #5
 800cee8:	0092      	lsls	r2, r2, #2
 800ceea:	4620      	mov	r0, r4
 800ceec:	f000 fb5a 	bl	800d5a4 <_calloc_r>
 800cef0:	b160      	cbz	r0, 800cf0c <_Balloc+0x64>
 800cef2:	e9c0 5601 	strd	r5, r6, [r0, #4]
 800cef6:	e00e      	b.n	800cf16 <_Balloc+0x6e>
 800cef8:	2221      	movs	r2, #33	; 0x21
 800cefa:	2104      	movs	r1, #4
 800cefc:	4620      	mov	r0, r4
 800cefe:	f000 fb51 	bl	800d5a4 <_calloc_r>
 800cf02:	6a63      	ldr	r3, [r4, #36]	; 0x24
 800cf04:	60f0      	str	r0, [r6, #12]
 800cf06:	68db      	ldr	r3, [r3, #12]
 800cf08:	2b00      	cmp	r3, #0
 800cf0a:	d1e4      	bne.n	800ced6 <_Balloc+0x2e>
 800cf0c:	2000      	movs	r0, #0
 800cf0e:	bd70      	pop	{r4, r5, r6, pc}
 800cf10:	6802      	ldr	r2, [r0, #0]
 800cf12:	f843 2025 	str.w	r2, [r3, r5, lsl #2]
 800cf16:	2300      	movs	r3, #0
 800cf18:	e9c0 3303 	strd	r3, r3, [r0, #12]
 800cf1c:	e7f7      	b.n	800cf0e <_Balloc+0x66>
 800cf1e:	bf00      	nop
 800cf20:	0800fe68 	.word	0x0800fe68
 800cf24:	0800fff8 	.word	0x0800fff8

0800cf28 <_Bfree>:
 800cf28:	b570      	push	{r4, r5, r6, lr}
 800cf2a:	6a46      	ldr	r6, [r0, #36]	; 0x24
 800cf2c:	4605      	mov	r5, r0
 800cf2e:	460c      	mov	r4, r1
 800cf30:	b976      	cbnz	r6, 800cf50 <_Bfree+0x28>
 800cf32:	2010      	movs	r0, #16
 800cf34:	f7ff ffb0 	bl	800ce98 <malloc>
 800cf38:	4602      	mov	r2, r0
 800cf3a:	6268      	str	r0, [r5, #36]	; 0x24
 800cf3c:	b920      	cbnz	r0, 800cf48 <_Bfree+0x20>
 800cf3e:	4b09      	ldr	r3, [pc, #36]	; (800cf64 <_Bfree+0x3c>)
 800cf40:	4809      	ldr	r0, [pc, #36]	; (800cf68 <_Bfree+0x40>)
 800cf42:	218a      	movs	r1, #138	; 0x8a
 800cf44:	f7ff f800 	bl	800bf48 <__assert_func>
 800cf48:	e9c0 6601 	strd	r6, r6, [r0, #4]
 800cf4c:	6006      	str	r6, [r0, #0]
 800cf4e:	60c6      	str	r6, [r0, #12]
 800cf50:	b13c      	cbz	r4, 800cf62 <_Bfree+0x3a>
 800cf52:	6a6b      	ldr	r3, [r5, #36]	; 0x24
 800cf54:	6862      	ldr	r2, [r4, #4]
 800cf56:	68db      	ldr	r3, [r3, #12]
 800cf58:	f853 1022 	ldr.w	r1, [r3, r2, lsl #2]
 800cf5c:	6021      	str	r1, [r4, #0]
 800cf5e:	f843 4022 	str.w	r4, [r3, r2, lsl #2]
 800cf62:	bd70      	pop	{r4, r5, r6, pc}
 800cf64:	0800fe68 	.word	0x0800fe68
 800cf68:	0800fff8 	.word	0x0800fff8

0800cf6c <__multadd>:
 800cf6c:	e92d 41f0 	stmdb	sp!, {r4, r5, r6, r7, r8, lr}
 800cf70:	690e      	ldr	r6, [r1, #16]
 800cf72:	4607      	mov	r7, r0
 800cf74:	4698      	mov	r8, r3
 800cf76:	460c      	mov	r4, r1
 800cf78:	f101 0014 	add.w	r0, r1, #20
 800cf7c:	2300      	movs	r3, #0
 800cf7e:	6805      	ldr	r5, [r0, #0]
 800cf80:	b2a9      	uxth	r1, r5
 800cf82:	fb02 8101 	mla	r1, r2, r1, r8
 800cf86:	ea4f 4c11 	mov.w	ip, r1, lsr #16
 800cf8a:	0c2d      	lsrs	r5, r5, #16
 800cf8c:	fb02 c505 	mla	r5, r2, r5, ip
 800cf90:	b289      	uxth	r1, r1
 800cf92:	3301      	adds	r3, #1
 800cf94:	eb01 4105 	add.w	r1, r1, r5, lsl #16
 800cf98:	429e      	cmp	r6, r3
 800cf9a:	f840 1b04 	str.w	r1, [r0], #4
 800cf9e:	ea4f 4815 	mov.w	r8, r5, lsr #16
 800cfa2:	dcec      	bgt.n	800cf7e <__multadd+0x12>
 800cfa4:	f1b8 0f00 	cmp.w	r8, #0
 800cfa8:	d022      	beq.n	800cff0 <__multadd+0x84>
 800cfaa:	68a3      	ldr	r3, [r4, #8]
 800cfac:	42b3      	cmp	r3, r6
 800cfae:	dc19      	bgt.n	800cfe4 <__multadd+0x78>
 800cfb0:	6861      	ldr	r1, [r4, #4]
 800cfb2:	4638      	mov	r0, r7
 800cfb4:	3101      	adds	r1, #1
 800cfb6:	f7ff ff77 	bl	800cea8 <_Balloc>
 800cfba:	4605      	mov	r5, r0
 800cfbc:	b928      	cbnz	r0, 800cfca <__multadd+0x5e>
 800cfbe:	4602      	mov	r2, r0
 800cfc0:	4b0d      	ldr	r3, [pc, #52]	; (800cff8 <__multadd+0x8c>)
 800cfc2:	480e      	ldr	r0, [pc, #56]	; (800cffc <__multadd+0x90>)
 800cfc4:	21b5      	movs	r1, #181	; 0xb5
 800cfc6:	f7fe ffbf 	bl	800bf48 <__assert_func>
 800cfca:	6922      	ldr	r2, [r4, #16]
 800cfcc:	3202      	adds	r2, #2
 800cfce:	f104 010c 	add.w	r1, r4, #12
 800cfd2:	0092      	lsls	r2, r2, #2
 800cfd4:	300c      	adds	r0, #12
 800cfd6:	f7fe fa91 	bl	800b4fc <memcpy>
 800cfda:	4621      	mov	r1, r4
 800cfdc:	4638      	mov	r0, r7
 800cfde:	f7ff ffa3 	bl	800cf28 <_Bfree>
 800cfe2:	462c      	mov	r4, r5
 800cfe4:	eb04 0386 	add.w	r3, r4, r6, lsl #2
 800cfe8:	3601      	adds	r6, #1
 800cfea:	f8c3 8014 	str.w	r8, [r3, #20]
 800cfee:	6126      	str	r6, [r4, #16]
 800cff0:	4620      	mov	r0, r4
 800cff2:	e8bd 81f0 	ldmia.w	sp!, {r4, r5, r6, r7, r8, pc}
 800cff6:	bf00      	nop
 800cff8:	0800ff86 	.word	0x0800ff86
 800cffc:	0800fff8 	.word	0x0800fff8

0800d000 <__hi0bits>:
 800d000:	0c03      	lsrs	r3, r0, #16
 800d002:	041b      	lsls	r3, r3, #16
 800d004:	b9d3      	cbnz	r3, 800d03c <__hi0bits+0x3c>
 800d006:	0400      	lsls	r0, r0, #16
 800d008:	2310      	movs	r3, #16
 800d00a:	f010 4f7f 	tst.w	r0, #4278190080	; 0xff000000
 800d00e:	bf04      	itt	eq
 800d010:	0200      	lsleq	r0, r0, #8
 800d012:	3308      	addeq	r3, #8
 800d014:	f010 4f70 	tst.w	r0, #4026531840	; 0xf0000000
 800d018:	bf04      	itt	eq
 800d01a:	0100      	lsleq	r0, r0, #4
 800d01c:	3304      	addeq	r3, #4
 800d01e:	f010 4f40 	tst.w	r0, #3221225472	; 0xc0000000
 800d022:	bf04      	itt	eq
 800d024:	0080      	lsleq	r0, r0, #2
 800d026:	3302      	addeq	r3, #2
 800d028:	2800      	cmp	r0, #0
 800d02a:	db05      	blt.n	800d038 <__hi0bits+0x38>
 800d02c:	f010 4f80 	tst.w	r0, #1073741824	; 0x40000000
 800d030:	f103 0301 	add.w	r3, r3, #1
 800d034:	bf08      	it	eq
 800d036:	2320      	moveq	r3, #32
 800d038:	4618      	mov	r0, r3
 800d03a:	4770      	bx	lr
 800d03c:	2300      	movs	r3, #0
 800d03e:	e7e4      	b.n	800d00a <__hi0bits+0xa>

0800d040 <__lo0bits>:
 800d040:	6803      	ldr	r3, [r0, #0]
 800d042:	f013 0207 	ands.w	r2, r3, #7
 800d046:	4601      	mov	r1, r0
 800d048:	d00b      	beq.n	800d062 <__lo0bits+0x22>
 800d04a:	07da      	lsls	r2, r3, #31
 800d04c:	d424      	bmi.n	800d098 <__lo0bits+0x58>
 800d04e:	0798      	lsls	r0, r3, #30
 800d050:	bf49      	itett	mi
 800d052:	085b      	lsrmi	r3, r3, #1
 800d054:	089b      	lsrpl	r3, r3, #2
 800d056:	2001      	movmi	r0, #1
 800d058:	600b      	strmi	r3, [r1, #0]
 800d05a:	bf5c      	itt	pl
 800d05c:	600b      	strpl	r3, [r1, #0]
 800d05e:	2002      	movpl	r0, #2
 800d060:	4770      	bx	lr
 800d062:	b298      	uxth	r0, r3
 800d064:	b9b0      	cbnz	r0, 800d094 <__lo0bits+0x54>
 800d066:	0c1b      	lsrs	r3, r3, #16
 800d068:	2010      	movs	r0, #16
 800d06a:	f013 0fff 	tst.w	r3, #255	; 0xff
 800d06e:	bf04      	itt	eq
 800d070:	0a1b      	lsreq	r3, r3, #8
 800d072:	3008      	addeq	r0, #8
 800d074:	071a      	lsls	r2, r3, #28
 800d076:	bf04      	itt	eq
 800d078:	091b      	lsreq	r3, r3, #4
 800d07a:	3004      	addeq	r0, #4
 800d07c:	079a      	lsls	r2, r3, #30
 800d07e:	bf04      	itt	eq
 800d080:	089b      	lsreq	r3, r3, #2
 800d082:	3002      	addeq	r0, #2
 800d084:	07da      	lsls	r2, r3, #31
 800d086:	d403      	bmi.n	800d090 <__lo0bits+0x50>
 800d088:	085b      	lsrs	r3, r3, #1
 800d08a:	f100 0001 	add.w	r0, r0, #1
 800d08e:	d005      	beq.n	800d09c <__lo0bits+0x5c>
 800d090:	600b      	str	r3, [r1, #0]
 800d092:	4770      	bx	lr
 800d094:	4610      	mov	r0, r2
 800d096:	e7e8      	b.n	800d06a <__lo0bits+0x2a>
 800d098:	2000      	movs	r0, #0
 800d09a:	4770      	bx	lr
 800d09c:	2020      	movs	r0, #32
 800d09e:	4770      	bx	lr

0800d0a0 <__i2b>:
 800d0a0:	b510      	push	{r4, lr}
 800d0a2:	460c      	mov	r4, r1
 800d0a4:	2101      	movs	r1, #1
 800d0a6:	f7ff feff 	bl	800cea8 <_Balloc>
 800d0aa:	4602      	mov	r2, r0
 800d0ac:	b928      	cbnz	r0, 800d0ba <__i2b+0x1a>
 800d0ae:	4b05      	ldr	r3, [pc, #20]	; (800d0c4 <__i2b+0x24>)
 800d0b0:	4805      	ldr	r0, [pc, #20]	; (800d0c8 <__i2b+0x28>)
 800d0b2:	f44f 71a0 	mov.w	r1, #320	; 0x140
 800d0b6:	f7fe ff47 	bl	800bf48 <__assert_func>
 800d0ba:	2301      	movs	r3, #1
 800d0bc:	6144      	str	r4, [r0, #20]
 800d0be:	6103      	str	r3, [r0, #16]
 800d0c0:	bd10      	pop	{r4, pc}
 800d0c2:	bf00      	nop
 800d0c4:	0800ff86 	.word	0x0800ff86
 800d0c8:	0800fff8 	.word	0x0800fff8

0800d0cc <__multiply>:
 800d0cc:	e92d 4ff0 	stmdb	sp!, {r4, r5, r6, r7, r8, r9, sl, fp, lr}
 800d0d0:	4614      	mov	r4, r2
 800d0d2:	690a      	ldr	r2, [r1, #16]
 800d0d4:	6923      	ldr	r3, [r4, #16]
 800d0d6:	429a      	cmp	r2, r3
 800d0d8:	bfb8      	it	lt
 800d0da:	460b      	movlt	r3, r1
 800d0dc:	460d      	mov	r5, r1
 800d0de:	bfbc      	itt	lt
 800d0e0:	4625      	movlt	r5, r4
 800d0e2:	461c      	movlt	r4, r3
 800d0e4:	f8d5 a010 	ldr.w	sl, [r5, #16]
 800d0e8:	f8d4 9010 	ldr.w	r9, [r4, #16]
 800d0ec:	68ab      	ldr	r3, [r5, #8]
 800d0ee:	6869      	ldr	r1, [r5, #4]
 800d0f0:	eb0a 0709 	add.w	r7, sl, r9
 800d0f4:	42bb      	cmp	r3, r7
 800d0f6:	b085      	sub	sp, #20
 800d0f8:	bfb8      	it	lt
 800d0fa:	3101      	addlt	r1, #1
 800d0fc:	f7ff fed4 	bl	800cea8 <_Balloc>
 800d100:	b930      	cbnz	r0, 800d110 <__multiply+0x44>
 800d102:	4602      	mov	r2, r0
 800d104:	4b42      	ldr	r3, [pc, #264]	; (800d210 <__multiply+0x144>)
 800d106:	4843      	ldr	r0, [pc, #268]	; (800d214 <__multiply+0x148>)
 800d108:	f240 115d 	movw	r1, #349	; 0x15d
 800d10c:	f7fe ff1c 	bl	800bf48 <__assert_func>
 800d110:	f100 0614 	add.w	r6, r0, #20
 800d114:	eb06 0887 	add.w	r8, r6, r7, lsl #2
 800d118:	4633      	mov	r3, r6
 800d11a:	2200      	movs	r2, #0
 800d11c:	4543      	cmp	r3, r8
 800d11e:	d31e      	bcc.n	800d15e <__multiply+0x92>
 800d120:	f105 0c14 	add.w	ip, r5, #20
 800d124:	f104 0314 	add.w	r3, r4, #20
 800d128:	eb0c 0c8a 	add.w	ip, ip, sl, lsl #2
 800d12c:	eb03 0289 	add.w	r2, r3, r9, lsl #2
 800d130:	9202      	str	r2, [sp, #8]
 800d132:	ebac 0205 	sub.w	r2, ip, r5
 800d136:	3a15      	subs	r2, #21
 800d138:	f022 0203 	bic.w	r2, r2, #3
 800d13c:	3204      	adds	r2, #4
 800d13e:	f105 0115 	add.w	r1, r5, #21
 800d142:	458c      	cmp	ip, r1
 800d144:	bf38      	it	cc
 800d146:	2204      	movcc	r2, #4
 800d148:	9201      	str	r2, [sp, #4]
 800d14a:	9a02      	ldr	r2, [sp, #8]
 800d14c:	9303      	str	r3, [sp, #12]
 800d14e:	429a      	cmp	r2, r3
 800d150:	d808      	bhi.n	800d164 <__multiply+0x98>
 800d152:	2f00      	cmp	r7, #0
 800d154:	dc55      	bgt.n	800d202 <__multiply+0x136>
 800d156:	6107      	str	r7, [r0, #16]
 800d158:	b005      	add	sp, #20
 800d15a:	e8bd 8ff0 	ldmia.w	sp!, {r4, r5, r6, r7, r8, r9, sl, fp, pc}
 800d15e:	f843 2b04 	str.w	r2, [r3], #4
 800d162:	e7db      	b.n	800d11c <__multiply+0x50>
 800d164:	f8b3 a000 	ldrh.w	sl, [r3]
 800d168:	f1ba 0f00 	cmp.w	sl, #0
 800d16c:	d020      	beq.n	800d1b0 <__multiply+0xe4>
 800d16e:	f105 0e14 	add.w	lr, r5, #20
 800d172:	46b1      	mov	r9, r6
 800d174:	2200      	movs	r2, #0
 800d176:	f85e 4b04 	ldr.w	r4, [lr], #4
 800d17a:	f8d9 b000 	ldr.w	fp, [r9]
 800d17e:	b2a1      	uxth	r1, r4
 800d180:	fa1f fb8b 	uxth.w	fp, fp
 800d184:	fb0a b101 	mla	r1, sl, r1, fp
 800d188:	4411      	add	r1, r2
 800d18a:	f8d9 2000 	ldr.w	r2, [r9]
 800d18e:	0c24      	lsrs	r4, r4, #16
 800d190:	0c12      	lsrs	r2, r2, #16
 800d192:	fb0a 2404 	mla	r4, sl, r4, r2
 800d196:	eb04 4411 	add.w	r4, r4, r1, lsr #16
 800d19a:	b289      	uxth	r1, r1
 800d19c:	ea41 4104 	orr.w	r1, r1, r4, lsl #16
 800d1a0:	45f4      	cmp	ip, lr
 800d1a2:	f849 1b04 	str.w	r1, [r9], #4
 800d1a6:	ea4f 4214 	mov.w	r2, r4, lsr #16
 800d1aa:	d8e4      	bhi.n	800d176 <__multiply+0xaa>
 800d1ac:	9901      	ldr	r1, [sp, #4]
 800d1ae:	5072      	str	r2, [r6, r1]
 800d1b0:	9a03      	ldr	r2, [sp, #12]
 800d1b2:	f8b2 9002 	ldrh.w	r9, [r2, #2]
 800d1b6:	3304      	adds	r3, #4
 800d1b8:	f1b9 0f00 	cmp.w	r9, #0
 800d1bc:	d01f      	beq.n	800d1fe <__multiply+0x132>
 800d1be:	6834      	ldr	r4, [r6, #0]
 800d1c0:	f105 0114 	add.w	r1, r5, #20
 800d1c4:	46b6      	mov	lr, r6
 800d1c6:	f04f 0a00 	mov.w	sl, #0
 800d1ca:	880a      	ldrh	r2, [r1, #0]
 800d1cc:	f8be b002 	ldrh.w	fp, [lr, #2]
 800d1d0:	fb09 b202 	mla	r2, r9, r2, fp
 800d1d4:	4492      	add	sl, r2
 800d1d6:	b2a4      	uxth	r4, r4
 800d1d8:	ea44 440a 	orr.w	r4, r4, sl, lsl #16
 800d1dc:	f84e 4b04 	str.w	r4, [lr], #4
 800d1e0:	f851 4b04 	ldr.w	r4, [r1], #4
 800d1e4:	f8be 2000 	ldrh.w	r2, [lr]
 800d1e8:	0c24      	lsrs	r4, r4, #16
 800d1ea:	fb09 2404 	mla	r4, r9, r4, r2
 800d1ee:	eb04 441a 	add.w	r4, r4, sl, lsr #16
 800d1f2:	458c      	cmp	ip, r1
 800d1f4:	ea4f 4a14 	mov.w	sl, r4, lsr #16
 800d1f8:	d8e7      	bhi.n	800d1ca <__multiply+0xfe>
 800d1fa:	9a01      	ldr	r2, [sp, #4]
 800d1fc:	50b4      	str	r4, [r6, r2]
 800d1fe:	3604      	adds	r6, #4
 800d200:	e7a3      	b.n	800d14a <__multiply+0x7e>
 800d202:	f858 3d04 	ldr.w	r3, [r8, #-4]!
 800d206:	2b00      	cmp	r3, #0
 800d208:	d1a5      	bne.n	800d156 <__multiply+0x8a>
 800d20a:	3f01      	subs	r7, #1
 800d20c:	e7a1      	b.n	800d152 <__multiply+0x86>
 800d20e:	bf00      	nop
 800d210:	0800ff86 	.word	0x0800ff86
 800d214:	0800fff8 	.word	0x0800fff8

0800d218 <__pow5mult>:
 800d218:	e92d 43f8 	stmdb	sp!, {r3, r4, r5, r6, r7, r8, r9, lr}
 800d21c:	4615      	mov	r5, r2
 800d21e:	f012 0203 	ands.w	r2, r2, #3
 800d222:	4606      	mov	r6, r0
 800d224:	460f      	mov	r7, r1
 800d226:	d007      	beq.n	800d238 <__pow5mult+0x20>
 800d228:	4c25      	ldr	r4, [pc, #148]	; (800d2c0 <__pow5mult+0xa8>)
 800d22a:	3a01      	subs	r2, #1
 800d22c:	2300      	movs	r3, #0
 800d22e:	f854 2022 	ldr.w	r2, [r4, r2, lsl #2]
 800d232:	f7ff fe9b 	bl	800cf6c <__multadd>
 800d236:	4607      	mov	r7, r0
 800d238:	10ad      	asrs	r5, r5, #2
 800d23a:	d03d      	beq.n	800d2b8 <__pow5mult+0xa0>
 800d23c:	6a74      	ldr	r4, [r6, #36]	; 0x24
 800d23e:	b97c      	cbnz	r4, 800d260 <__pow5mult+0x48>
 800d240:	2010      	movs	r0, #16
 800d242:	f7ff fe29 	bl	800ce98 <malloc>
 800d246:	4602      	mov	r2, r0
 800d248:	6270      	str	r0, [r6, #36]	; 0x24
 800d24a:	b928      	cbnz	r0, 800d258 <__pow5mult+0x40>
 800d24c:	4b1d      	ldr	r3, [pc, #116]	; (800d2c4 <__pow5mult+0xac>)
 800d24e:	481e      	ldr	r0, [pc, #120]	; (800d2c8 <__pow5mult+0xb0>)
 800d250:	f44f 71d7 	mov.w	r1, #430	; 0x1ae
 800d254:	f7fe fe78 	bl	800bf48 <__assert_func>
 800d258:	e9c0 4401 	strd	r4, r4, [r0, #4]
 800d25c:	6004      	str	r4, [r0, #0]
 800d25e:	60c4      	str	r4, [r0, #12]
 800d260:	f8d6 8024 	ldr.w	r8, [r6, #36]	; 0x24
 800d264:	f8d8 4008 	ldr.w	r4, [r8, #8]
 800d268:	b94c      	cbnz	r4, 800d27e <__pow5mult+0x66>
 800d26a:	f240 2171 	movw	r1, #625	; 0x271
 800d26e:	4630      	mov	r0, r6
 800d270:	f7ff ff16 	bl	800d0a0 <__i2b>
 800d274:	2300      	movs	r3, #0
 800d276:	f8c8 0008 	str.w	r0, [r8, #8]
 800d27a:	4604      	mov	r4, r0
 800d27c:	6003      	str	r3, [r0, #0]
 800d27e:	f04f 0900 	mov.w	r9, #0
 800d282:	07eb      	lsls	r3, r5, #31
 800d284:	d50a      	bpl.n	800d29c <__pow5mult+0x84>
 800d286:	4639      	mov	r1, r7
 800d288:	4622      	mov	r2, r4
 800d28a:	4630      	mov	r0, r6
 800d28c:	f7ff ff1e 	bl	800d0cc <__multiply>
 800d290:	4639      	mov	r1, r7
 800d292:	4680      	mov	r8, r0
 800d294:	4630      	mov	r0, r6
 800d296:	f7ff fe47 	bl	800cf28 <_Bfree>
 800d29a:	4647      	mov	r7, r8
 800d29c:	106d      	asrs	r5, r5, #1
 800d29e:	d00b      	beq.n	800d2b8 <__pow5mult+0xa0>
 800d2a0:	6820      	ldr	r0, [r4, #0]
 800d2a2:	b938      	cbnz	r0, 800d2b4 <__pow5mult+0x9c>
 800d2a4:	4622      	mov	r2, r4
 800d2a6:	4621      	mov	r1, r4
 800d2a8:	4630      	mov	r0, r6
 800d2aa:	f7ff ff0f 	bl	800d0cc <__multiply>
 800d2ae:	6020      	str	r0, [r4, #0]
 800d2b0:	f8c0 9000 	str.w	r9, [r0]
 800d2b4:	4604      	mov	r4, r0
 800d2b6:	e7e4      	b.n	800d282 <__pow5mult+0x6a>
 800d2b8:	4638      	mov	r0, r7
 800d2ba:	e8bd 83f8 	ldmia.w	sp!, {r3, r4, r5, r6, r7, r8, r9, pc}
 800d2be:	bf00      	nop
 800d2c0:	08010148 	.word	0x08010148
 800d2c4:	0800fe68 	.word	0x0800fe68
 800d2c8:	0800fff8 	.word	0x0800fff8

0800d2cc <__lshift>:
 800d2cc:	e92d 47f0 	stmdb	sp!, {r4, r5, r6, r7, r8, r9, sl, lr}
 800d2d0:	460c      	mov	r4, r1
 800d2d2:	6849      	ldr	r1, [r1, #4]
 800d2d4:	6923      	ldr	r3, [r4, #16]
 800d2d6:	eb03 1862 	add.w	r8, r3, r2, asr #5
 800d2da:	68a3      	ldr	r3, [r4, #8]
 800d2dc:	4607      	mov	r7, r0
 800d2de:	4691      	mov	r9, r2
 800d2e0:	ea4f 1a62 	mov.w	sl, r2, asr #5
 800d2e4:	f108 0601 	add.w	r6, r8, #1
 800d2e8:	42b3      	cmp	r3, r6
 800d2ea:	db0b      	blt.n	800d304 <__lshift+0x38>
 800d2ec:	4638      	mov	r0, r7
 800d2ee:	f7ff fddb 	bl	800cea8 <_Balloc>
 800d2f2:	4605      	mov	r5, r0
 800d2f4:	b948      	cbnz	r0, 800d30a <__lshift+0x3e>
 800d2f6:	4602      	mov	r2, r0
 800d2f8:	4b28      	ldr	r3, [pc, #160]	; (800d39c <__lshift+0xd0>)
 800d2fa:	4829      	ldr	r0, [pc, #164]	; (800d3a0 <__lshift+0xd4>)
 800d2fc:	f240 11d9 	movw	r1, #473	; 0x1d9
 800d300:	f7fe fe22 	bl	800bf48 <__assert_func>
 800d304:	3101      	adds	r1, #1
 800d306:	005b      	lsls	r3, r3, #1
 800d308:	e7ee      	b.n	800d2e8 <__lshift+0x1c>
 800d30a:	2300      	movs	r3, #0
 800d30c:	f100 0114 	add.w	r1, r0, #20
 800d310:	f100 0210 	add.w	r2, r0, #16
 800d314:	4618      	mov	r0, r3
 800d316:	4553      	cmp	r3, sl
 800d318:	db33      	blt.n	800d382 <__lshift+0xb6>
 800d31a:	6920      	ldr	r0, [r4, #16]
 800d31c:	ea2a 7aea 	bic.w	sl, sl, sl, asr #31
 800d320:	f104 0314 	add.w	r3, r4, #20
 800d324:	f019 091f 	ands.w	r9, r9, #31
 800d328:	eb01 018a 	add.w	r1, r1, sl, lsl #2
 800d32c:	eb03 0c80 	add.w	ip, r3, r0, lsl #2
 800d330:	d02b      	beq.n	800d38a <__lshift+0xbe>
 800d332:	f1c9 0e20 	rsb	lr, r9, #32
 800d336:	468a      	mov	sl, r1
 800d338:	2200      	movs	r2, #0
 800d33a:	6818      	ldr	r0, [r3, #0]
 800d33c:	fa00 f009 	lsl.w	r0, r0, r9
 800d340:	4302      	orrs	r2, r0
 800d342:	f84a 2b04 	str.w	r2, [sl], #4
 800d346:	f853 2b04 	ldr.w	r2, [r3], #4
 800d34a:	459c      	cmp	ip, r3
 800d34c:	fa22 f20e 	lsr.w	r2, r2, lr
 800d350:	d8f3      	bhi.n	800d33a <__lshift+0x6e>
 800d352:	ebac 0304 	sub.w	r3, ip, r4
 800d356:	3b15      	subs	r3, #21
 800d358:	f023 0303 	bic.w	r3, r3, #3
 800d35c:	3304      	adds	r3, #4
 800d35e:	f104 0015 	add.w	r0, r4, #21
 800d362:	4584      	cmp	ip, r0
 800d364:	bf38      	it	cc
 800d366:	2304      	movcc	r3, #4
 800d368:	50ca      	str	r2, [r1, r3]
 800d36a:	b10a      	cbz	r2, 800d370 <__lshift+0xa4>
 800d36c:	f108 0602 	add.w	r6, r8, #2
 800d370:	3e01      	subs	r6, #1
 800d372:	4638      	mov	r0, r7
 800d374:	612e      	str	r6, [r5, #16]
 800d376:	4621      	mov	r1, r4
 800d378:	f7ff fdd6 	bl	800cf28 <_Bfree>
 800d37c:	4628      	mov	r0, r5
 800d37e:	e8bd 87f0 	ldmia.w	sp!, {r4, r5, r6, r7, r8, r9, sl, pc}
 800d382:	f842 0f04 	str.w	r0, [r2, #4]!
 800d386:	3301      	adds	r3, #1
 800d388:	e7c5      	b.n	800d316 <__lshift+0x4a>
 800d38a:	3904      	subs	r1, #4
 800d38c:	f853 2b04 	ldr.w	r2, [r3], #4
 800d390:	f841 2f04 	str.w	r2, [r1, #4]!
 800d394:	459c      	cmp	ip, r3
 800d396:	d8f9      	bhi.n	800d38c <__lshift+0xc0>
 800d398:	e7ea      	b.n	800d370 <__lshift+0xa4>
 800d39a:	bf00      	nop
 800d39c:	0800ff86 	.word	0x0800ff86
 800d3a0:	0800fff8 	.word	0x0800fff8

0800d3a4 <__mcmp>:
 800d3a4:	b530      	push	{r4, r5, lr}
 800d3a6:	6902      	ldr	r2, [r0, #16]
 800d3a8:	690c      	ldr	r4, [r1, #16]
 800d3aa:	1b12      	subs	r2, r2, r4
 800d3ac:	d10e      	bne.n	800d3cc <__mcmp+0x28>
 800d3ae:	f100 0314 	add.w	r3, r0, #20
 800d3b2:	3114      	adds	r1, #20
 800d3b4:	eb03 0084 	add.w	r0, r3, r4, lsl #2
 800d3b8:	eb01 0184 	add.w	r1, r1, r4, lsl #2
 800d3bc:	f850 5d04 	ldr.w	r5, [r0, #-4]!
 800d3c0:	f851 4d04 	ldr.w	r4, [r1, #-4]!
 800d3c4:	42a5      	cmp	r5, r4
 800d3c6:	d003      	beq.n	800d3d0 <__mcmp+0x2c>
 800d3c8:	d305      	bcc.n	800d3d6 <__mcmp+0x32>
 800d3ca:	2201      	movs	r2, #1
 800d3cc:	4610      	mov	r0, r2
 800d3ce:	bd30      	pop	{r4, r5, pc}
 800d3d0:	4283      	cmp	r3, r0
 800d3d2:	d3f3      	bcc.n	800d3bc <__mcmp+0x18>
 800d3d4:	e7fa      	b.n	800d3cc <__mcmp+0x28>
 800d3d6:	f04f 32ff 	mov.w	r2, #4294967295
 800d3da:	e7f7      	b.n	800d3cc <__mcmp+0x28>

0800d3dc <__mdiff>:
 800d3dc:	e92d 4ff8 	stmdb	sp!, {r3, r4, r5, r6, r7, r8, r9, sl, fp, lr}
 800d3e0:	460c      	mov	r4, r1
 800d3e2:	4606      	mov	r6, r0
 800d3e4:	4611      	mov	r1, r2
 800d3e6:	4620      	mov	r0, r4
 800d3e8:	4617      	mov	r7, r2
 800d3ea:	f7ff ffdb 	bl	800d3a4 <__mcmp>
 800d3ee:	1e05      	subs	r5, r0, #0
 800d3f0:	d110      	bne.n	800d414 <__mdiff+0x38>
 800d3f2:	4629      	mov	r1, r5
 800d3f4:	4630      	mov	r0, r6
 800d3f6:	f7ff fd57 	bl	800cea8 <_Balloc>
 800d3fa:	b930      	cbnz	r0, 800d40a <__mdiff+0x2e>
 800d3fc:	4b39      	ldr	r3, [pc, #228]	; (800d4e4 <__mdiff+0x108>)
 800d3fe:	4602      	mov	r2, r0
 800d400:	f240 2132 	movw	r1, #562	; 0x232
 800d404:	4838      	ldr	r0, [pc, #224]	; (800d4e8 <__mdiff+0x10c>)
 800d406:	f7fe fd9f 	bl	800bf48 <__assert_func>
 800d40a:	2301      	movs	r3, #1
 800d40c:	e9c0 3504 	strd	r3, r5, [r0, #16]
 800d410:	e8bd 8ff8 	ldmia.w	sp!, {r3, r4, r5, r6, r7, r8, r9, sl, fp, pc}
 800d414:	bfa4      	itt	ge
 800d416:	463b      	movge	r3, r7
 800d418:	4627      	movge	r7, r4
 800d41a:	4630      	mov	r0, r6
 800d41c:	6879      	ldr	r1, [r7, #4]
 800d41e:	bfa6      	itte	ge
 800d420:	461c      	movge	r4, r3
 800d422:	2500      	movge	r5, #0
 800d424:	2501      	movlt	r5, #1
 800d426:	f7ff fd3f 	bl	800cea8 <_Balloc>
 800d42a:	b920      	cbnz	r0, 800d436 <__mdiff+0x5a>
 800d42c:	4b2d      	ldr	r3, [pc, #180]	; (800d4e4 <__mdiff+0x108>)
 800d42e:	4602      	mov	r2, r0
 800d430:	f44f 7110 	mov.w	r1, #576	; 0x240
 800d434:	e7e6      	b.n	800d404 <__mdiff+0x28>
 800d436:	693e      	ldr	r6, [r7, #16]
 800d438:	60c5      	str	r5, [r0, #12]
 800d43a:	6925      	ldr	r5, [r4, #16]
 800d43c:	f107 0114 	add.w	r1, r7, #20
 800d440:	f104 0914 	add.w	r9, r4, #20
 800d444:	f100 0e14 	add.w	lr, r0, #20
 800d448:	f107 0210 	add.w	r2, r7, #16
 800d44c:	eb01 0c86 	add.w	ip, r1, r6, lsl #2
 800d450:	eb09 0585 	add.w	r5, r9, r5, lsl #2
 800d454:	46f2      	mov	sl, lr
 800d456:	2700      	movs	r7, #0
 800d458:	f859 3b04 	ldr.w	r3, [r9], #4
 800d45c:	f852 bf04 	ldr.w	fp, [r2, #4]!
 800d460:	fa1f f883 	uxth.w	r8, r3
 800d464:	fa17 f78b 	uxtah	r7, r7, fp
 800d468:	0c1b      	lsrs	r3, r3, #16
 800d46a:	eba7 0808 	sub.w	r8, r7, r8
 800d46e:	ebc3 431b 	rsb	r3, r3, fp, lsr #16
 800d472:	eb03 4328 	add.w	r3, r3, r8, asr #16
 800d476:	fa1f f888 	uxth.w	r8, r8
 800d47a:	141f      	asrs	r7, r3, #16
 800d47c:	454d      	cmp	r5, r9
 800d47e:	ea48 4303 	orr.w	r3, r8, r3, lsl #16
 800d482:	f84a 3b04 	str.w	r3, [sl], #4
 800d486:	d8e7      	bhi.n	800d458 <__mdiff+0x7c>
 800d488:	1b2b      	subs	r3, r5, r4
 800d48a:	3b15      	subs	r3, #21
 800d48c:	f023 0303 	bic.w	r3, r3, #3
 800d490:	3304      	adds	r3, #4
 800d492:	3415      	adds	r4, #21
 800d494:	42a5      	cmp	r5, r4
 800d496:	bf38      	it	cc
 800d498:	2304      	movcc	r3, #4
 800d49a:	4419      	add	r1, r3
 800d49c:	4473      	add	r3, lr
 800d49e:	469e      	mov	lr, r3
 800d4a0:	460d      	mov	r5, r1
 800d4a2:	4565      	cmp	r5, ip
 800d4a4:	d30e      	bcc.n	800d4c4 <__mdiff+0xe8>
 800d4a6:	f10c 0203 	add.w	r2, ip, #3
 800d4aa:	1a52      	subs	r2, r2, r1
 800d4ac:	f022 0203 	bic.w	r2, r2, #3
 800d4b0:	3903      	subs	r1, #3
 800d4b2:	458c      	cmp	ip, r1
 800d4b4:	bf38      	it	cc
 800d4b6:	2200      	movcc	r2, #0
 800d4b8:	441a      	add	r2, r3
 800d4ba:	f852 3d04 	ldr.w	r3, [r2, #-4]!
 800d4be:	b17b      	cbz	r3, 800d4e0 <__mdiff+0x104>
 800d4c0:	6106      	str	r6, [r0, #16]
 800d4c2:	e7a5      	b.n	800d410 <__mdiff+0x34>
 800d4c4:	f855 8b04 	ldr.w	r8, [r5], #4
 800d4c8:	fa17 f488 	uxtah	r4, r7, r8
 800d4cc:	1422      	asrs	r2, r4, #16
 800d4ce:	eb02 4218 	add.w	r2, r2, r8, lsr #16
 800d4d2:	b2a4      	uxth	r4, r4
 800d4d4:	ea44 4402 	orr.w	r4, r4, r2, lsl #16
 800d4d8:	f84e 4b04 	str.w	r4, [lr], #4
 800d4dc:	1417      	asrs	r7, r2, #16
 800d4de:	e7e0      	b.n	800d4a2 <__mdiff+0xc6>
 800d4e0:	3e01      	subs	r6, #1
 800d4e2:	e7ea      	b.n	800d4ba <__mdiff+0xde>
 800d4e4:	0800ff86 	.word	0x0800ff86
 800d4e8:	0800fff8 	.word	0x0800fff8

0800d4ec <__d2b>:
 800d4ec:	e92d 43f7 	stmdb	sp!, {r0, r1, r2, r4, r5, r6, r7, r8, r9, lr}
 800d4f0:	4689      	mov	r9, r1
 800d4f2:	2101      	movs	r1, #1
 800d4f4:	ec57 6b10 	vmov	r6, r7, d0
 800d4f8:	4690      	mov	r8, r2
 800d4fa:	f7ff fcd5 	bl	800cea8 <_Balloc>
 800d4fe:	4604      	mov	r4, r0
 800d500:	b930      	cbnz	r0, 800d510 <__d2b+0x24>
 800d502:	4602      	mov	r2, r0
 800d504:	4b25      	ldr	r3, [pc, #148]	; (800d59c <__d2b+0xb0>)
 800d506:	4826      	ldr	r0, [pc, #152]	; (800d5a0 <__d2b+0xb4>)
 800d508:	f240 310a 	movw	r1, #778	; 0x30a
 800d50c:	f7fe fd1c 	bl	800bf48 <__assert_func>
 800d510:	f3c7 550a 	ubfx	r5, r7, #20, #11
 800d514:	f3c7 0313 	ubfx	r3, r7, #0, #20
 800d518:	bb35      	cbnz	r5, 800d568 <__d2b+0x7c>
 800d51a:	2e00      	cmp	r6, #0
 800d51c:	9301      	str	r3, [sp, #4]
 800d51e:	d028      	beq.n	800d572 <__d2b+0x86>
 800d520:	4668      	mov	r0, sp
 800d522:	9600      	str	r6, [sp, #0]
 800d524:	f7ff fd8c 	bl	800d040 <__lo0bits>
 800d528:	9900      	ldr	r1, [sp, #0]
 800d52a:	b300      	cbz	r0, 800d56e <__d2b+0x82>
 800d52c:	9a01      	ldr	r2, [sp, #4]
 800d52e:	f1c0 0320 	rsb	r3, r0, #32
 800d532:	fa02 f303 	lsl.w	r3, r2, r3
 800d536:	430b      	orrs	r3, r1
 800d538:	40c2      	lsrs	r2, r0
 800d53a:	6163      	str	r3, [r4, #20]
 800d53c:	9201      	str	r2, [sp, #4]
 800d53e:	9b01      	ldr	r3, [sp, #4]
 800d540:	61a3      	str	r3, [r4, #24]
 800d542:	2b00      	cmp	r3, #0
 800d544:	bf14      	ite	ne
 800d546:	2202      	movne	r2, #2
 800d548:	2201      	moveq	r2, #1
 800d54a:	6122      	str	r2, [r4, #16]
 800d54c:	b1d5      	cbz	r5, 800d584 <__d2b+0x98>
 800d54e:	f2a5 4533 	subw	r5, r5, #1075	; 0x433
 800d552:	4405      	add	r5, r0
 800d554:	f8c9 5000 	str.w	r5, [r9]
 800d558:	f1c0 0035 	rsb	r0, r0, #53	; 0x35
 800d55c:	f8c8 0000 	str.w	r0, [r8]
 800d560:	4620      	mov	r0, r4
 800d562:	b003      	add	sp, #12
 800d564:	e8bd 83f0 	ldmia.w	sp!, {r4, r5, r6, r7, r8, r9, pc}
 800d568:	f443 1380 	orr.w	r3, r3, #1048576	; 0x100000
 800d56c:	e7d5      	b.n	800d51a <__d2b+0x2e>
 800d56e:	6161      	str	r1, [r4, #20]
 800d570:	e7e5      	b.n	800d53e <__d2b+0x52>
 800d572:	a801      	add	r0, sp, #4
 800d574:	f7ff fd64 	bl	800d040 <__lo0bits>
 800d578:	9b01      	ldr	r3, [sp, #4]
 800d57a:	6163      	str	r3, [r4, #20]
 800d57c:	2201      	movs	r2, #1
 800d57e:	6122      	str	r2, [r4, #16]
 800d580:	3020      	adds	r0, #32
 800d582:	e7e3      	b.n	800d54c <__d2b+0x60>
 800d584:	eb04 0382 	add.w	r3, r4, r2, lsl #2
 800d588:	f2a0 4032 	subw	r0, r0, #1074	; 0x432
 800d58c:	f8c9 0000 	str.w	r0, [r9]
 800d590:	6918      	ldr	r0, [r3, #16]
 800d592:	f7ff fd35 	bl	800d000 <__hi0bits>
 800d596:	ebc0 1042 	rsb	r0, r0, r2, lsl #5
 800d59a:	e7df      	b.n	800d55c <__d2b+0x70>
 800d59c:	0800ff86 	.word	0x0800ff86
 800d5a0:	0800fff8 	.word	0x0800fff8

0800d5a4 <_calloc_r>:
 800d5a4:	b513      	push	{r0, r1, r4, lr}
 800d5a6:	434a      	muls	r2, r1
 800d5a8:	4611      	mov	r1, r2
 800d5aa:	9201      	str	r2, [sp, #4]
 800d5ac:	f000 f85a 	bl	800d664 <_malloc_r>
 800d5b0:	4604      	mov	r4, r0
 800d5b2:	b118      	cbz	r0, 800d5bc <_calloc_r+0x18>
 800d5b4:	9a01      	ldr	r2, [sp, #4]
 800d5b6:	2100      	movs	r1, #0
 800d5b8:	f7fd ffae 	bl	800b518 <memset>
 800d5bc:	4620      	mov	r0, r4
 800d5be:	b002      	add	sp, #8
 800d5c0:	bd10      	pop	{r4, pc}
	...

0800d5c4 <_free_r>:
 800d5c4:	b537      	push	{r0, r1, r2, r4, r5, lr}
 800d5c6:	2900      	cmp	r1, #0
 800d5c8:	d048      	beq.n	800d65c <_free_r+0x98>
 800d5ca:	f851 3c04 	ldr.w	r3, [r1, #-4]
 800d5ce:	9001      	str	r0, [sp, #4]
 800d5d0:	2b00      	cmp	r3, #0
 800d5d2:	f1a1 0404 	sub.w	r4, r1, #4
 800d5d6:	bfb8      	it	lt
 800d5d8:	18e4      	addlt	r4, r4, r3
 800d5da:	f000 fdf5 	bl	800e1c8 <__malloc_lock>
 800d5de:	4a20      	ldr	r2, [pc, #128]	; (800d660 <_free_r+0x9c>)
 800d5e0:	9801      	ldr	r0, [sp, #4]
 800d5e2:	6813      	ldr	r3, [r2, #0]
 800d5e4:	4615      	mov	r5, r2
 800d5e6:	b933      	cbnz	r3, 800d5f6 <_free_r+0x32>
 800d5e8:	6063      	str	r3, [r4, #4]
 800d5ea:	6014      	str	r4, [r2, #0]
 800d5ec:	b003      	add	sp, #12
 800d5ee:	e8bd 4030 	ldmia.w	sp!, {r4, r5, lr}
 800d5f2:	f000 bdef 	b.w	800e1d4 <__malloc_unlock>
 800d5f6:	42a3      	cmp	r3, r4
 800d5f8:	d90b      	bls.n	800d612 <_free_r+0x4e>
 800d5fa:	6821      	ldr	r1, [r4, #0]
 800d5fc:	1862      	adds	r2, r4, r1
 800d5fe:	4293      	cmp	r3, r2
 800d600:	bf04      	itt	eq
 800d602:	681a      	ldreq	r2, [r3, #0]
 800d604:	685b      	ldreq	r3, [r3, #4]
 800d606:	6063      	str	r3, [r4, #4]
 800d608:	bf04      	itt	eq
 800d60a:	1852      	addeq	r2, r2, r1
 800d60c:	6022      	streq	r2, [r4, #0]
 800d60e:	602c      	str	r4, [r5, #0]
 800d610:	e7ec      	b.n	800d5ec <_free_r+0x28>
 800d612:	461a      	mov	r2, r3
 800d614:	685b      	ldr	r3, [r3, #4]
 800d616:	b10b      	cbz	r3, 800d61c <_free_r+0x58>
 800d618:	42a3      	cmp	r3, r4
 800d61a:	d9fa      	bls.n	800d612 <_free_r+0x4e>
 800d61c:	6811      	ldr	r1, [r2, #0]
 800d61e:	1855      	adds	r5, r2, r1
 800d620:	42a5      	cmp	r5, r4
 800d622:	d10b      	bne.n	800d63c <_free_r+0x78>
 800d624:	6824      	ldr	r4, [r4, #0]
 800d626:	4421      	add	r1, r4
 800d628:	1854      	adds	r4, r2, r1
 800d62a:	42a3      	cmp	r3, r4
 800d62c:	6011      	str	r1, [r2, #0]
 800d62e:	d1dd      	bne.n	800d5ec <_free_r+0x28>
 800d630:	681c      	ldr	r4, [r3, #0]
 800d632:	685b      	ldr	r3, [r3, #4]
 800d634:	6053      	str	r3, [r2, #4]
 800d636:	4421      	add	r1, r4
 800d638:	6011      	str	r1, [r2, #0]
 800d63a:	e7d7      	b.n	800d5ec <_free_r+0x28>
 800d63c:	d902      	bls.n	800d644 <_free_r+0x80>
 800d63e:	230c      	movs	r3, #12
 800d640:	6003      	str	r3, [r0, #0]
 800d642:	e7d3      	b.n	800d5ec <_free_r+0x28>
 800d644:	6825      	ldr	r5, [r4, #0]
 800d646:	1961      	adds	r1, r4, r5
 800d648:	428b      	cmp	r3, r1
 800d64a:	bf04      	itt	eq
 800d64c:	6819      	ldreq	r1, [r3, #0]
 800d64e:	685b      	ldreq	r3, [r3, #4]
 800d650:	6063      	str	r3, [r4, #4]
 800d652:	bf04      	itt	eq
 800d654:	1949      	addeq	r1, r1, r5
 800d656:	6021      	streq	r1, [r4, #0]
 800d658:	6054      	str	r4, [r2, #4]
 800d65a:	e7c7      	b.n	800d5ec <_free_r+0x28>
 800d65c:	b003      	add	sp, #12
 800d65e:	bd30      	pop	{r4, r5, pc}
 800d660:	20000f1c 	.word	0x20000f1c

0800d664 <_malloc_r>:
 800d664:	b5f8      	push	{r3, r4, r5, r6, r7, lr}
 800d666:	1ccd      	adds	r5, r1, #3
 800d668:	f025 0503 	bic.w	r5, r5, #3
 800d66c:	3508      	adds	r5, #8
 800d66e:	2d0c      	cmp	r5, #12
 800d670:	bf38      	it	cc
 800d672:	250c      	movcc	r5, #12
 800d674:	2d00      	cmp	r5, #0
 800d676:	4606      	mov	r6, r0
 800d678:	db01      	blt.n	800d67e <_malloc_r+0x1a>
 800d67a:	42a9      	cmp	r1, r5
 800d67c:	d903      	bls.n	800d686 <_malloc_r+0x22>
 800d67e:	230c      	movs	r3, #12
 800d680:	6033      	str	r3, [r6, #0]
 800d682:	2000      	movs	r0, #0
 800d684:	bdf8      	pop	{r3, r4, r5, r6, r7, pc}
 800d686:	f000 fd9f 	bl	800e1c8 <__malloc_lock>
 800d68a:	4921      	ldr	r1, [pc, #132]	; (800d710 <_malloc_r+0xac>)
 800d68c:	680a      	ldr	r2, [r1, #0]
 800d68e:	4614      	mov	r4, r2
 800d690:	b99c      	cbnz	r4, 800d6ba <_malloc_r+0x56>
 800d692:	4f20      	ldr	r7, [pc, #128]	; (800d714 <_malloc_r+0xb0>)
 800d694:	683b      	ldr	r3, [r7, #0]
 800d696:	b923      	cbnz	r3, 800d6a2 <_malloc_r+0x3e>
 800d698:	4621      	mov	r1, r4
 800d69a:	4630      	mov	r0, r6
 800d69c:	f000 faf2 	bl	800dc84 <_sbrk_r>
 800d6a0:	6038      	str	r0, [r7, #0]
 800d6a2:	4629      	mov	r1, r5
 800d6a4:	4630      	mov	r0, r6
 800d6a6:	f000 faed 	bl	800dc84 <_sbrk_r>
 800d6aa:	1c43      	adds	r3, r0, #1
 800d6ac:	d123      	bne.n	800d6f6 <_malloc_r+0x92>
 800d6ae:	230c      	movs	r3, #12
 800d6b0:	6033      	str	r3, [r6, #0]
 800d6b2:	4630      	mov	r0, r6
 800d6b4:	f000 fd8e 	bl	800e1d4 <__malloc_unlock>
 800d6b8:	e7e3      	b.n	800d682 <_malloc_r+0x1e>
 800d6ba:	6823      	ldr	r3, [r4, #0]
 800d6bc:	1b5b      	subs	r3, r3, r5
 800d6be:	d417      	bmi.n	800d6f0 <_malloc_r+0x8c>
 800d6c0:	2b0b      	cmp	r3, #11
 800d6c2:	d903      	bls.n	800d6cc <_malloc_r+0x68>
 800d6c4:	6023      	str	r3, [r4, #0]
 800d6c6:	441c      	add	r4, r3
 800d6c8:	6025      	str	r5, [r4, #0]
 800d6ca:	e004      	b.n	800d6d6 <_malloc_r+0x72>
 800d6cc:	6863      	ldr	r3, [r4, #4]
 800d6ce:	42a2      	cmp	r2, r4
 800d6d0:	bf0c      	ite	eq
 800d6d2:	600b      	streq	r3, [r1, #0]
 800d6d4:	6053      	strne	r3, [r2, #4]
 800d6d6:	4630      	mov	r0, r6
 800d6d8:	f000 fd7c 	bl	800e1d4 <__malloc_unlock>
 800d6dc:	f104 000b 	add.w	r0, r4, #11
 800d6e0:	1d23      	adds	r3, r4, #4
 800d6e2:	f020 0007 	bic.w	r0, r0, #7
 800d6e6:	1ac2      	subs	r2, r0, r3
 800d6e8:	d0cc      	beq.n	800d684 <_malloc_r+0x20>
 800d6ea:	1a1b      	subs	r3, r3, r0
 800d6ec:	50a3      	str	r3, [r4, r2]
 800d6ee:	e7c9      	b.n	800d684 <_malloc_r+0x20>
 800d6f0:	4622      	mov	r2, r4
 800d6f2:	6864      	ldr	r4, [r4, #4]
 800d6f4:	e7cc      	b.n	800d690 <_malloc_r+0x2c>
 800d6f6:	1cc4      	adds	r4, r0, #3
 800d6f8:	f024 0403 	bic.w	r4, r4, #3
 800d6fc:	42a0      	cmp	r0, r4
 800d6fe:	d0e3      	beq.n	800d6c8 <_malloc_r+0x64>
 800d700:	1a21      	subs	r1, r4, r0
 800d702:	4630      	mov	r0, r6
 800d704:	f000 fabe 	bl	800dc84 <_sbrk_r>
 800d708:	3001      	adds	r0, #1
 800d70a:	d1dd      	bne.n	800d6c8 <_malloc_r+0x64>
 800d70c:	e7cf      	b.n	800d6ae <_malloc_r+0x4a>
 800d70e:	bf00      	nop
 800d710:	20000f1c 	.word	0x20000f1c
 800d714:	20000f20 	.word	0x20000f20

0800d718 <__ssputs_r>:
 800d718:	e92d 47f0 	stmdb	sp!, {r4, r5, r6, r7, r8, r9, sl, lr}
 800d71c:	688e      	ldr	r6, [r1, #8]
 800d71e:	429e      	cmp	r6, r3
 800d720:	4682      	mov	sl, r0
 800d722:	460c      	mov	r4, r1
 800d724:	4690      	mov	r8, r2
 800d726:	461f      	mov	r7, r3
 800d728:	d838      	bhi.n	800d79c <__ssputs_r+0x84>
 800d72a:	898a      	ldrh	r2, [r1, #12]
 800d72c:	f412 6f90 	tst.w	r2, #1152	; 0x480
 800d730:	d032      	beq.n	800d798 <__ssputs_r+0x80>
 800d732:	6825      	ldr	r5, [r4, #0]
 800d734:	6909      	ldr	r1, [r1, #16]
 800d736:	eba5 0901 	sub.w	r9, r5, r1
 800d73a:	6965      	ldr	r5, [r4, #20]
 800d73c:	eb05 0545 	add.w	r5, r5, r5, lsl #1
 800d740:	eb05 75d5 	add.w	r5, r5, r5, lsr #31
 800d744:	3301      	adds	r3, #1
 800d746:	444b      	add	r3, r9
 800d748:	106d      	asrs	r5, r5, #1
 800d74a:	429d      	cmp	r5, r3
 800d74c:	bf38      	it	cc
 800d74e:	461d      	movcc	r5, r3
 800d750:	0553      	lsls	r3, r2, #21
 800d752:	d531      	bpl.n	800d7b8 <__ssputs_r+0xa0>
 800d754:	4629      	mov	r1, r5
 800d756:	f7ff ff85 	bl	800d664 <_malloc_r>
 800d75a:	4606      	mov	r6, r0
 800d75c:	b950      	cbnz	r0, 800d774 <__ssputs_r+0x5c>
 800d75e:	230c      	movs	r3, #12
 800d760:	f8ca 3000 	str.w	r3, [sl]
 800d764:	89a3      	ldrh	r3, [r4, #12]
 800d766:	f043 0340 	orr.w	r3, r3, #64	; 0x40
 800d76a:	81a3      	strh	r3, [r4, #12]
 800d76c:	f04f 30ff 	mov.w	r0, #4294967295
 800d770:	e8bd 87f0 	ldmia.w	sp!, {r4, r5, r6, r7, r8, r9, sl, pc}
 800d774:	6921      	ldr	r1, [r4, #16]
 800d776:	464a      	mov	r2, r9
 800d778:	f7fd fec0 	bl	800b4fc <memcpy>
 800d77c:	89a3      	ldrh	r3, [r4, #12]
 800d77e:	f423 6390 	bic.w	r3, r3, #1152	; 0x480
 800d782:	f043 0380 	orr.w	r3, r3, #128	; 0x80
 800d786:	81a3      	strh	r3, [r4, #12]
 800d788:	6126      	str	r6, [r4, #16]
 800d78a:	6165      	str	r5, [r4, #20]
 800d78c:	444e      	add	r6, r9
 800d78e:	eba5 0509 	sub.w	r5, r5, r9
 800d792:	6026      	str	r6, [r4, #0]
 800d794:	60a5      	str	r5, [r4, #8]
 800d796:	463e      	mov	r6, r7
 800d798:	42be      	cmp	r6, r7
 800d79a:	d900      	bls.n	800d79e <__ssputs_r+0x86>
 800d79c:	463e      	mov	r6, r7
 800d79e:	4632      	mov	r2, r6
 800d7a0:	6820      	ldr	r0, [r4, #0]
 800d7a2:	4641      	mov	r1, r8
 800d7a4:	f000 fcf6 	bl	800e194 <memmove>
 800d7a8:	68a3      	ldr	r3, [r4, #8]
 800d7aa:	6822      	ldr	r2, [r4, #0]
 800d7ac:	1b9b      	subs	r3, r3, r6
 800d7ae:	4432      	add	r2, r6
 800d7b0:	60a3      	str	r3, [r4, #8]
 800d7b2:	6022      	str	r2, [r4, #0]
 800d7b4:	2000      	movs	r0, #0
 800d7b6:	e7db      	b.n	800d770 <__ssputs_r+0x58>
 800d7b8:	462a      	mov	r2, r5
 800d7ba:	f000 fd11 	bl	800e1e0 <_realloc_r>
 800d7be:	4606      	mov	r6, r0
 800d7c0:	2800      	cmp	r0, #0
 800d7c2:	d1e1      	bne.n	800d788 <__ssputs_r+0x70>
 800d7c4:	6921      	ldr	r1, [r4, #16]
 800d7c6:	4650      	mov	r0, sl
 800d7c8:	f7ff fefc 	bl	800d5c4 <_free_r>
 800d7cc:	e7c7      	b.n	800d75e <__ssputs_r+0x46>
	...

0800d7d0 <_svfiprintf_r>:
 800d7d0:	e92d 4ff0 	stmdb	sp!, {r4, r5, r6, r7, r8, r9, sl, fp, lr}
 800d7d4:	4698      	mov	r8, r3
 800d7d6:	898b      	ldrh	r3, [r1, #12]
 800d7d8:	061b      	lsls	r3, r3, #24
 800d7da:	b09d      	sub	sp, #116	; 0x74
 800d7dc:	4607      	mov	r7, r0
 800d7de:	460d      	mov	r5, r1
 800d7e0:	4614      	mov	r4, r2
 800d7e2:	d50e      	bpl.n	800d802 <_svfiprintf_r+0x32>
 800d7e4:	690b      	ldr	r3, [r1, #16]
 800d7e6:	b963      	cbnz	r3, 800d802 <_svfiprintf_r+0x32>
 800d7e8:	2140      	movs	r1, #64	; 0x40
 800d7ea:	f7ff ff3b 	bl	800d664 <_malloc_r>
 800d7ee:	6028      	str	r0, [r5, #0]
 800d7f0:	6128      	str	r0, [r5, #16]
 800d7f2:	b920      	cbnz	r0, 800d7fe <_svfiprintf_r+0x2e>
 800d7f4:	230c      	movs	r3, #12
 800d7f6:	603b      	str	r3, [r7, #0]
 800d7f8:	f04f 30ff 	mov.w	r0, #4294967295
 800d7fc:	e0d1      	b.n	800d9a2 <_svfiprintf_r+0x1d2>
 800d7fe:	2340      	movs	r3, #64	; 0x40
 800d800:	616b      	str	r3, [r5, #20]
 800d802:	2300      	movs	r3, #0
 800d804:	9309      	str	r3, [sp, #36]	; 0x24
 800d806:	2320      	movs	r3, #32
 800d808:	f88d 3029 	strb.w	r3, [sp, #41]	; 0x29
 800d80c:	f8cd 800c 	str.w	r8, [sp, #12]
 800d810:	2330      	movs	r3, #48	; 0x30
 800d812:	f8df 81a8 	ldr.w	r8, [pc, #424]	; 800d9bc <_svfiprintf_r+0x1ec>
 800d816:	f88d 302a 	strb.w	r3, [sp, #42]	; 0x2a
 800d81a:	f04f 0901 	mov.w	r9, #1
 800d81e:	4623      	mov	r3, r4
 800d820:	469a      	mov	sl, r3
 800d822:	f813 2b01 	ldrb.w	r2, [r3], #1
 800d826:	b10a      	cbz	r2, 800d82c <_svfiprintf_r+0x5c>
 800d828:	2a25      	cmp	r2, #37	; 0x25
 800d82a:	d1f9      	bne.n	800d820 <_svfiprintf_r+0x50>
 800d82c:	ebba 0b04 	subs.w	fp, sl, r4
 800d830:	d00b      	beq.n	800d84a <_svfiprintf_r+0x7a>
 800d832:	465b      	mov	r3, fp
 800d834:	4622      	mov	r2, r4
 800d836:	4629      	mov	r1, r5
 800d838:	4638      	mov	r0, r7
 800d83a:	f7ff ff6d 	bl	800d718 <__ssputs_r>
 800d83e:	3001      	adds	r0, #1
 800d840:	f000 80aa 	beq.w	800d998 <_svfiprintf_r+0x1c8>
 800d844:	9a09      	ldr	r2, [sp, #36]	; 0x24
 800d846:	445a      	add	r2, fp
 800d848:	9209      	str	r2, [sp, #36]	; 0x24
 800d84a:	f89a 3000 	ldrb.w	r3, [sl]
 800d84e:	2b00      	cmp	r3, #0
 800d850:	f000 80a2 	beq.w	800d998 <_svfiprintf_r+0x1c8>
 800d854:	2300      	movs	r3, #0
 800d856:	f04f 32ff 	mov.w	r2, #4294967295
 800d85a:	e9cd 2305 	strd	r2, r3, [sp, #20]
 800d85e:	f10a 0a01 	add.w	sl, sl, #1
 800d862:	9304      	str	r3, [sp, #16]
 800d864:	9307      	str	r3, [sp, #28]
 800d866:	f88d 3053 	strb.w	r3, [sp, #83]	; 0x53
 800d86a:	931a      	str	r3, [sp, #104]	; 0x68
 800d86c:	4654      	mov	r4, sl
 800d86e:	2205      	movs	r2, #5
 800d870:	f814 1b01 	ldrb.w	r1, [r4], #1
 800d874:	4851      	ldr	r0, [pc, #324]	; (800d9bc <_svfiprintf_r+0x1ec>)
 800d876:	f7f2 fcb3 	bl	80001e0 <memchr>
 800d87a:	9a04      	ldr	r2, [sp, #16]
 800d87c:	b9d8      	cbnz	r0, 800d8b6 <_svfiprintf_r+0xe6>
 800d87e:	06d0      	lsls	r0, r2, #27
 800d880:	bf44      	itt	mi
 800d882:	2320      	movmi	r3, #32
 800d884:	f88d 3053 	strbmi.w	r3, [sp, #83]	; 0x53
 800d888:	0711      	lsls	r1, r2, #28
 800d88a:	bf44      	itt	mi
 800d88c:	232b      	movmi	r3, #43	; 0x2b
 800d88e:	f88d 3053 	strbmi.w	r3, [sp, #83]	; 0x53
 800d892:	f89a 3000 	ldrb.w	r3, [sl]
 800d896:	2b2a      	cmp	r3, #42	; 0x2a
 800d898:	d015      	beq.n	800d8c6 <_svfiprintf_r+0xf6>
 800d89a:	9a07      	ldr	r2, [sp, #28]
 800d89c:	4654      	mov	r4, sl
 800d89e:	2000      	movs	r0, #0
 800d8a0:	f04f 0c0a 	mov.w	ip, #10
 800d8a4:	4621      	mov	r1, r4
 800d8a6:	f811 3b01 	ldrb.w	r3, [r1], #1
 800d8aa:	3b30      	subs	r3, #48	; 0x30
 800d8ac:	2b09      	cmp	r3, #9
 800d8ae:	d94e      	bls.n	800d94e <_svfiprintf_r+0x17e>
 800d8b0:	b1b0      	cbz	r0, 800d8e0 <_svfiprintf_r+0x110>
 800d8b2:	9207      	str	r2, [sp, #28]
 800d8b4:	e014      	b.n	800d8e0 <_svfiprintf_r+0x110>
 800d8b6:	eba0 0308 	sub.w	r3, r0, r8
 800d8ba:	fa09 f303 	lsl.w	r3, r9, r3
 800d8be:	4313      	orrs	r3, r2
 800d8c0:	9304      	str	r3, [sp, #16]
 800d8c2:	46a2      	mov	sl, r4
 800d8c4:	e7d2      	b.n	800d86c <_svfiprintf_r+0x9c>
 800d8c6:	9b03      	ldr	r3, [sp, #12]
 800d8c8:	1d19      	adds	r1, r3, #4
 800d8ca:	681b      	ldr	r3, [r3, #0]
 800d8cc:	9103      	str	r1, [sp, #12]
 800d8ce:	2b00      	cmp	r3, #0
 800d8d0:	bfbb      	ittet	lt
 800d8d2:	425b      	neglt	r3, r3
 800d8d4:	f042 0202 	orrlt.w	r2, r2, #2
 800d8d8:	9307      	strge	r3, [sp, #28]
 800d8da:	9307      	strlt	r3, [sp, #28]
 800d8dc:	bfb8      	it	lt
 800d8de:	9204      	strlt	r2, [sp, #16]
 800d8e0:	7823      	ldrb	r3, [r4, #0]
 800d8e2:	2b2e      	cmp	r3, #46	; 0x2e
 800d8e4:	d10c      	bne.n	800d900 <_svfiprintf_r+0x130>
 800d8e6:	7863      	ldrb	r3, [r4, #1]
 800d8e8:	2b2a      	cmp	r3, #42	; 0x2a
 800d8ea:	d135      	bne.n	800d958 <_svfiprintf_r+0x188>
 800d8ec:	9b03      	ldr	r3, [sp, #12]
 800d8ee:	1d1a      	adds	r2, r3, #4
 800d8f0:	681b      	ldr	r3, [r3, #0]
 800d8f2:	9203      	str	r2, [sp, #12]
 800d8f4:	2b00      	cmp	r3, #0
 800d8f6:	bfb8      	it	lt
 800d8f8:	f04f 33ff 	movlt.w	r3, #4294967295
 800d8fc:	3402      	adds	r4, #2
 800d8fe:	9305      	str	r3, [sp, #20]
 800d900:	f8df a0c8 	ldr.w	sl, [pc, #200]	; 800d9cc <_svfiprintf_r+0x1fc>
 800d904:	7821      	ldrb	r1, [r4, #0]
 800d906:	2203      	movs	r2, #3
 800d908:	4650      	mov	r0, sl
 800d90a:	f7f2 fc69 	bl	80001e0 <memchr>
 800d90e:	b140      	cbz	r0, 800d922 <_svfiprintf_r+0x152>
 800d910:	2340      	movs	r3, #64	; 0x40
 800d912:	eba0 000a 	sub.w	r0, r0, sl
 800d916:	fa03 f000 	lsl.w	r0, r3, r0
 800d91a:	9b04      	ldr	r3, [sp, #16]
 800d91c:	4303      	orrs	r3, r0
 800d91e:	3401      	adds	r4, #1
 800d920:	9304      	str	r3, [sp, #16]
 800d922:	f814 1b01 	ldrb.w	r1, [r4], #1
 800d926:	4826      	ldr	r0, [pc, #152]	; (800d9c0 <_svfiprintf_r+0x1f0>)
 800d928:	f88d 1028 	strb.w	r1, [sp, #40]	; 0x28
 800d92c:	2206      	movs	r2, #6
 800d92e:	f7f2 fc57 	bl	80001e0 <memchr>
 800d932:	2800      	cmp	r0, #0
 800d934:	d038      	beq.n	800d9a8 <_svfiprintf_r+0x1d8>
 800d936:	4b23      	ldr	r3, [pc, #140]	; (800d9c4 <_svfiprintf_r+0x1f4>)
 800d938:	bb1b      	cbnz	r3, 800d982 <_svfiprintf_r+0x1b2>
 800d93a:	9b03      	ldr	r3, [sp, #12]
 800d93c:	3307      	adds	r3, #7
 800d93e:	f023 0307 	bic.w	r3, r3, #7
 800d942:	3308      	adds	r3, #8
 800d944:	9303      	str	r3, [sp, #12]
 800d946:	9b09      	ldr	r3, [sp, #36]	; 0x24
 800d948:	4433      	add	r3, r6
 800d94a:	9309      	str	r3, [sp, #36]	; 0x24
 800d94c:	e767      	b.n	800d81e <_svfiprintf_r+0x4e>
 800d94e:	fb0c 3202 	mla	r2, ip, r2, r3
 800d952:	460c      	mov	r4, r1
 800d954:	2001      	movs	r0, #1
 800d956:	e7a5      	b.n	800d8a4 <_svfiprintf_r+0xd4>
 800d958:	2300      	movs	r3, #0
 800d95a:	3401      	adds	r4, #1
 800d95c:	9305      	str	r3, [sp, #20]
 800d95e:	4619      	mov	r1, r3
 800d960:	f04f 0c0a 	mov.w	ip, #10
 800d964:	4620      	mov	r0, r4
 800d966:	f810 2b01 	ldrb.w	r2, [r0], #1
 800d96a:	3a30      	subs	r2, #48	; 0x30
 800d96c:	2a09      	cmp	r2, #9
 800d96e:	d903      	bls.n	800d978 <_svfiprintf_r+0x1a8>
 800d970:	2b00      	cmp	r3, #0
 800d972:	d0c5      	beq.n	800d900 <_svfiprintf_r+0x130>
 800d974:	9105      	str	r1, [sp, #20]
 800d976:	e7c3      	b.n	800d900 <_svfiprintf_r+0x130>
 800d978:	fb0c 2101 	mla	r1, ip, r1, r2
 800d97c:	4604      	mov	r4, r0
 800d97e:	2301      	movs	r3, #1
 800d980:	e7f0      	b.n	800d964 <_svfiprintf_r+0x194>
 800d982:	ab03      	add	r3, sp, #12
 800d984:	9300      	str	r3, [sp, #0]
 800d986:	462a      	mov	r2, r5
 800d988:	4b0f      	ldr	r3, [pc, #60]	; (800d9c8 <_svfiprintf_r+0x1f8>)
 800d98a:	a904      	add	r1, sp, #16
 800d98c:	4638      	mov	r0, r7
 800d98e:	f7fd fe6b 	bl	800b668 <_printf_float>
 800d992:	1c42      	adds	r2, r0, #1
 800d994:	4606      	mov	r6, r0
 800d996:	d1d6      	bne.n	800d946 <_svfiprintf_r+0x176>
 800d998:	89ab      	ldrh	r3, [r5, #12]
 800d99a:	065b      	lsls	r3, r3, #25
 800d99c:	f53f af2c 	bmi.w	800d7f8 <_svfiprintf_r+0x28>
 800d9a0:	9809      	ldr	r0, [sp, #36]	; 0x24
 800d9a2:	b01d      	add	sp, #116	; 0x74
 800d9a4:	e8bd 8ff0 	ldmia.w	sp!, {r4, r5, r6, r7, r8, r9, sl, fp, pc}
 800d9a8:	ab03      	add	r3, sp, #12
 800d9aa:	9300      	str	r3, [sp, #0]
 800d9ac:	462a      	mov	r2, r5
 800d9ae:	4b06      	ldr	r3, [pc, #24]	; (800d9c8 <_svfiprintf_r+0x1f8>)
 800d9b0:	a904      	add	r1, sp, #16
 800d9b2:	4638      	mov	r0, r7
 800d9b4:	f7fe f8fc 	bl	800bbb0 <_printf_i>
 800d9b8:	e7eb      	b.n	800d992 <_svfiprintf_r+0x1c2>
 800d9ba:	bf00      	nop
 800d9bc:	08010154 	.word	0x08010154
 800d9c0:	0801015e 	.word	0x0801015e
 800d9c4:	0800b669 	.word	0x0800b669
 800d9c8:	0800d719 	.word	0x0800d719
 800d9cc:	0801015a 	.word	0x0801015a

0800d9d0 <__sfputc_r>:
 800d9d0:	6893      	ldr	r3, [r2, #8]
 800d9d2:	3b01      	subs	r3, #1
 800d9d4:	2b00      	cmp	r3, #0
 800d9d6:	b410      	push	{r4}
 800d9d8:	6093      	str	r3, [r2, #8]
 800d9da:	da08      	bge.n	800d9ee <__sfputc_r+0x1e>
 800d9dc:	6994      	ldr	r4, [r2, #24]
 800d9de:	42a3      	cmp	r3, r4
 800d9e0:	db01      	blt.n	800d9e6 <__sfputc_r+0x16>
 800d9e2:	290a      	cmp	r1, #10
 800d9e4:	d103      	bne.n	800d9ee <__sfputc_r+0x1e>
 800d9e6:	f85d 4b04 	ldr.w	r4, [sp], #4
 800d9ea:	f000 b99f 	b.w	800dd2c <__swbuf_r>
 800d9ee:	6813      	ldr	r3, [r2, #0]
 800d9f0:	1c58      	adds	r0, r3, #1
 800d9f2:	6010      	str	r0, [r2, #0]
 800d9f4:	7019      	strb	r1, [r3, #0]
 800d9f6:	4608      	mov	r0, r1
 800d9f8:	f85d 4b04 	ldr.w	r4, [sp], #4
 800d9fc:	4770      	bx	lr

0800d9fe <__sfputs_r>:
 800d9fe:	b5f8      	push	{r3, r4, r5, r6, r7, lr}
 800da00:	4606      	mov	r6, r0
 800da02:	460f      	mov	r7, r1
 800da04:	4614      	mov	r4, r2
 800da06:	18d5      	adds	r5, r2, r3
 800da08:	42ac      	cmp	r4, r5
 800da0a:	d101      	bne.n	800da10 <__sfputs_r+0x12>
 800da0c:	2000      	movs	r0, #0
 800da0e:	e007      	b.n	800da20 <__sfputs_r+0x22>
 800da10:	f814 1b01 	ldrb.w	r1, [r4], #1
 800da14:	463a      	mov	r2, r7
 800da16:	4630      	mov	r0, r6
 800da18:	f7ff ffda 	bl	800d9d0 <__sfputc_r>
 800da1c:	1c43      	adds	r3, r0, #1
 800da1e:	d1f3      	bne.n	800da08 <__sfputs_r+0xa>
 800da20:	bdf8      	pop	{r3, r4, r5, r6, r7, pc}
	...

0800da24 <_vfiprintf_r>:
 800da24:	e92d 4ff0 	stmdb	sp!, {r4, r5, r6, r7, r8, r9, sl, fp, lr}
 800da28:	460d      	mov	r5, r1
 800da2a:	b09d      	sub	sp, #116	; 0x74
 800da2c:	4614      	mov	r4, r2
 800da2e:	4698      	mov	r8, r3
 800da30:	4606      	mov	r6, r0
 800da32:	b118      	cbz	r0, 800da3c <_vfiprintf_r+0x18>
 800da34:	6983      	ldr	r3, [r0, #24]
 800da36:	b90b      	cbnz	r3, 800da3c <_vfiprintf_r+0x18>
 800da38:	f7ff f976 	bl	800cd28 <__sinit>
 800da3c:	4b89      	ldr	r3, [pc, #548]	; (800dc64 <_vfiprintf_r+0x240>)
 800da3e:	429d      	cmp	r5, r3
 800da40:	d11b      	bne.n	800da7a <_vfiprintf_r+0x56>
 800da42:	6875      	ldr	r5, [r6, #4]
 800da44:	6e6b      	ldr	r3, [r5, #100]	; 0x64
 800da46:	07d9      	lsls	r1, r3, #31
 800da48:	d405      	bmi.n	800da56 <_vfiprintf_r+0x32>
 800da4a:	89ab      	ldrh	r3, [r5, #12]
 800da4c:	059a      	lsls	r2, r3, #22
 800da4e:	d402      	bmi.n	800da56 <_vfiprintf_r+0x32>
 800da50:	6da8      	ldr	r0, [r5, #88]	; 0x58
 800da52:	f7ff fa1e 	bl	800ce92 <__retarget_lock_acquire_recursive>
 800da56:	89ab      	ldrh	r3, [r5, #12]
 800da58:	071b      	lsls	r3, r3, #28
 800da5a:	d501      	bpl.n	800da60 <_vfiprintf_r+0x3c>
 800da5c:	692b      	ldr	r3, [r5, #16]
 800da5e:	b9eb      	cbnz	r3, 800da9c <_vfiprintf_r+0x78>
 800da60:	4629      	mov	r1, r5
 800da62:	4630      	mov	r0, r6
 800da64:	f000 f9c6 	bl	800ddf4 <__swsetup_r>
 800da68:	b1c0      	cbz	r0, 800da9c <_vfiprintf_r+0x78>
 800da6a:	6e6b      	ldr	r3, [r5, #100]	; 0x64
 800da6c:	07dc      	lsls	r4, r3, #31
 800da6e:	d50e      	bpl.n	800da8e <_vfiprintf_r+0x6a>
 800da70:	f04f 30ff 	mov.w	r0, #4294967295
 800da74:	b01d      	add	sp, #116	; 0x74
 800da76:	e8bd 8ff0 	ldmia.w	sp!, {r4, r5, r6, r7, r8, r9, sl, fp, pc}
 800da7a:	4b7b      	ldr	r3, [pc, #492]	; (800dc68 <_vfiprintf_r+0x244>)
 800da7c:	429d      	cmp	r5, r3
 800da7e:	d101      	bne.n	800da84 <_vfiprintf_r+0x60>
 800da80:	68b5      	ldr	r5, [r6, #8]
 800da82:	e7df      	b.n	800da44 <_vfiprintf_r+0x20>
 800da84:	4b79      	ldr	r3, [pc, #484]	; (800dc6c <_vfiprintf_r+0x248>)
 800da86:	429d      	cmp	r5, r3
 800da88:	bf08      	it	eq
 800da8a:	68f5      	ldreq	r5, [r6, #12]
 800da8c:	e7da      	b.n	800da44 <_vfiprintf_r+0x20>
 800da8e:	89ab      	ldrh	r3, [r5, #12]
 800da90:	0598      	lsls	r0, r3, #22
 800da92:	d4ed      	bmi.n	800da70 <_vfiprintf_r+0x4c>
 800da94:	6da8      	ldr	r0, [r5, #88]	; 0x58
 800da96:	f7ff f9fd 	bl	800ce94 <__retarget_lock_release_recursive>
 800da9a:	e7e9      	b.n	800da70 <_vfiprintf_r+0x4c>
 800da9c:	2300      	movs	r3, #0
 800da9e:	9309      	str	r3, [sp, #36]	; 0x24
 800daa0:	2320      	movs	r3, #32
 800daa2:	f88d 3029 	strb.w	r3, [sp, #41]	; 0x29
 800daa6:	f8cd 800c 	str.w	r8, [sp, #12]
 800daaa:	2330      	movs	r3, #48	; 0x30
 800daac:	f8df 81c0 	ldr.w	r8, [pc, #448]	; 800dc70 <_vfiprintf_r+0x24c>
 800dab0:	f88d 302a 	strb.w	r3, [sp, #42]	; 0x2a
 800dab4:	f04f 0901 	mov.w	r9, #1
 800dab8:	4623      	mov	r3, r4
 800daba:	469a      	mov	sl, r3
 800dabc:	f813 2b01 	ldrb.w	r2, [r3], #1
 800dac0:	b10a      	cbz	r2, 800dac6 <_vfiprintf_r+0xa2>
 800dac2:	2a25      	cmp	r2, #37	; 0x25
 800dac4:	d1f9      	bne.n	800daba <_vfiprintf_r+0x96>
 800dac6:	ebba 0b04 	subs.w	fp, sl, r4
 800daca:	d00b      	beq.n	800dae4 <_vfiprintf_r+0xc0>
 800dacc:	465b      	mov	r3, fp
 800dace:	4622      	mov	r2, r4
 800dad0:	4629      	mov	r1, r5
 800dad2:	4630      	mov	r0, r6
 800dad4:	f7ff ff93 	bl	800d9fe <__sfputs_r>
 800dad8:	3001      	adds	r0, #1
 800dada:	f000 80aa 	beq.w	800dc32 <_vfiprintf_r+0x20e>
 800dade:	9a09      	ldr	r2, [sp, #36]	; 0x24
 800dae0:	445a      	add	r2, fp
 800dae2:	9209      	str	r2, [sp, #36]	; 0x24
 800dae4:	f89a 3000 	ldrb.w	r3, [sl]
 800dae8:	2b00      	cmp	r3, #0
 800daea:	f000 80a2 	beq.w	800dc32 <_vfiprintf_r+0x20e>
 800daee:	2300      	movs	r3, #0
 800daf0:	f04f 32ff 	mov.w	r2, #4294967295
 800daf4:	e9cd 2305 	strd	r2, r3, [sp, #20]
 800daf8:	f10a 0a01 	add.w	sl, sl, #1
 800dafc:	9304      	str	r3, [sp, #16]
 800dafe:	9307      	str	r3, [sp, #28]
 800db00:	f88d 3053 	strb.w	r3, [sp, #83]	; 0x53
 800db04:	931a      	str	r3, [sp, #104]	; 0x68
 800db06:	4654      	mov	r4, sl
 800db08:	2205      	movs	r2, #5
 800db0a:	f814 1b01 	ldrb.w	r1, [r4], #1
 800db0e:	4858      	ldr	r0, [pc, #352]	; (800dc70 <_vfiprintf_r+0x24c>)
 800db10:	f7f2 fb66 	bl	80001e0 <memchr>
 800db14:	9a04      	ldr	r2, [sp, #16]
 800db16:	b9d8      	cbnz	r0, 800db50 <_vfiprintf_r+0x12c>
 800db18:	06d1      	lsls	r1, r2, #27
 800db1a:	bf44      	itt	mi
 800db1c:	2320      	movmi	r3, #32
 800db1e:	f88d 3053 	strbmi.w	r3, [sp, #83]	; 0x53
 800db22:	0713      	lsls	r3, r2, #28
 800db24:	bf44      	itt	mi
 800db26:	232b      	movmi	r3, #43	; 0x2b
 800db28:	f88d 3053 	strbmi.w	r3, [sp, #83]	; 0x53
 800db2c:	f89a 3000 	ldrb.w	r3, [sl]
 800db30:	2b2a      	cmp	r3, #42	; 0x2a
 800db32:	d015      	beq.n	800db60 <_vfiprintf_r+0x13c>
 800db34:	9a07      	ldr	r2, [sp, #28]
 800db36:	4654      	mov	r4, sl
 800db38:	2000      	movs	r0, #0
 800db3a:	f04f 0c0a 	mov.w	ip, #10
 800db3e:	4621      	mov	r1, r4
 800db40:	f811 3b01 	ldrb.w	r3, [r1], #1
 800db44:	3b30      	subs	r3, #48	; 0x30
 800db46:	2b09      	cmp	r3, #9
 800db48:	d94e      	bls.n	800dbe8 <_vfiprintf_r+0x1c4>
 800db4a:	b1b0      	cbz	r0, 800db7a <_vfiprintf_r+0x156>
 800db4c:	9207      	str	r2, [sp, #28]
 800db4e:	e014      	b.n	800db7a <_vfiprintf_r+0x156>
 800db50:	eba0 0308 	sub.w	r3, r0, r8
 800db54:	fa09 f303 	lsl.w	r3, r9, r3
 800db58:	4313      	orrs	r3, r2
 800db5a:	9304      	str	r3, [sp, #16]
 800db5c:	46a2      	mov	sl, r4
 800db5e:	e7d2      	b.n	800db06 <_vfiprintf_r+0xe2>
 800db60:	9b03      	ldr	r3, [sp, #12]
 800db62:	1d19      	adds	r1, r3, #4
 800db64:	681b      	ldr	r3, [r3, #0]
 800db66:	9103      	str	r1, [sp, #12]
 800db68:	2b00      	cmp	r3, #0
 800db6a:	bfbb      	ittet	lt
 800db6c:	425b      	neglt	r3, r3
 800db6e:	f042 0202 	orrlt.w	r2, r2, #2
 800db72:	9307      	strge	r3, [sp, #28]
 800db74:	9307      	strlt	r3, [sp, #28]
 800db76:	bfb8      	it	lt
 800db78:	9204      	strlt	r2, [sp, #16]
 800db7a:	7823      	ldrb	r3, [r4, #0]
 800db7c:	2b2e      	cmp	r3, #46	; 0x2e
 800db7e:	d10c      	bne.n	800db9a <_vfiprintf_r+0x176>
 800db80:	7863      	ldrb	r3, [r4, #1]
 800db82:	2b2a      	cmp	r3, #42	; 0x2a
 800db84:	d135      	bne.n	800dbf2 <_vfiprintf_r+0x1ce>
 800db86:	9b03      	ldr	r3, [sp, #12]
 800db88:	1d1a      	adds	r2, r3, #4
 800db8a:	681b      	ldr	r3, [r3, #0]
 800db8c:	9203      	str	r2, [sp, #12]
 800db8e:	2b00      	cmp	r3, #0
 800db90:	bfb8      	it	lt
 800db92:	f04f 33ff 	movlt.w	r3, #4294967295
 800db96:	3402      	adds	r4, #2
 800db98:	9305      	str	r3, [sp, #20]
 800db9a:	f8df a0e4 	ldr.w	sl, [pc, #228]	; 800dc80 <_vfiprintf_r+0x25c>
 800db9e:	7821      	ldrb	r1, [r4, #0]
 800dba0:	2203      	movs	r2, #3
 800dba2:	4650      	mov	r0, sl
 800dba4:	f7f2 fb1c 	bl	80001e0 <memchr>
 800dba8:	b140      	cbz	r0, 800dbbc <_vfiprintf_r+0x198>
 800dbaa:	2340      	movs	r3, #64	; 0x40
 800dbac:	eba0 000a 	sub.w	r0, r0, sl
 800dbb0:	fa03 f000 	lsl.w	r0, r3, r0
 800dbb4:	9b04      	ldr	r3, [sp, #16]
 800dbb6:	4303      	orrs	r3, r0
 800dbb8:	3401      	adds	r4, #1
 800dbba:	9304      	str	r3, [sp, #16]
 800dbbc:	f814 1b01 	ldrb.w	r1, [r4], #1
 800dbc0:	482c      	ldr	r0, [pc, #176]	; (800dc74 <_vfiprintf_r+0x250>)
 800dbc2:	f88d 1028 	strb.w	r1, [sp, #40]	; 0x28
 800dbc6:	2206      	movs	r2, #6
 800dbc8:	f7f2 fb0a 	bl	80001e0 <memchr>
 800dbcc:	2800      	cmp	r0, #0
 800dbce:	d03f      	beq.n	800dc50 <_vfiprintf_r+0x22c>
 800dbd0:	4b29      	ldr	r3, [pc, #164]	; (800dc78 <_vfiprintf_r+0x254>)
 800dbd2:	bb1b      	cbnz	r3, 800dc1c <_vfiprintf_r+0x1f8>
 800dbd4:	9b03      	ldr	r3, [sp, #12]
 800dbd6:	3307      	adds	r3, #7
 800dbd8:	f023 0307 	bic.w	r3, r3, #7
 800dbdc:	3308      	adds	r3, #8
 800dbde:	9303      	str	r3, [sp, #12]
 800dbe0:	9b09      	ldr	r3, [sp, #36]	; 0x24
 800dbe2:	443b      	add	r3, r7
 800dbe4:	9309      	str	r3, [sp, #36]	; 0x24
 800dbe6:	e767      	b.n	800dab8 <_vfiprintf_r+0x94>
 800dbe8:	fb0c 3202 	mla	r2, ip, r2, r3
 800dbec:	460c      	mov	r4, r1
 800dbee:	2001      	movs	r0, #1
 800dbf0:	e7a5      	b.n	800db3e <_vfiprintf_r+0x11a>
 800dbf2:	2300      	movs	r3, #0
 800dbf4:	3401      	adds	r4, #1
 800dbf6:	9305      	str	r3, [sp, #20]
 800dbf8:	4619      	mov	r1, r3
 800dbfa:	f04f 0c0a 	mov.w	ip, #10
 800dbfe:	4620      	mov	r0, r4
 800dc00:	f810 2b01 	ldrb.w	r2, [r0], #1
 800dc04:	3a30      	subs	r2, #48	; 0x30
 800dc06:	2a09      	cmp	r2, #9
 800dc08:	d903      	bls.n	800dc12 <_vfiprintf_r+0x1ee>
 800dc0a:	2b00      	cmp	r3, #0
 800dc0c:	d0c5      	beq.n	800db9a <_vfiprintf_r+0x176>
 800dc0e:	9105      	str	r1, [sp, #20]
 800dc10:	e7c3      	b.n	800db9a <_vfiprintf_r+0x176>
 800dc12:	fb0c 2101 	mla	r1, ip, r1, r2
 800dc16:	4604      	mov	r4, r0
 800dc18:	2301      	movs	r3, #1
 800dc1a:	e7f0      	b.n	800dbfe <_vfiprintf_r+0x1da>
 800dc1c:	ab03      	add	r3, sp, #12
 800dc1e:	9300      	str	r3, [sp, #0]
 800dc20:	462a      	mov	r2, r5
 800dc22:	4b16      	ldr	r3, [pc, #88]	; (800dc7c <_vfiprintf_r+0x258>)
 800dc24:	a904      	add	r1, sp, #16
 800dc26:	4630      	mov	r0, r6
 800dc28:	f7fd fd1e 	bl	800b668 <_printf_float>
 800dc2c:	4607      	mov	r7, r0
 800dc2e:	1c78      	adds	r0, r7, #1
 800dc30:	d1d6      	bne.n	800dbe0 <_vfiprintf_r+0x1bc>
 800dc32:	6e6b      	ldr	r3, [r5, #100]	; 0x64
 800dc34:	07d9      	lsls	r1, r3, #31
 800dc36:	d405      	bmi.n	800dc44 <_vfiprintf_r+0x220>
 800dc38:	89ab      	ldrh	r3, [r5, #12]
 800dc3a:	059a      	lsls	r2, r3, #22
 800dc3c:	d402      	bmi.n	800dc44 <_vfiprintf_r+0x220>
 800dc3e:	6da8      	ldr	r0, [r5, #88]	; 0x58
 800dc40:	f7ff f928 	bl	800ce94 <__retarget_lock_release_recursive>
 800dc44:	89ab      	ldrh	r3, [r5, #12]
 800dc46:	065b      	lsls	r3, r3, #25
 800dc48:	f53f af12 	bmi.w	800da70 <_vfiprintf_r+0x4c>
 800dc4c:	9809      	ldr	r0, [sp, #36]	; 0x24
 800dc4e:	e711      	b.n	800da74 <_vfiprintf_r+0x50>
 800dc50:	ab03      	add	r3, sp, #12
 800dc52:	9300      	str	r3, [sp, #0]
 800dc54:	462a      	mov	r2, r5
 800dc56:	4b09      	ldr	r3, [pc, #36]	; (800dc7c <_vfiprintf_r+0x258>)
 800dc58:	a904      	add	r1, sp, #16
 800dc5a:	4630      	mov	r0, r6
 800dc5c:	f7fd ffa8 	bl	800bbb0 <_printf_i>
 800dc60:	e7e4      	b.n	800dc2c <_vfiprintf_r+0x208>
 800dc62:	bf00      	nop
 800dc64:	0800ffb8 	.word	0x0800ffb8
 800dc68:	0800ffd8 	.word	0x0800ffd8
 800dc6c:	0800ff98 	.word	0x0800ff98
 800dc70:	08010154 	.word	0x08010154
 800dc74:	0801015e 	.word	0x0801015e
 800dc78:	0800b669 	.word	0x0800b669
 800dc7c:	0800d9ff 	.word	0x0800d9ff
 800dc80:	0801015a 	.word	0x0801015a

0800dc84 <_sbrk_r>:
 800dc84:	b538      	push	{r3, r4, r5, lr}
 800dc86:	4d06      	ldr	r5, [pc, #24]	; (800dca0 <_sbrk_r+0x1c>)
 800dc88:	2300      	movs	r3, #0
 800dc8a:	4604      	mov	r4, r0
 800dc8c:	4608      	mov	r0, r1
 800dc8e:	602b      	str	r3, [r5, #0]
 800dc90:	f7f7 fe10 	bl	80058b4 <_sbrk>
 800dc94:	1c43      	adds	r3, r0, #1
 800dc96:	d102      	bne.n	800dc9e <_sbrk_r+0x1a>
 800dc98:	682b      	ldr	r3, [r5, #0]
 800dc9a:	b103      	cbz	r3, 800dc9e <_sbrk_r+0x1a>
 800dc9c:	6023      	str	r3, [r4, #0]
 800dc9e:	bd38      	pop	{r3, r4, r5, pc}
 800dca0:	20002f5c 	.word	0x20002f5c

0800dca4 <__sread>:
 800dca4:	b510      	push	{r4, lr}
 800dca6:	460c      	mov	r4, r1
 800dca8:	f9b1 100e 	ldrsh.w	r1, [r1, #14]
 800dcac:	f000 fabe 	bl	800e22c <_read_r>
 800dcb0:	2800      	cmp	r0, #0
 800dcb2:	bfab      	itete	ge
 800dcb4:	6d63      	ldrge	r3, [r4, #84]	; 0x54
 800dcb6:	89a3      	ldrhlt	r3, [r4, #12]
 800dcb8:	181b      	addge	r3, r3, r0
 800dcba:	f423 5380 	biclt.w	r3, r3, #4096	; 0x1000
 800dcbe:	bfac      	ite	ge
 800dcc0:	6563      	strge	r3, [r4, #84]	; 0x54
 800dcc2:	81a3      	strhlt	r3, [r4, #12]
 800dcc4:	bd10      	pop	{r4, pc}

0800dcc6 <__swrite>:
 800dcc6:	e92d 41f0 	stmdb	sp!, {r4, r5, r6, r7, r8, lr}
 800dcca:	461f      	mov	r7, r3
 800dccc:	898b      	ldrh	r3, [r1, #12]
 800dcce:	05db      	lsls	r3, r3, #23
 800dcd0:	4605      	mov	r5, r0
 800dcd2:	460c      	mov	r4, r1
 800dcd4:	4616      	mov	r6, r2
 800dcd6:	d505      	bpl.n	800dce4 <__swrite+0x1e>
 800dcd8:	f9b1 100e 	ldrsh.w	r1, [r1, #14]
 800dcdc:	2302      	movs	r3, #2
 800dcde:	2200      	movs	r2, #0
 800dce0:	f000 f9d0 	bl	800e084 <_lseek_r>
 800dce4:	89a3      	ldrh	r3, [r4, #12]
 800dce6:	f9b4 100e 	ldrsh.w	r1, [r4, #14]
 800dcea:	f423 5380 	bic.w	r3, r3, #4096	; 0x1000
 800dcee:	81a3      	strh	r3, [r4, #12]
 800dcf0:	4632      	mov	r2, r6
 800dcf2:	463b      	mov	r3, r7
 800dcf4:	4628      	mov	r0, r5
 800dcf6:	e8bd 41f0 	ldmia.w	sp!, {r4, r5, r6, r7, r8, lr}
 800dcfa:	f000 b869 	b.w	800ddd0 <_write_r>

0800dcfe <__sseek>:
 800dcfe:	b510      	push	{r4, lr}
 800dd00:	460c      	mov	r4, r1
 800dd02:	f9b1 100e 	ldrsh.w	r1, [r1, #14]
 800dd06:	f000 f9bd 	bl	800e084 <_lseek_r>
 800dd0a:	1c43      	adds	r3, r0, #1
 800dd0c:	89a3      	ldrh	r3, [r4, #12]
 800dd0e:	bf15      	itete	ne
 800dd10:	6560      	strne	r0, [r4, #84]	; 0x54
 800dd12:	f423 5380 	biceq.w	r3, r3, #4096	; 0x1000
 800dd16:	f443 5380 	orrne.w	r3, r3, #4096	; 0x1000
 800dd1a:	81a3      	strheq	r3, [r4, #12]
 800dd1c:	bf18      	it	ne
 800dd1e:	81a3      	strhne	r3, [r4, #12]
 800dd20:	bd10      	pop	{r4, pc}

0800dd22 <__sclose>:
 800dd22:	f9b1 100e 	ldrsh.w	r1, [r1, #14]
 800dd26:	f000 b8db 	b.w	800dee0 <_close_r>
	...

0800dd2c <__swbuf_r>:
 800dd2c:	b5f8      	push	{r3, r4, r5, r6, r7, lr}
 800dd2e:	460e      	mov	r6, r1
 800dd30:	4614      	mov	r4, r2
 800dd32:	4605      	mov	r5, r0
 800dd34:	b118      	cbz	r0, 800dd3e <__swbuf_r+0x12>
 800dd36:	6983      	ldr	r3, [r0, #24]
 800dd38:	b90b      	cbnz	r3, 800dd3e <__swbuf_r+0x12>
 800dd3a:	f7fe fff5 	bl	800cd28 <__sinit>
 800dd3e:	4b21      	ldr	r3, [pc, #132]	; (800ddc4 <__swbuf_r+0x98>)
 800dd40:	429c      	cmp	r4, r3
 800dd42:	d12b      	bne.n	800dd9c <__swbuf_r+0x70>
 800dd44:	686c      	ldr	r4, [r5, #4]
 800dd46:	69a3      	ldr	r3, [r4, #24]
 800dd48:	60a3      	str	r3, [r4, #8]
 800dd4a:	89a3      	ldrh	r3, [r4, #12]
 800dd4c:	071a      	lsls	r2, r3, #28
 800dd4e:	d52f      	bpl.n	800ddb0 <__swbuf_r+0x84>
 800dd50:	6923      	ldr	r3, [r4, #16]
 800dd52:	b36b      	cbz	r3, 800ddb0 <__swbuf_r+0x84>
 800dd54:	6923      	ldr	r3, [r4, #16]
 800dd56:	6820      	ldr	r0, [r4, #0]
 800dd58:	1ac0      	subs	r0, r0, r3
 800dd5a:	6963      	ldr	r3, [r4, #20]
 800dd5c:	b2f6      	uxtb	r6, r6
 800dd5e:	4283      	cmp	r3, r0
 800dd60:	4637      	mov	r7, r6
 800dd62:	dc04      	bgt.n	800dd6e <__swbuf_r+0x42>
 800dd64:	4621      	mov	r1, r4
 800dd66:	4628      	mov	r0, r5
 800dd68:	f000 f950 	bl	800e00c <_fflush_r>
 800dd6c:	bb30      	cbnz	r0, 800ddbc <__swbuf_r+0x90>
 800dd6e:	68a3      	ldr	r3, [r4, #8]
 800dd70:	3b01      	subs	r3, #1
 800dd72:	60a3      	str	r3, [r4, #8]
 800dd74:	6823      	ldr	r3, [r4, #0]
 800dd76:	1c5a      	adds	r2, r3, #1
 800dd78:	6022      	str	r2, [r4, #0]
 800dd7a:	701e      	strb	r6, [r3, #0]
 800dd7c:	6963      	ldr	r3, [r4, #20]
 800dd7e:	3001      	adds	r0, #1
 800dd80:	4283      	cmp	r3, r0
 800dd82:	d004      	beq.n	800dd8e <__swbuf_r+0x62>
 800dd84:	89a3      	ldrh	r3, [r4, #12]
 800dd86:	07db      	lsls	r3, r3, #31
 800dd88:	d506      	bpl.n	800dd98 <__swbuf_r+0x6c>
 800dd8a:	2e0a      	cmp	r6, #10
 800dd8c:	d104      	bne.n	800dd98 <__swbuf_r+0x6c>
 800dd8e:	4621      	mov	r1, r4
 800dd90:	4628      	mov	r0, r5
 800dd92:	f000 f93b 	bl	800e00c <_fflush_r>
 800dd96:	b988      	cbnz	r0, 800ddbc <__swbuf_r+0x90>
 800dd98:	4638      	mov	r0, r7
 800dd9a:	bdf8      	pop	{r3, r4, r5, r6, r7, pc}
 800dd9c:	4b0a      	ldr	r3, [pc, #40]	; (800ddc8 <__swbuf_r+0x9c>)
 800dd9e:	429c      	cmp	r4, r3
 800dda0:	d101      	bne.n	800dda6 <__swbuf_r+0x7a>
 800dda2:	68ac      	ldr	r4, [r5, #8]
 800dda4:	e7cf      	b.n	800dd46 <__swbuf_r+0x1a>
 800dda6:	4b09      	ldr	r3, [pc, #36]	; (800ddcc <__swbuf_r+0xa0>)
 800dda8:	429c      	cmp	r4, r3
 800ddaa:	bf08      	it	eq
 800ddac:	68ec      	ldreq	r4, [r5, #12]
 800ddae:	e7ca      	b.n	800dd46 <__swbuf_r+0x1a>
 800ddb0:	4621      	mov	r1, r4
 800ddb2:	4628      	mov	r0, r5
 800ddb4:	f000 f81e 	bl	800ddf4 <__swsetup_r>
 800ddb8:	2800      	cmp	r0, #0
 800ddba:	d0cb      	beq.n	800dd54 <__swbuf_r+0x28>
 800ddbc:	f04f 37ff 	mov.w	r7, #4294967295
 800ddc0:	e7ea      	b.n	800dd98 <__swbuf_r+0x6c>
 800ddc2:	bf00      	nop
 800ddc4:	0800ffb8 	.word	0x0800ffb8
 800ddc8:	0800ffd8 	.word	0x0800ffd8
 800ddcc:	0800ff98 	.word	0x0800ff98

0800ddd0 <_write_r>:
 800ddd0:	b538      	push	{r3, r4, r5, lr}
 800ddd2:	4d07      	ldr	r5, [pc, #28]	; (800ddf0 <_write_r+0x20>)
 800ddd4:	4604      	mov	r4, r0
 800ddd6:	4608      	mov	r0, r1
 800ddd8:	4611      	mov	r1, r2
 800ddda:	2200      	movs	r2, #0
 800dddc:	602a      	str	r2, [r5, #0]
 800ddde:	461a      	mov	r2, r3
 800dde0:	f7f7 fd4f 	bl	8005882 <_write>
 800dde4:	1c43      	adds	r3, r0, #1
 800dde6:	d102      	bne.n	800ddee <_write_r+0x1e>
 800dde8:	682b      	ldr	r3, [r5, #0]
 800ddea:	b103      	cbz	r3, 800ddee <_write_r+0x1e>
 800ddec:	6023      	str	r3, [r4, #0]
 800ddee:	bd38      	pop	{r3, r4, r5, pc}
 800ddf0:	20002f5c 	.word	0x20002f5c

0800ddf4 <__swsetup_r>:
 800ddf4:	4b32      	ldr	r3, [pc, #200]	; (800dec0 <__swsetup_r+0xcc>)
 800ddf6:	b570      	push	{r4, r5, r6, lr}
 800ddf8:	681d      	ldr	r5, [r3, #0]
 800ddfa:	4606      	mov	r6, r0
 800ddfc:	460c      	mov	r4, r1
 800ddfe:	b125      	cbz	r5, 800de0a <__swsetup_r+0x16>
 800de00:	69ab      	ldr	r3, [r5, #24]
 800de02:	b913      	cbnz	r3, 800de0a <__swsetup_r+0x16>
 800de04:	4628      	mov	r0, r5
 800de06:	f7fe ff8f 	bl	800cd28 <__sinit>
 800de0a:	4b2e      	ldr	r3, [pc, #184]	; (800dec4 <__swsetup_r+0xd0>)
 800de0c:	429c      	cmp	r4, r3
 800de0e:	d10f      	bne.n	800de30 <__swsetup_r+0x3c>
 800de10:	686c      	ldr	r4, [r5, #4]
 800de12:	89a3      	ldrh	r3, [r4, #12]
 800de14:	f9b4 200c 	ldrsh.w	r2, [r4, #12]
 800de18:	0719      	lsls	r1, r3, #28
 800de1a:	d42c      	bmi.n	800de76 <__swsetup_r+0x82>
 800de1c:	06dd      	lsls	r5, r3, #27
 800de1e:	d411      	bmi.n	800de44 <__swsetup_r+0x50>
 800de20:	2309      	movs	r3, #9
 800de22:	6033      	str	r3, [r6, #0]
 800de24:	f042 0340 	orr.w	r3, r2, #64	; 0x40
 800de28:	81a3      	strh	r3, [r4, #12]
 800de2a:	f04f 30ff 	mov.w	r0, #4294967295
 800de2e:	e03e      	b.n	800deae <__swsetup_r+0xba>
 800de30:	4b25      	ldr	r3, [pc, #148]	; (800dec8 <__swsetup_r+0xd4>)
 800de32:	429c      	cmp	r4, r3
 800de34:	d101      	bne.n	800de3a <__swsetup_r+0x46>
 800de36:	68ac      	ldr	r4, [r5, #8]
 800de38:	e7eb      	b.n	800de12 <__swsetup_r+0x1e>
 800de3a:	4b24      	ldr	r3, [pc, #144]	; (800decc <__swsetup_r+0xd8>)
 800de3c:	429c      	cmp	r4, r3
 800de3e:	bf08      	it	eq
 800de40:	68ec      	ldreq	r4, [r5, #12]
 800de42:	e7e6      	b.n	800de12 <__swsetup_r+0x1e>
 800de44:	0758      	lsls	r0, r3, #29
 800de46:	d512      	bpl.n	800de6e <__swsetup_r+0x7a>
 800de48:	6b61      	ldr	r1, [r4, #52]	; 0x34
 800de4a:	b141      	cbz	r1, 800de5e <__swsetup_r+0x6a>
 800de4c:	f104 0344 	add.w	r3, r4, #68	; 0x44
 800de50:	4299      	cmp	r1, r3
 800de52:	d002      	beq.n	800de5a <__swsetup_r+0x66>
 800de54:	4630      	mov	r0, r6
 800de56:	f7ff fbb5 	bl	800d5c4 <_free_r>
 800de5a:	2300      	movs	r3, #0
 800de5c:	6363      	str	r3, [r4, #52]	; 0x34
 800de5e:	89a3      	ldrh	r3, [r4, #12]
 800de60:	f023 0324 	bic.w	r3, r3, #36	; 0x24
 800de64:	81a3      	strh	r3, [r4, #12]
 800de66:	2300      	movs	r3, #0
 800de68:	6063      	str	r3, [r4, #4]
 800de6a:	6923      	ldr	r3, [r4, #16]
 800de6c:	6023      	str	r3, [r4, #0]
 800de6e:	89a3      	ldrh	r3, [r4, #12]
 800de70:	f043 0308 	orr.w	r3, r3, #8
 800de74:	81a3      	strh	r3, [r4, #12]
 800de76:	6923      	ldr	r3, [r4, #16]
 800de78:	b94b      	cbnz	r3, 800de8e <__swsetup_r+0x9a>
 800de7a:	89a3      	ldrh	r3, [r4, #12]
 800de7c:	f403 7320 	and.w	r3, r3, #640	; 0x280
 800de80:	f5b3 7f00 	cmp.w	r3, #512	; 0x200
 800de84:	d003      	beq.n	800de8e <__swsetup_r+0x9a>
 800de86:	4621      	mov	r1, r4
 800de88:	4630      	mov	r0, r6
 800de8a:	f000 f931 	bl	800e0f0 <__smakebuf_r>
 800de8e:	89a0      	ldrh	r0, [r4, #12]
 800de90:	f9b4 200c 	ldrsh.w	r2, [r4, #12]
 800de94:	f010 0301 	ands.w	r3, r0, #1
 800de98:	d00a      	beq.n	800deb0 <__swsetup_r+0xbc>
 800de9a:	2300      	movs	r3, #0
 800de9c:	60a3      	str	r3, [r4, #8]
 800de9e:	6963      	ldr	r3, [r4, #20]
 800dea0:	425b      	negs	r3, r3
 800dea2:	61a3      	str	r3, [r4, #24]
 800dea4:	6923      	ldr	r3, [r4, #16]
 800dea6:	b943      	cbnz	r3, 800deba <__swsetup_r+0xc6>
 800dea8:	f010 0080 	ands.w	r0, r0, #128	; 0x80
 800deac:	d1ba      	bne.n	800de24 <__swsetup_r+0x30>
 800deae:	bd70      	pop	{r4, r5, r6, pc}
 800deb0:	0781      	lsls	r1, r0, #30
 800deb2:	bf58      	it	pl
 800deb4:	6963      	ldrpl	r3, [r4, #20]
 800deb6:	60a3      	str	r3, [r4, #8]
 800deb8:	e7f4      	b.n	800dea4 <__swsetup_r+0xb0>
 800deba:	2000      	movs	r0, #0
 800debc:	e7f7      	b.n	800deae <__swsetup_r+0xba>
 800debe:	bf00      	nop
 800dec0:	20000738 	.word	0x20000738
 800dec4:	0800ffb8 	.word	0x0800ffb8
 800dec8:	0800ffd8 	.word	0x0800ffd8
 800decc:	0800ff98 	.word	0x0800ff98

0800ded0 <abort>:
 800ded0:	b508      	push	{r3, lr}
 800ded2:	2006      	movs	r0, #6
 800ded4:	f000 f9e4 	bl	800e2a0 <raise>
 800ded8:	2001      	movs	r0, #1
 800deda:	f7f7 fcbf 	bl	800585c <_exit>
	...

0800dee0 <_close_r>:
 800dee0:	b538      	push	{r3, r4, r5, lr}
 800dee2:	4d06      	ldr	r5, [pc, #24]	; (800defc <_close_r+0x1c>)
 800dee4:	2300      	movs	r3, #0
 800dee6:	4604      	mov	r4, r0
 800dee8:	4608      	mov	r0, r1
 800deea:	602b      	str	r3, [r5, #0]
 800deec:	f7f7 fcd6 	bl	800589c <_close>
 800def0:	1c43      	adds	r3, r0, #1
 800def2:	d102      	bne.n	800defa <_close_r+0x1a>
 800def4:	682b      	ldr	r3, [r5, #0]
 800def6:	b103      	cbz	r3, 800defa <_close_r+0x1a>
 800def8:	6023      	str	r3, [r4, #0]
 800defa:	bd38      	pop	{r3, r4, r5, pc}
 800defc:	20002f5c 	.word	0x20002f5c

0800df00 <__sflush_r>:
 800df00:	898a      	ldrh	r2, [r1, #12]
 800df02:	e92d 41f0 	stmdb	sp!, {r4, r5, r6, r7, r8, lr}
 800df06:	4605      	mov	r5, r0
 800df08:	0710      	lsls	r0, r2, #28
 800df0a:	460c      	mov	r4, r1
 800df0c:	d458      	bmi.n	800dfc0 <__sflush_r+0xc0>
 800df0e:	684b      	ldr	r3, [r1, #4]
 800df10:	2b00      	cmp	r3, #0
 800df12:	dc05      	bgt.n	800df20 <__sflush_r+0x20>
 800df14:	6c0b      	ldr	r3, [r1, #64]	; 0x40
 800df16:	2b00      	cmp	r3, #0
 800df18:	dc02      	bgt.n	800df20 <__sflush_r+0x20>
 800df1a:	2000      	movs	r0, #0
 800df1c:	e8bd 81f0 	ldmia.w	sp!, {r4, r5, r6, r7, r8, pc}
 800df20:	6ae6      	ldr	r6, [r4, #44]	; 0x2c
 800df22:	2e00      	cmp	r6, #0
 800df24:	d0f9      	beq.n	800df1a <__sflush_r+0x1a>
 800df26:	2300      	movs	r3, #0
 800df28:	f412 5280 	ands.w	r2, r2, #4096	; 0x1000
 800df2c:	682f      	ldr	r7, [r5, #0]
 800df2e:	602b      	str	r3, [r5, #0]
 800df30:	d032      	beq.n	800df98 <__sflush_r+0x98>
 800df32:	6d60      	ldr	r0, [r4, #84]	; 0x54
 800df34:	89a3      	ldrh	r3, [r4, #12]
 800df36:	075a      	lsls	r2, r3, #29
 800df38:	d505      	bpl.n	800df46 <__sflush_r+0x46>
 800df3a:	6863      	ldr	r3, [r4, #4]
 800df3c:	1ac0      	subs	r0, r0, r3
 800df3e:	6b63      	ldr	r3, [r4, #52]	; 0x34
 800df40:	b10b      	cbz	r3, 800df46 <__sflush_r+0x46>
 800df42:	6c23      	ldr	r3, [r4, #64]	; 0x40
 800df44:	1ac0      	subs	r0, r0, r3
 800df46:	2300      	movs	r3, #0
 800df48:	4602      	mov	r2, r0
 800df4a:	6ae6      	ldr	r6, [r4, #44]	; 0x2c
 800df4c:	6a21      	ldr	r1, [r4, #32]
 800df4e:	4628      	mov	r0, r5
 800df50:	47b0      	blx	r6
 800df52:	1c43      	adds	r3, r0, #1
 800df54:	89a3      	ldrh	r3, [r4, #12]
 800df56:	d106      	bne.n	800df66 <__sflush_r+0x66>
 800df58:	6829      	ldr	r1, [r5, #0]
 800df5a:	291d      	cmp	r1, #29
 800df5c:	d82c      	bhi.n	800dfb8 <__sflush_r+0xb8>
 800df5e:	4a2a      	ldr	r2, [pc, #168]	; (800e008 <__sflush_r+0x108>)
 800df60:	40ca      	lsrs	r2, r1
 800df62:	07d6      	lsls	r6, r2, #31
 800df64:	d528      	bpl.n	800dfb8 <__sflush_r+0xb8>
 800df66:	2200      	movs	r2, #0
 800df68:	6062      	str	r2, [r4, #4]
 800df6a:	04d9      	lsls	r1, r3, #19
 800df6c:	6922      	ldr	r2, [r4, #16]
 800df6e:	6022      	str	r2, [r4, #0]
 800df70:	d504      	bpl.n	800df7c <__sflush_r+0x7c>
 800df72:	1c42      	adds	r2, r0, #1
 800df74:	d101      	bne.n	800df7a <__sflush_r+0x7a>
 800df76:	682b      	ldr	r3, [r5, #0]
 800df78:	b903      	cbnz	r3, 800df7c <__sflush_r+0x7c>
 800df7a:	6560      	str	r0, [r4, #84]	; 0x54
 800df7c:	6b61      	ldr	r1, [r4, #52]	; 0x34
 800df7e:	602f      	str	r7, [r5, #0]
 800df80:	2900      	cmp	r1, #0
 800df82:	d0ca      	beq.n	800df1a <__sflush_r+0x1a>
 800df84:	f104 0344 	add.w	r3, r4, #68	; 0x44
 800df88:	4299      	cmp	r1, r3
 800df8a:	d002      	beq.n	800df92 <__sflush_r+0x92>
 800df8c:	4628      	mov	r0, r5
 800df8e:	f7ff fb19 	bl	800d5c4 <_free_r>
 800df92:	2000      	movs	r0, #0
 800df94:	6360      	str	r0, [r4, #52]	; 0x34
 800df96:	e7c1      	b.n	800df1c <__sflush_r+0x1c>
 800df98:	6a21      	ldr	r1, [r4, #32]
 800df9a:	2301      	movs	r3, #1
 800df9c:	4628      	mov	r0, r5
 800df9e:	47b0      	blx	r6
 800dfa0:	1c41      	adds	r1, r0, #1
 800dfa2:	d1c7      	bne.n	800df34 <__sflush_r+0x34>
 800dfa4:	682b      	ldr	r3, [r5, #0]
 800dfa6:	2b00      	cmp	r3, #0
 800dfa8:	d0c4      	beq.n	800df34 <__sflush_r+0x34>
 800dfaa:	2b1d      	cmp	r3, #29
 800dfac:	d001      	beq.n	800dfb2 <__sflush_r+0xb2>
 800dfae:	2b16      	cmp	r3, #22
 800dfb0:	d101      	bne.n	800dfb6 <__sflush_r+0xb6>
 800dfb2:	602f      	str	r7, [r5, #0]
 800dfb4:	e7b1      	b.n	800df1a <__sflush_r+0x1a>
 800dfb6:	89a3      	ldrh	r3, [r4, #12]
 800dfb8:	f043 0340 	orr.w	r3, r3, #64	; 0x40
 800dfbc:	81a3      	strh	r3, [r4, #12]
 800dfbe:	e7ad      	b.n	800df1c <__sflush_r+0x1c>
 800dfc0:	690f      	ldr	r7, [r1, #16]
 800dfc2:	2f00      	cmp	r7, #0
 800dfc4:	d0a9      	beq.n	800df1a <__sflush_r+0x1a>
 800dfc6:	0793      	lsls	r3, r2, #30
 800dfc8:	680e      	ldr	r6, [r1, #0]
 800dfca:	bf08      	it	eq
 800dfcc:	694b      	ldreq	r3, [r1, #20]
 800dfce:	600f      	str	r7, [r1, #0]
 800dfd0:	bf18      	it	ne
 800dfd2:	2300      	movne	r3, #0
 800dfd4:	eba6 0807 	sub.w	r8, r6, r7
 800dfd8:	608b      	str	r3, [r1, #8]
 800dfda:	f1b8 0f00 	cmp.w	r8, #0
 800dfde:	dd9c      	ble.n	800df1a <__sflush_r+0x1a>
 800dfe0:	6a21      	ldr	r1, [r4, #32]
 800dfe2:	6aa6      	ldr	r6, [r4, #40]	; 0x28
 800dfe4:	4643      	mov	r3, r8
 800dfe6:	463a      	mov	r2, r7
 800dfe8:	4628      	mov	r0, r5
 800dfea:	47b0      	blx	r6
 800dfec:	2800      	cmp	r0, #0
 800dfee:	dc06      	bgt.n	800dffe <__sflush_r+0xfe>
 800dff0:	89a3      	ldrh	r3, [r4, #12]
 800dff2:	f043 0340 	orr.w	r3, r3, #64	; 0x40
 800dff6:	81a3      	strh	r3, [r4, #12]
 800dff8:	f04f 30ff 	mov.w	r0, #4294967295
 800dffc:	e78e      	b.n	800df1c <__sflush_r+0x1c>
 800dffe:	4407      	add	r7, r0
 800e000:	eba8 0800 	sub.w	r8, r8, r0
 800e004:	e7e9      	b.n	800dfda <__sflush_r+0xda>
 800e006:	bf00      	nop
 800e008:	20400001 	.word	0x20400001

0800e00c <_fflush_r>:
 800e00c:	b538      	push	{r3, r4, r5, lr}
 800e00e:	690b      	ldr	r3, [r1, #16]
 800e010:	4605      	mov	r5, r0
 800e012:	460c      	mov	r4, r1
 800e014:	b913      	cbnz	r3, 800e01c <_fflush_r+0x10>
 800e016:	2500      	movs	r5, #0
 800e018:	4628      	mov	r0, r5
 800e01a:	bd38      	pop	{r3, r4, r5, pc}
 800e01c:	b118      	cbz	r0, 800e026 <_fflush_r+0x1a>
 800e01e:	6983      	ldr	r3, [r0, #24]
 800e020:	b90b      	cbnz	r3, 800e026 <_fflush_r+0x1a>
 800e022:	f7fe fe81 	bl	800cd28 <__sinit>
 800e026:	4b14      	ldr	r3, [pc, #80]	; (800e078 <_fflush_r+0x6c>)
 800e028:	429c      	cmp	r4, r3
 800e02a:	d11b      	bne.n	800e064 <_fflush_r+0x58>
 800e02c:	686c      	ldr	r4, [r5, #4]
 800e02e:	f9b4 300c 	ldrsh.w	r3, [r4, #12]
 800e032:	2b00      	cmp	r3, #0
 800e034:	d0ef      	beq.n	800e016 <_fflush_r+0xa>
 800e036:	6e62      	ldr	r2, [r4, #100]	; 0x64
 800e038:	07d0      	lsls	r0, r2, #31
 800e03a:	d404      	bmi.n	800e046 <_fflush_r+0x3a>
 800e03c:	0599      	lsls	r1, r3, #22
 800e03e:	d402      	bmi.n	800e046 <_fflush_r+0x3a>
 800e040:	6da0      	ldr	r0, [r4, #88]	; 0x58
 800e042:	f7fe ff26 	bl	800ce92 <__retarget_lock_acquire_recursive>
 800e046:	4628      	mov	r0, r5
 800e048:	4621      	mov	r1, r4
 800e04a:	f7ff ff59 	bl	800df00 <__sflush_r>
 800e04e:	6e63      	ldr	r3, [r4, #100]	; 0x64
 800e050:	07da      	lsls	r2, r3, #31
 800e052:	4605      	mov	r5, r0
 800e054:	d4e0      	bmi.n	800e018 <_fflush_r+0xc>
 800e056:	89a3      	ldrh	r3, [r4, #12]
 800e058:	059b      	lsls	r3, r3, #22
 800e05a:	d4dd      	bmi.n	800e018 <_fflush_r+0xc>
 800e05c:	6da0      	ldr	r0, [r4, #88]	; 0x58
 800e05e:	f7fe ff19 	bl	800ce94 <__retarget_lock_release_recursive>
 800e062:	e7d9      	b.n	800e018 <_fflush_r+0xc>
 800e064:	4b05      	ldr	r3, [pc, #20]	; (800e07c <_fflush_r+0x70>)
 800e066:	429c      	cmp	r4, r3
 800e068:	d101      	bne.n	800e06e <_fflush_r+0x62>
 800e06a:	68ac      	ldr	r4, [r5, #8]
 800e06c:	e7df      	b.n	800e02e <_fflush_r+0x22>
 800e06e:	4b04      	ldr	r3, [pc, #16]	; (800e080 <_fflush_r+0x74>)
 800e070:	429c      	cmp	r4, r3
 800e072:	bf08      	it	eq
 800e074:	68ec      	ldreq	r4, [r5, #12]
 800e076:	e7da      	b.n	800e02e <_fflush_r+0x22>
 800e078:	0800ffb8 	.word	0x0800ffb8
 800e07c:	0800ffd8 	.word	0x0800ffd8
 800e080:	0800ff98 	.word	0x0800ff98

0800e084 <_lseek_r>:
 800e084:	b538      	push	{r3, r4, r5, lr}
 800e086:	4d07      	ldr	r5, [pc, #28]	; (800e0a4 <_lseek_r+0x20>)
 800e088:	4604      	mov	r4, r0
 800e08a:	4608      	mov	r0, r1
 800e08c:	4611      	mov	r1, r2
 800e08e:	2200      	movs	r2, #0
 800e090:	602a      	str	r2, [r5, #0]
 800e092:	461a      	mov	r2, r3
 800e094:	f7f7 fc0c 	bl	80058b0 <_lseek>
 800e098:	1c43      	adds	r3, r0, #1
 800e09a:	d102      	bne.n	800e0a2 <_lseek_r+0x1e>
 800e09c:	682b      	ldr	r3, [r5, #0]
 800e09e:	b103      	cbz	r3, 800e0a2 <_lseek_r+0x1e>
 800e0a0:	6023      	str	r3, [r4, #0]
 800e0a2:	bd38      	pop	{r3, r4, r5, pc}
 800e0a4:	20002f5c 	.word	0x20002f5c

0800e0a8 <__swhatbuf_r>:
 800e0a8:	b570      	push	{r4, r5, r6, lr}
 800e0aa:	460e      	mov	r6, r1
 800e0ac:	f9b1 100e 	ldrsh.w	r1, [r1, #14]
 800e0b0:	2900      	cmp	r1, #0
 800e0b2:	b096      	sub	sp, #88	; 0x58
 800e0b4:	4614      	mov	r4, r2
 800e0b6:	461d      	mov	r5, r3
 800e0b8:	da07      	bge.n	800e0ca <__swhatbuf_r+0x22>
 800e0ba:	2300      	movs	r3, #0
 800e0bc:	602b      	str	r3, [r5, #0]
 800e0be:	89b3      	ldrh	r3, [r6, #12]
 800e0c0:	061a      	lsls	r2, r3, #24
 800e0c2:	d410      	bmi.n	800e0e6 <__swhatbuf_r+0x3e>
 800e0c4:	f44f 6380 	mov.w	r3, #1024	; 0x400
 800e0c8:	e00e      	b.n	800e0e8 <__swhatbuf_r+0x40>
 800e0ca:	466a      	mov	r2, sp
 800e0cc:	f000 f912 	bl	800e2f4 <_fstat_r>
 800e0d0:	2800      	cmp	r0, #0
 800e0d2:	dbf2      	blt.n	800e0ba <__swhatbuf_r+0x12>
 800e0d4:	9a01      	ldr	r2, [sp, #4]
 800e0d6:	f402 4270 	and.w	r2, r2, #61440	; 0xf000
 800e0da:	f5a2 5300 	sub.w	r3, r2, #8192	; 0x2000
 800e0de:	425a      	negs	r2, r3
 800e0e0:	415a      	adcs	r2, r3
 800e0e2:	602a      	str	r2, [r5, #0]
 800e0e4:	e7ee      	b.n	800e0c4 <__swhatbuf_r+0x1c>
 800e0e6:	2340      	movs	r3, #64	; 0x40
 800e0e8:	2000      	movs	r0, #0
 800e0ea:	6023      	str	r3, [r4, #0]
 800e0ec:	b016      	add	sp, #88	; 0x58
 800e0ee:	bd70      	pop	{r4, r5, r6, pc}

0800e0f0 <__smakebuf_r>:
 800e0f0:	898b      	ldrh	r3, [r1, #12]
 800e0f2:	b573      	push	{r0, r1, r4, r5, r6, lr}
 800e0f4:	079d      	lsls	r5, r3, #30
 800e0f6:	4606      	mov	r6, r0
 800e0f8:	460c      	mov	r4, r1
 800e0fa:	d507      	bpl.n	800e10c <__smakebuf_r+0x1c>
 800e0fc:	f104 0347 	add.w	r3, r4, #71	; 0x47
 800e100:	6023      	str	r3, [r4, #0]
 800e102:	6123      	str	r3, [r4, #16]
 800e104:	2301      	movs	r3, #1
 800e106:	6163      	str	r3, [r4, #20]
 800e108:	b002      	add	sp, #8
 800e10a:	bd70      	pop	{r4, r5, r6, pc}
 800e10c:	ab01      	add	r3, sp, #4
 800e10e:	466a      	mov	r2, sp
 800e110:	f7ff ffca 	bl	800e0a8 <__swhatbuf_r>
 800e114:	9900      	ldr	r1, [sp, #0]
 800e116:	4605      	mov	r5, r0
 800e118:	4630      	mov	r0, r6
 800e11a:	f7ff faa3 	bl	800d664 <_malloc_r>
 800e11e:	b948      	cbnz	r0, 800e134 <__smakebuf_r+0x44>
 800e120:	f9b4 300c 	ldrsh.w	r3, [r4, #12]
 800e124:	059a      	lsls	r2, r3, #22
 800e126:	d4ef      	bmi.n	800e108 <__smakebuf_r+0x18>
 800e128:	f023 0303 	bic.w	r3, r3, #3
 800e12c:	f043 0302 	orr.w	r3, r3, #2
 800e130:	81a3      	strh	r3, [r4, #12]
 800e132:	e7e3      	b.n	800e0fc <__smakebuf_r+0xc>
 800e134:	4b0d      	ldr	r3, [pc, #52]	; (800e16c <__smakebuf_r+0x7c>)
 800e136:	62b3      	str	r3, [r6, #40]	; 0x28
 800e138:	89a3      	ldrh	r3, [r4, #12]
 800e13a:	6020      	str	r0, [r4, #0]
 800e13c:	f043 0380 	orr.w	r3, r3, #128	; 0x80
 800e140:	81a3      	strh	r3, [r4, #12]
 800e142:	9b00      	ldr	r3, [sp, #0]
 800e144:	6163      	str	r3, [r4, #20]
 800e146:	9b01      	ldr	r3, [sp, #4]
 800e148:	6120      	str	r0, [r4, #16]
 800e14a:	b15b      	cbz	r3, 800e164 <__smakebuf_r+0x74>
 800e14c:	f9b4 100e 	ldrsh.w	r1, [r4, #14]
 800e150:	4630      	mov	r0, r6
 800e152:	f000 f8e1 	bl	800e318 <_isatty_r>
 800e156:	b128      	cbz	r0, 800e164 <__smakebuf_r+0x74>
 800e158:	89a3      	ldrh	r3, [r4, #12]
 800e15a:	f023 0303 	bic.w	r3, r3, #3
 800e15e:	f043 0301 	orr.w	r3, r3, #1
 800e162:	81a3      	strh	r3, [r4, #12]
 800e164:	89a0      	ldrh	r0, [r4, #12]
 800e166:	4305      	orrs	r5, r0
 800e168:	81a5      	strh	r5, [r4, #12]
 800e16a:	e7cd      	b.n	800e108 <__smakebuf_r+0x18>
 800e16c:	0800ccc1 	.word	0x0800ccc1

0800e170 <__ascii_mbtowc>:
 800e170:	b082      	sub	sp, #8
 800e172:	b901      	cbnz	r1, 800e176 <__ascii_mbtowc+0x6>
 800e174:	a901      	add	r1, sp, #4
 800e176:	b142      	cbz	r2, 800e18a <__ascii_mbtowc+0x1a>
 800e178:	b14b      	cbz	r3, 800e18e <__ascii_mbtowc+0x1e>
 800e17a:	7813      	ldrb	r3, [r2, #0]
 800e17c:	600b      	str	r3, [r1, #0]
 800e17e:	7812      	ldrb	r2, [r2, #0]
 800e180:	1e10      	subs	r0, r2, #0
 800e182:	bf18      	it	ne
 800e184:	2001      	movne	r0, #1
 800e186:	b002      	add	sp, #8
 800e188:	4770      	bx	lr
 800e18a:	4610      	mov	r0, r2
 800e18c:	e7fb      	b.n	800e186 <__ascii_mbtowc+0x16>
 800e18e:	f06f 0001 	mvn.w	r0, #1
 800e192:	e7f8      	b.n	800e186 <__ascii_mbtowc+0x16>

0800e194 <memmove>:
 800e194:	4288      	cmp	r0, r1
 800e196:	b510      	push	{r4, lr}
 800e198:	eb01 0402 	add.w	r4, r1, r2
 800e19c:	d902      	bls.n	800e1a4 <memmove+0x10>
 800e19e:	4284      	cmp	r4, r0
 800e1a0:	4623      	mov	r3, r4
 800e1a2:	d807      	bhi.n	800e1b4 <memmove+0x20>
 800e1a4:	1e43      	subs	r3, r0, #1
 800e1a6:	42a1      	cmp	r1, r4
 800e1a8:	d008      	beq.n	800e1bc <memmove+0x28>
 800e1aa:	f811 2b01 	ldrb.w	r2, [r1], #1
 800e1ae:	f803 2f01 	strb.w	r2, [r3, #1]!
 800e1b2:	e7f8      	b.n	800e1a6 <memmove+0x12>
 800e1b4:	4402      	add	r2, r0
 800e1b6:	4601      	mov	r1, r0
 800e1b8:	428a      	cmp	r2, r1
 800e1ba:	d100      	bne.n	800e1be <memmove+0x2a>
 800e1bc:	bd10      	pop	{r4, pc}
 800e1be:	f813 4d01 	ldrb.w	r4, [r3, #-1]!
 800e1c2:	f802 4d01 	strb.w	r4, [r2, #-1]!
 800e1c6:	e7f7      	b.n	800e1b8 <memmove+0x24>

0800e1c8 <__malloc_lock>:
 800e1c8:	4801      	ldr	r0, [pc, #4]	; (800e1d0 <__malloc_lock+0x8>)
 800e1ca:	f7fe be62 	b.w	800ce92 <__retarget_lock_acquire_recursive>
 800e1ce:	bf00      	nop
 800e1d0:	20002f50 	.word	0x20002f50

0800e1d4 <__malloc_unlock>:
 800e1d4:	4801      	ldr	r0, [pc, #4]	; (800e1dc <__malloc_unlock+0x8>)
 800e1d6:	f7fe be5d 	b.w	800ce94 <__retarget_lock_release_recursive>
 800e1da:	bf00      	nop
 800e1dc:	20002f50 	.word	0x20002f50

0800e1e0 <_realloc_r>:
 800e1e0:	b5f8      	push	{r3, r4, r5, r6, r7, lr}
 800e1e2:	4607      	mov	r7, r0
 800e1e4:	4614      	mov	r4, r2
 800e1e6:	460e      	mov	r6, r1
 800e1e8:	b921      	cbnz	r1, 800e1f4 <_realloc_r+0x14>
 800e1ea:	e8bd 40f8 	ldmia.w	sp!, {r3, r4, r5, r6, r7, lr}
 800e1ee:	4611      	mov	r1, r2
 800e1f0:	f7ff ba38 	b.w	800d664 <_malloc_r>
 800e1f4:	b922      	cbnz	r2, 800e200 <_realloc_r+0x20>
 800e1f6:	f7ff f9e5 	bl	800d5c4 <_free_r>
 800e1fa:	4625      	mov	r5, r4
 800e1fc:	4628      	mov	r0, r5
 800e1fe:	bdf8      	pop	{r3, r4, r5, r6, r7, pc}
 800e200:	f000 f89a 	bl	800e338 <_malloc_usable_size_r>
 800e204:	42a0      	cmp	r0, r4
 800e206:	d20f      	bcs.n	800e228 <_realloc_r+0x48>
 800e208:	4621      	mov	r1, r4
 800e20a:	4638      	mov	r0, r7
 800e20c:	f7ff fa2a 	bl	800d664 <_malloc_r>
 800e210:	4605      	mov	r5, r0
 800e212:	2800      	cmp	r0, #0
 800e214:	d0f2      	beq.n	800e1fc <_realloc_r+0x1c>
 800e216:	4631      	mov	r1, r6
 800e218:	4622      	mov	r2, r4
 800e21a:	f7fd f96f 	bl	800b4fc <memcpy>
 800e21e:	4631      	mov	r1, r6
 800e220:	4638      	mov	r0, r7
 800e222:	f7ff f9cf 	bl	800d5c4 <_free_r>
 800e226:	e7e9      	b.n	800e1fc <_realloc_r+0x1c>
 800e228:	4635      	mov	r5, r6
 800e22a:	e7e7      	b.n	800e1fc <_realloc_r+0x1c>

0800e22c <_read_r>:
 800e22c:	b538      	push	{r3, r4, r5, lr}
 800e22e:	4d07      	ldr	r5, [pc, #28]	; (800e24c <_read_r+0x20>)
 800e230:	4604      	mov	r4, r0
 800e232:	4608      	mov	r0, r1
 800e234:	4611      	mov	r1, r2
 800e236:	2200      	movs	r2, #0
 800e238:	602a      	str	r2, [r5, #0]
 800e23a:	461a      	mov	r2, r3
 800e23c:	f7f7 fb14 	bl	8005868 <_read>
 800e240:	1c43      	adds	r3, r0, #1
 800e242:	d102      	bne.n	800e24a <_read_r+0x1e>
 800e244:	682b      	ldr	r3, [r5, #0]
 800e246:	b103      	cbz	r3, 800e24a <_read_r+0x1e>
 800e248:	6023      	str	r3, [r4, #0]
 800e24a:	bd38      	pop	{r3, r4, r5, pc}
 800e24c:	20002f5c 	.word	0x20002f5c

0800e250 <_raise_r>:
 800e250:	291f      	cmp	r1, #31
 800e252:	b538      	push	{r3, r4, r5, lr}
 800e254:	4604      	mov	r4, r0
 800e256:	460d      	mov	r5, r1
 800e258:	d904      	bls.n	800e264 <_raise_r+0x14>
 800e25a:	2316      	movs	r3, #22
 800e25c:	6003      	str	r3, [r0, #0]
 800e25e:	f04f 30ff 	mov.w	r0, #4294967295
 800e262:	bd38      	pop	{r3, r4, r5, pc}
 800e264:	6c42      	ldr	r2, [r0, #68]	; 0x44
 800e266:	b112      	cbz	r2, 800e26e <_raise_r+0x1e>
 800e268:	f852 3021 	ldr.w	r3, [r2, r1, lsl #2]
 800e26c:	b94b      	cbnz	r3, 800e282 <_raise_r+0x32>
 800e26e:	4620      	mov	r0, r4
 800e270:	f000 f830 	bl	800e2d4 <_getpid_r>
 800e274:	462a      	mov	r2, r5
 800e276:	4601      	mov	r1, r0
 800e278:	4620      	mov	r0, r4
 800e27a:	e8bd 4038 	ldmia.w	sp!, {r3, r4, r5, lr}
 800e27e:	f000 b817 	b.w	800e2b0 <_kill_r>
 800e282:	2b01      	cmp	r3, #1
 800e284:	d00a      	beq.n	800e29c <_raise_r+0x4c>
 800e286:	1c59      	adds	r1, r3, #1
 800e288:	d103      	bne.n	800e292 <_raise_r+0x42>
 800e28a:	2316      	movs	r3, #22
 800e28c:	6003      	str	r3, [r0, #0]
 800e28e:	2001      	movs	r0, #1
 800e290:	e7e7      	b.n	800e262 <_raise_r+0x12>
 800e292:	2400      	movs	r4, #0
 800e294:	f842 4025 	str.w	r4, [r2, r5, lsl #2]
 800e298:	4628      	mov	r0, r5
 800e29a:	4798      	blx	r3
 800e29c:	2000      	movs	r0, #0
 800e29e:	e7e0      	b.n	800e262 <_raise_r+0x12>

0800e2a0 <raise>:
 800e2a0:	4b02      	ldr	r3, [pc, #8]	; (800e2ac <raise+0xc>)
 800e2a2:	4601      	mov	r1, r0
 800e2a4:	6818      	ldr	r0, [r3, #0]
 800e2a6:	f7ff bfd3 	b.w	800e250 <_raise_r>
 800e2aa:	bf00      	nop
 800e2ac:	20000738 	.word	0x20000738

0800e2b0 <_kill_r>:
 800e2b0:	b538      	push	{r3, r4, r5, lr}
 800e2b2:	4d07      	ldr	r5, [pc, #28]	; (800e2d0 <_kill_r+0x20>)
 800e2b4:	2300      	movs	r3, #0
 800e2b6:	4604      	mov	r4, r0
 800e2b8:	4608      	mov	r0, r1
 800e2ba:	4611      	mov	r1, r2
 800e2bc:	602b      	str	r3, [r5, #0]
 800e2be:	f7f7 fac5 	bl	800584c <_kill>
 800e2c2:	1c43      	adds	r3, r0, #1
 800e2c4:	d102      	bne.n	800e2cc <_kill_r+0x1c>
 800e2c6:	682b      	ldr	r3, [r5, #0]
 800e2c8:	b103      	cbz	r3, 800e2cc <_kill_r+0x1c>
 800e2ca:	6023      	str	r3, [r4, #0]
 800e2cc:	bd38      	pop	{r3, r4, r5, pc}
 800e2ce:	bf00      	nop
 800e2d0:	20002f5c 	.word	0x20002f5c

0800e2d4 <_getpid_r>:
 800e2d4:	f7f7 bab8 	b.w	8005848 <_getpid>

0800e2d8 <__ascii_wctomb>:
 800e2d8:	b149      	cbz	r1, 800e2ee <__ascii_wctomb+0x16>
 800e2da:	2aff      	cmp	r2, #255	; 0xff
 800e2dc:	bf85      	ittet	hi
 800e2de:	238a      	movhi	r3, #138	; 0x8a
 800e2e0:	6003      	strhi	r3, [r0, #0]
 800e2e2:	700a      	strbls	r2, [r1, #0]
 800e2e4:	f04f 30ff 	movhi.w	r0, #4294967295
 800e2e8:	bf98      	it	ls
 800e2ea:	2001      	movls	r0, #1
 800e2ec:	4770      	bx	lr
 800e2ee:	4608      	mov	r0, r1
 800e2f0:	4770      	bx	lr
	...

0800e2f4 <_fstat_r>:
 800e2f4:	b538      	push	{r3, r4, r5, lr}
 800e2f6:	4d07      	ldr	r5, [pc, #28]	; (800e314 <_fstat_r+0x20>)
 800e2f8:	2300      	movs	r3, #0
 800e2fa:	4604      	mov	r4, r0
 800e2fc:	4608      	mov	r0, r1
 800e2fe:	4611      	mov	r1, r2
 800e300:	602b      	str	r3, [r5, #0]
 800e302:	f7f7 face 	bl	80058a2 <_fstat>
 800e306:	1c43      	adds	r3, r0, #1
 800e308:	d102      	bne.n	800e310 <_fstat_r+0x1c>
 800e30a:	682b      	ldr	r3, [r5, #0]
 800e30c:	b103      	cbz	r3, 800e310 <_fstat_r+0x1c>
 800e30e:	6023      	str	r3, [r4, #0]
 800e310:	bd38      	pop	{r3, r4, r5, pc}
 800e312:	bf00      	nop
 800e314:	20002f5c 	.word	0x20002f5c

0800e318 <_isatty_r>:
 800e318:	b538      	push	{r3, r4, r5, lr}
 800e31a:	4d06      	ldr	r5, [pc, #24]	; (800e334 <_isatty_r+0x1c>)
 800e31c:	2300      	movs	r3, #0
 800e31e:	4604      	mov	r4, r0
 800e320:	4608      	mov	r0, r1
 800e322:	602b      	str	r3, [r5, #0]
 800e324:	f7f7 fac2 	bl	80058ac <_isatty>
 800e328:	1c43      	adds	r3, r0, #1
 800e32a:	d102      	bne.n	800e332 <_isatty_r+0x1a>
 800e32c:	682b      	ldr	r3, [r5, #0]
 800e32e:	b103      	cbz	r3, 800e332 <_isatty_r+0x1a>
 800e330:	6023      	str	r3, [r4, #0]
 800e332:	bd38      	pop	{r3, r4, r5, pc}
 800e334:	20002f5c 	.word	0x20002f5c

0800e338 <_malloc_usable_size_r>:
 800e338:	f851 3c04 	ldr.w	r3, [r1, #-4]
 800e33c:	1f18      	subs	r0, r3, #4
 800e33e:	2b00      	cmp	r3, #0
 800e340:	bfbc      	itt	lt
 800e342:	580b      	ldrlt	r3, [r1, r0]
 800e344:	18c0      	addlt	r0, r0, r3
 800e346:	4770      	bx	lr

0800e348 <roundf>:
 800e348:	ee10 0a10 	vmov	r0, s0
 800e34c:	f3c0 53c7 	ubfx	r3, r0, #23, #8
 800e350:	f1a3 027f 	sub.w	r2, r3, #127	; 0x7f
 800e354:	2a16      	cmp	r2, #22
 800e356:	dc15      	bgt.n	800e384 <roundf+0x3c>
 800e358:	2a00      	cmp	r2, #0
 800e35a:	da08      	bge.n	800e36e <roundf+0x26>
 800e35c:	3201      	adds	r2, #1
 800e35e:	f000 4300 	and.w	r3, r0, #2147483648	; 0x80000000
 800e362:	d101      	bne.n	800e368 <roundf+0x20>
 800e364:	f043 537e 	orr.w	r3, r3, #1065353216	; 0x3f800000
 800e368:	ee00 3a10 	vmov	s0, r3
 800e36c:	4770      	bx	lr
 800e36e:	4908      	ldr	r1, [pc, #32]	; (800e390 <roundf+0x48>)
 800e370:	4111      	asrs	r1, r2
 800e372:	4208      	tst	r0, r1
 800e374:	d0fa      	beq.n	800e36c <roundf+0x24>
 800e376:	f44f 0380 	mov.w	r3, #4194304	; 0x400000
 800e37a:	4113      	asrs	r3, r2
 800e37c:	4403      	add	r3, r0
 800e37e:	ea23 0301 	bic.w	r3, r3, r1
 800e382:	e7f1      	b.n	800e368 <roundf+0x20>
 800e384:	2a80      	cmp	r2, #128	; 0x80
 800e386:	d1f1      	bne.n	800e36c <roundf+0x24>
 800e388:	ee30 0a00 	vadd.f32	s0, s0, s0
 800e38c:	4770      	bx	lr
 800e38e:	bf00      	nop
 800e390:	007fffff 	.word	0x007fffff

0800e394 <sqrt>:
 800e394:	b538      	push	{r3, r4, r5, lr}
 800e396:	ed2d 8b02 	vpush	{d8}
 800e39a:	ec55 4b10 	vmov	r4, r5, d0
 800e39e:	f000 f82d 	bl	800e3fc <__ieee754_sqrt>
 800e3a2:	4b15      	ldr	r3, [pc, #84]	; (800e3f8 <sqrt+0x64>)
 800e3a4:	eeb0 8a40 	vmov.f32	s16, s0
 800e3a8:	eef0 8a60 	vmov.f32	s17, s1
 800e3ac:	f993 3000 	ldrsb.w	r3, [r3]
 800e3b0:	3301      	adds	r3, #1
 800e3b2:	d019      	beq.n	800e3e8 <sqrt+0x54>
 800e3b4:	4622      	mov	r2, r4
 800e3b6:	462b      	mov	r3, r5
 800e3b8:	4620      	mov	r0, r4
 800e3ba:	4629      	mov	r1, r5
 800e3bc:	f7f2 fbb6 	bl	8000b2c <__aeabi_dcmpun>
 800e3c0:	b990      	cbnz	r0, 800e3e8 <sqrt+0x54>
 800e3c2:	2200      	movs	r2, #0
 800e3c4:	2300      	movs	r3, #0
 800e3c6:	4620      	mov	r0, r4
 800e3c8:	4629      	mov	r1, r5
 800e3ca:	f7f2 fb87 	bl	8000adc <__aeabi_dcmplt>
 800e3ce:	b158      	cbz	r0, 800e3e8 <sqrt+0x54>
 800e3d0:	f7fd f86a 	bl	800b4a8 <__errno>
 800e3d4:	2321      	movs	r3, #33	; 0x21
 800e3d6:	6003      	str	r3, [r0, #0]
 800e3d8:	2200      	movs	r2, #0
 800e3da:	2300      	movs	r3, #0
 800e3dc:	4610      	mov	r0, r2
 800e3de:	4619      	mov	r1, r3
 800e3e0:	f7f2 fa34 	bl	800084c <__aeabi_ddiv>
 800e3e4:	ec41 0b18 	vmov	d8, r0, r1
 800e3e8:	eeb0 0a48 	vmov.f32	s0, s16
 800e3ec:	eef0 0a68 	vmov.f32	s1, s17
 800e3f0:	ecbd 8b02 	vpop	{d8}
 800e3f4:	bd38      	pop	{r3, r4, r5, pc}
 800e3f6:	bf00      	nop
 800e3f8:	20000908 	.word	0x20000908

0800e3fc <__ieee754_sqrt>:
 800e3fc:	e92d 41f0 	stmdb	sp!, {r4, r5, r6, r7, r8, lr}
 800e400:	ec55 4b10 	vmov	r4, r5, d0
 800e404:	4e56      	ldr	r6, [pc, #344]	; (800e560 <__ieee754_sqrt+0x164>)
 800e406:	43ae      	bics	r6, r5
 800e408:	ee10 0a10 	vmov	r0, s0
 800e40c:	ee10 3a10 	vmov	r3, s0
 800e410:	4629      	mov	r1, r5
 800e412:	462a      	mov	r2, r5
 800e414:	d110      	bne.n	800e438 <__ieee754_sqrt+0x3c>
 800e416:	ee10 2a10 	vmov	r2, s0
 800e41a:	462b      	mov	r3, r5
 800e41c:	f7f2 f8ec 	bl	80005f8 <__aeabi_dmul>
 800e420:	4602      	mov	r2, r0
 800e422:	460b      	mov	r3, r1
 800e424:	4620      	mov	r0, r4
 800e426:	4629      	mov	r1, r5
 800e428:	f7f1 ff30 	bl	800028c <__adddf3>
 800e42c:	4604      	mov	r4, r0
 800e42e:	460d      	mov	r5, r1
 800e430:	ec45 4b10 	vmov	d0, r4, r5
 800e434:	e8bd 81f0 	ldmia.w	sp!, {r4, r5, r6, r7, r8, pc}
 800e438:	2d00      	cmp	r5, #0
 800e43a:	dc10      	bgt.n	800e45e <__ieee754_sqrt+0x62>
 800e43c:	f025 4600 	bic.w	r6, r5, #2147483648	; 0x80000000
 800e440:	4330      	orrs	r0, r6
 800e442:	d0f5      	beq.n	800e430 <__ieee754_sqrt+0x34>
 800e444:	b15d      	cbz	r5, 800e45e <__ieee754_sqrt+0x62>
 800e446:	ee10 2a10 	vmov	r2, s0
 800e44a:	462b      	mov	r3, r5
 800e44c:	ee10 0a10 	vmov	r0, s0
 800e450:	f7f1 ff1a 	bl	8000288 <__aeabi_dsub>
 800e454:	4602      	mov	r2, r0
 800e456:	460b      	mov	r3, r1
 800e458:	f7f2 f9f8 	bl	800084c <__aeabi_ddiv>
 800e45c:	e7e6      	b.n	800e42c <__ieee754_sqrt+0x30>
 800e45e:	1509      	asrs	r1, r1, #20
 800e460:	d076      	beq.n	800e550 <__ieee754_sqrt+0x154>
 800e462:	f3c2 0213 	ubfx	r2, r2, #0, #20
 800e466:	07ce      	lsls	r6, r1, #31
 800e468:	f442 1080 	orr.w	r0, r2, #1048576	; 0x100000
 800e46c:	bf5e      	ittt	pl
 800e46e:	0fda      	lsrpl	r2, r3, #31
 800e470:	005b      	lslpl	r3, r3, #1
 800e472:	eb02 0040 	addpl.w	r0, r2, r0, lsl #1
 800e476:	0fda      	lsrs	r2, r3, #31
 800e478:	f2a1 35ff 	subw	r5, r1, #1023	; 0x3ff
 800e47c:	eb02 0240 	add.w	r2, r2, r0, lsl #1
 800e480:	2000      	movs	r0, #0
 800e482:	106d      	asrs	r5, r5, #1
 800e484:	005b      	lsls	r3, r3, #1
 800e486:	f04f 0e16 	mov.w	lr, #22
 800e48a:	4684      	mov	ip, r0
 800e48c:	f44f 1100 	mov.w	r1, #2097152	; 0x200000
 800e490:	eb0c 0401 	add.w	r4, ip, r1
 800e494:	4294      	cmp	r4, r2
 800e496:	bfde      	ittt	le
 800e498:	1b12      	suble	r2, r2, r4
 800e49a:	eb04 0c01 	addle.w	ip, r4, r1
 800e49e:	1840      	addle	r0, r0, r1
 800e4a0:	0052      	lsls	r2, r2, #1
 800e4a2:	f1be 0e01 	subs.w	lr, lr, #1
 800e4a6:	eb02 72d3 	add.w	r2, r2, r3, lsr #31
 800e4aa:	ea4f 0151 	mov.w	r1, r1, lsr #1
 800e4ae:	ea4f 0343 	mov.w	r3, r3, lsl #1
 800e4b2:	d1ed      	bne.n	800e490 <__ieee754_sqrt+0x94>
 800e4b4:	4671      	mov	r1, lr
 800e4b6:	2720      	movs	r7, #32
 800e4b8:	f04f 4400 	mov.w	r4, #2147483648	; 0x80000000
 800e4bc:	4562      	cmp	r2, ip
 800e4be:	eb04 060e 	add.w	r6, r4, lr
 800e4c2:	dc02      	bgt.n	800e4ca <__ieee754_sqrt+0xce>
 800e4c4:	d113      	bne.n	800e4ee <__ieee754_sqrt+0xf2>
 800e4c6:	429e      	cmp	r6, r3
 800e4c8:	d811      	bhi.n	800e4ee <__ieee754_sqrt+0xf2>
 800e4ca:	2e00      	cmp	r6, #0
 800e4cc:	eb06 0e04 	add.w	lr, r6, r4
 800e4d0:	da43      	bge.n	800e55a <__ieee754_sqrt+0x15e>
 800e4d2:	f1be 0f00 	cmp.w	lr, #0
 800e4d6:	db40      	blt.n	800e55a <__ieee754_sqrt+0x15e>
 800e4d8:	f10c 0801 	add.w	r8, ip, #1
 800e4dc:	eba2 020c 	sub.w	r2, r2, ip
 800e4e0:	429e      	cmp	r6, r3
 800e4e2:	bf88      	it	hi
 800e4e4:	f102 32ff 	addhi.w	r2, r2, #4294967295
 800e4e8:	1b9b      	subs	r3, r3, r6
 800e4ea:	4421      	add	r1, r4
 800e4ec:	46c4      	mov	ip, r8
 800e4ee:	0052      	lsls	r2, r2, #1
 800e4f0:	3f01      	subs	r7, #1
 800e4f2:	eb02 72d3 	add.w	r2, r2, r3, lsr #31
 800e4f6:	ea4f 0454 	mov.w	r4, r4, lsr #1
 800e4fa:	ea4f 0343 	mov.w	r3, r3, lsl #1
 800e4fe:	d1dd      	bne.n	800e4bc <__ieee754_sqrt+0xc0>
 800e500:	4313      	orrs	r3, r2
 800e502:	d006      	beq.n	800e512 <__ieee754_sqrt+0x116>
 800e504:	1c4c      	adds	r4, r1, #1
 800e506:	bf13      	iteet	ne
 800e508:	3101      	addne	r1, #1
 800e50a:	3001      	addeq	r0, #1
 800e50c:	4639      	moveq	r1, r7
 800e50e:	f021 0101 	bicne.w	r1, r1, #1
 800e512:	1043      	asrs	r3, r0, #1
 800e514:	f103 537f 	add.w	r3, r3, #1069547520	; 0x3fc00000
 800e518:	0849      	lsrs	r1, r1, #1
 800e51a:	f503 1300 	add.w	r3, r3, #2097152	; 0x200000
 800e51e:	07c2      	lsls	r2, r0, #31
 800e520:	bf48      	it	mi
 800e522:	f041 4100 	orrmi.w	r1, r1, #2147483648	; 0x80000000
 800e526:	eb03 5705 	add.w	r7, r3, r5, lsl #20
 800e52a:	460c      	mov	r4, r1
 800e52c:	463d      	mov	r5, r7
 800e52e:	e77f      	b.n	800e430 <__ieee754_sqrt+0x34>
 800e530:	0ada      	lsrs	r2, r3, #11
 800e532:	3815      	subs	r0, #21
 800e534:	055b      	lsls	r3, r3, #21
 800e536:	2a00      	cmp	r2, #0
 800e538:	d0fa      	beq.n	800e530 <__ieee754_sqrt+0x134>
 800e53a:	02d7      	lsls	r7, r2, #11
 800e53c:	d50a      	bpl.n	800e554 <__ieee754_sqrt+0x158>
 800e53e:	f1c1 0420 	rsb	r4, r1, #32
 800e542:	fa23 f404 	lsr.w	r4, r3, r4
 800e546:	1e4d      	subs	r5, r1, #1
 800e548:	408b      	lsls	r3, r1
 800e54a:	4322      	orrs	r2, r4
 800e54c:	1b41      	subs	r1, r0, r5
 800e54e:	e788      	b.n	800e462 <__ieee754_sqrt+0x66>
 800e550:	4608      	mov	r0, r1
 800e552:	e7f0      	b.n	800e536 <__ieee754_sqrt+0x13a>
 800e554:	0052      	lsls	r2, r2, #1
 800e556:	3101      	adds	r1, #1
 800e558:	e7ef      	b.n	800e53a <__ieee754_sqrt+0x13e>
 800e55a:	46e0      	mov	r8, ip
 800e55c:	e7be      	b.n	800e4dc <__ieee754_sqrt+0xe0>
 800e55e:	bf00      	nop
 800e560:	7ff00000 	.word	0x7ff00000

0800e564 <_init>:
 800e564:	b5f8      	push	{r3, r4, r5, r6, r7, lr}
 800e566:	bf00      	nop
 800e568:	bcf8      	pop	{r3, r4, r5, r6, r7}
 800e56a:	bc08      	pop	{r3}
 800e56c:	469e      	mov	lr, r3
 800e56e:	4770      	bx	lr

0800e570 <_fini>:
 800e570:	b5f8      	push	{r3, r4, r5, r6, r7, lr}
 800e572:	bf00      	nop
 800e574:	bcf8      	pop	{r3, r4, r5, r6, r7}
 800e576:	bc08      	pop	{r3}
 800e578:	469e      	mov	lr, r3
 800e57a:	4770      	bx	lr
